81011f14 t .udivsi3_skip_div0_test
81009c60 T ABORTD_Handler
8100952c t ABORTD_Handler_Ptr
810094ec T ABORTD_SubHandler
81000028 t ABORTD_SubHandler_Trampoline
81009bf0 T ABORTP_Handler
810094e8 t ABORTP_Handler_Ptr
810094a8 T ABORTP_SubHandler
81000024 t ABORTP_SubHandler_Trampoline
81019a40 B ABORT_recursion_counter
81000000 T ARM_Vectors
00000000 a BUILD_RTM
00000000 a BUILD_RTM
00000000 a BUILD_RTM
00000000 a BUILD_RTM
81007f70 T BootEntry
810000a0 t BootEntryPointer
810000b4 T BootstrapCode_Clocks
81000154 T BootstrapCode_Ext_Flash
8100013c T BootstrapCode_Ext_SRAM
8100016c T BootstrapCode_Pins
00000001 a COMPILE_ARM
00000001 a COMPILE_ARM
00000001 a COMPILE_ARM
00000001 a COMPILE_ARM
81000074 t ClearZI_ER_RAM
810079b8 T Crypto_AbortRSAOperation
810079a8 T Crypto_StartRSAOperationWithKey
810079b0 T Crypto_StepRSAOperation
81000000 T EntryPoint
00000001 a HAL_REDUCESIZE
00000001 a HAL_REDUCESIZE
00000001 a HAL_REDUCESIZE
81006320 T HAL_Time_CurrentTicks
81009530 T HARD_Breakpoint
81009cd0 T HARD_Breakpoint_Handler
81009554 t HARD_Breakpoint_Handler_Ptr
81013be4 T HalName
810159a8 D HalSystemConfig
81018590 B Hal_Usart_State
810f0000 R HeapBegin
810f8ff8 R HeapEnd
81014560 T IDelayLoop
8101456c T IDelayLoop2
81014560 t IDelayLoop__Fi_b
810072c4 T IRQ_Handler
81014540 T IRQ_LOCK_Disable_asm
81014510 T IRQ_LOCK_ForceDisabled_asm
81014528 T IRQ_LOCK_ForceEnabled_asm
81014500 T IRQ_LOCK_GetState_asm
810144ec T IRQ_LOCK_Probe_asm
810144dc T IRQ_LOCK_Release_asm
81014550 T IRQ_LOCK_Restore_asm
8100002c T IRQ_SubHandler_Trampoline
40000000 N Image$$ER_IRAM$$Base
00000000 A Image$$ER_IRAM$$Length
000157d4 A Image$$ER_RAM$$Length
81000000 T Image$$ER_RAM_RO$$Base
000157d4 A Image$$ER_RAM_RO$$Length
810157e0 D Image$$ER_RAM_RW$$Base
00000b34 A Image$$ER_RAM_RW$$Length
81016320 B Image$$ER_RAM_RW$$ZI$$Base
000038d0 A Image$$ER_RAM_RW$$ZI$$Length
81018588 B LOAD_IMAGE_CalcCRC
81018580 B LOAD_IMAGE_Length
8101857c B LOAD_IMAGE_Start
40000000 A Load$$ER_IRAM$$Base
81000000 T Load$$ER_RAM$$Base
81000000 A Load$$ER_RAM_RO$$Base
810157e0 A Load$$ER_RAM_RW$$Base
81000080 t NoClearZI_ER_RAM
00000001 a PLATFORM_ARM_LPC22XX
00000001 a PLATFORM_ARM_LPC22XX
00000001 a PLATFORM_ARM_LPC22XX
00000001 a PLATFORM_ARM_LPC22XX
00000001 a PLATFORM_ARM_YAAB
00000001 a PLATFORM_ARM_YAAB
00000001 a PLATFORM_ARM_YAAB
00000001 a PLATFORM_ARM_YAAB
000000d7 a PSR_MODE_ABORT
000000d7 a PSR_MODE_ABORT
000000d1 a PSR_MODE_FIQ
000000d1 a PSR_MODE_FIQ
000000d2 a PSR_MODE_IRQ
000000d2 a PSR_MODE_IRQ
000000d3 a PSR_MODE_SUPERVISOR
000000d3 a PSR_MODE_SUPERVISOR
000000df a PSR_MODE_SYSTEM
000000df a PSR_MODE_SYSTEM
000000db a PSR_MODE_UNDEF
000000db a PSR_MODE_UNDEF
000000d0 a PSR_MODE_USER
000000d0 a PSR_MODE_USER
81018a40 B RxBuffer_Com
00000010 a STACK_MODE_ABORT
00000800 a STACK_MODE_IRQ
00000010 a STACK_MODE_UNDEF
810f9000 R StackBottom
810ffff8 R StackTop
81017648 B SystemEvents
81007ef0 T SystemState_ClearNoLock
81007f0c T SystemState_QueryNoLock
81007ed4 T SystemState_SetNoLock
81018568 B SystemStates
00000001 a TARGETLOCATION_RAM
00000001 a TARGETLOCATION_RAM
00000001 a TARGETLOCATION_RAM
00000001 a TARGETLOCATION_RAM
81018640 B TxBuffer_Com
81009b80 T UNDEF_Handler
810094a4 t UNDEF_Handler_Ptr
81009464 T UNDEF_SubHandler
81000020 t UNDEF_SubHandler_Trampoline
81000030 t VectorAreaSkip
8100f4f8 T _Balloc
8100f580 T _Bfree
81005460 T _Z10Events_Setj
810091b4 T _Z10USART_ReadiPcj
81007b48 T _Z10hal_printfPKcz
81008f78 T _Z11USART_Flushi
81008b64 T _Z11USART_WriteiPKcj
81007ae4 T _Z11hal_fprintfiPKcz
81007b14 T _Z11hal_vprintfPKcSt9__va_list
810054c4 T _Z12Events_Clearj
810075d8 T _Z12HAL_AssertExv
81005b10 T _Z12HeapLocationRPhRj
81007998 T _Z12SOCKETS_ReadiPcj
81007bd8 T _Z12hal_strlen_sPKc
810079ec T _Z12hal_vfprintfiPKcSt9__va_list
8100a364 T _Z13FS_AddVolumesv
8100a368 T _Z13FS_Initializev
810079a0 T _Z13SOCKETS_Flushi
81007990 T _Z13SOCKETS_WriteiPKcj
8100942c T _Z13USB_ConfigureiPK25USB_DYNAMIC_CONFIGURATION
81007b78 T _Z13hal_strncpy_sPcjPKcj
810079d0 T _Z13hal_vsnprintfPcjPKcSt9__va_list
81007470 T _Z14CPU_Initializev
81007cc4 T _Z14HAL_Initializev
8100a44c T _Z14I2C_Initializev
8100a468 T _Z14Ink_Initializev
810056c8 T _Z14LCD_Initializev
81009424 T _Z14USB_Initializei
8100943c T _Z14USB_OpenStreamiii
810061d8 T _Z15CPU_TicksToTimey
81003a6c T _Z15LZ77_DecompressPhiS_i
810037b0 T _Z15LZ77_DecompressPhiS_iPFjjjPKhEPFjjjS_E
8100a9d4 T _Z15Time_Initializev
81009444 T _Z15USB_CloseStreami
810056d0 T _Z16LCD_Uninitializev
8100a9c0 T _Z16Piezo_Initializev
81008854 T _Z16USART_Initializeiiiiii
81009434 T _Z16USB_Uninitializei
8100a958 T _Z16Watchdog_Disablev
810079c0 T _Z17CPU_DisableCachesv
81005320 T _Z17DebuggerPort_ReadiPcj
81005694 T _Z17Events_Initializev
81005514 T _Z17Events_MaskedReadj
81000198 T _Z17Initialize_SyncOnv
8100a35c T _Z18Battery_Initializev
81005a1c T _Z18Buttons_Initializev
8100a928 T _Z18CPU_SPI_Initializev
810061cc T _Z18CPU_TicksPerSecondv
8100a354 T _Z18Charger_Initializev
8100a9c4 T _Z18CustomHeapLocationRPhRj
8100538c T _Z18DebuggerPort_Flushi
81005218 T _Z18DebuggerPort_WriteiPKcj
8100a378 T _Z18Gesture_Initializev
81007980 T _Z18SOCKETS_Initializei
81003780 T _Z18SUPPORT_ComputeCRCPKvij
81007620 T _Z18SimpleHeap_ReleasePv
810083d0 T _Z18USART_Uninitializei
81005d24 T _Z19CPU_GPIO_DisablePinj13GPIO_RESISTORj13GPIO_ALT_MODE
81005c58 T _Z19CPU_GPIO_Initializev
810072a8 T _Z19CPU_INTC_Initializev
810079c8 T _Z19CPU_USB_ProtectPinsij
810062b8 T _Z19HAL_Time_Initializev
810064dc T _Z19HAL_Time_SetComparey
8100a9b8 T _Z19PalEvent_Initializev
81007730 T _Z19SimpleHeap_Allocatej
810081c0 T _Z19Verify_RAMConstantsPv
810095fc T _Z20ABORT_HandlerDisplayPjjjjPKcj
8100a34c T _Z20BackLight_Initializev
81005f44 T _Z20CPU_GPIO_GetPinStatej
81006004 T _Z20CPU_GPIO_SetPinStatejj
8100705c T _Z20CPU_USART_Initializeiiiiii
810001ac W _Z20Events_WaitForEventsjj
81005528 T _Z20Events_WaitForEventsjjj
81007bf4 W _Z20HAL_Init_Custom_Heapv
81006514 T _Z20HAL_Time_TicksToTimey
81007988 T _Z20SOCKETS_Uninitializei
8100957c T _Z20monitor_debug_printfPKcz
8100342c T _Z21ApplicationEntryPointv
81007088 T _Z21CPU_USART_ProtectPinsij
81007f2c T _Z21Checksum_RAMConstantsv
810075e8 T _Z21SimpleHeap_InitializePvj
81005794 T _Z22Buttons_CurrentHWStatev
81006e34 T _Z22CPU_USART_Uninitializei
810056dc T _Z22LCD_WriteFormattedCharh
8100a9f8 T _Z22TimeService_Initializev
81009558 T _Z22Watchdog_GetSetEnabledjj
81009560 T _Z22Watchdog_GetSetTimeoutij
8100a30c T _Z23BlockStorage_AddDevicesv
81005eb8 T _Z23CPU_GPIO_EnableInputPinjjPFvjjPvE13GPIO_INT_EDGE13GPIO_RESISTOR
810143e0 T _Z23CPU_MicrosecondsToTicksj
810143a8 T _Z23CPU_MicrosecondsToTicksy
8100620c T _Z23CPU_MillisecondsToTicksj
81006700 T _Z23CPU_USART_TxBufferEmptyi
810050a0 T _Z23DebuggerPort_Initializei
8100a528 T _Z23I2C_Internal_Initializev
81009408 T _Z23USART_AddCharToRxBufferic
8100025c T _Z23WaitForTinyBooterUploadRi
81009568 T _Z23Watchdog_GetSetBehavior17Watchdog_Behaviorj
81005720 T _Z24Buttons_HW_To_Hal_Buttonj
8100aa10 T _Z24CPU_EBIU_Memory_ReadOnlyRK17CPU_MEMORY_CONFIGj
81005e00 T _Z24CPU_GPIO_EnableOutputPinjj
810079c4 T _Z24CPU_GetUncachableAddressj
8100a5bc T _Z24I2C_Internal_XActionStopv
810002f4 T _Z24TinyBooter_OnStateChange16_TinyBooterStatePvPS0_
81005190 T _Z25DebuggerPort_Uninitializei
810004f8 T _Z25TinyBooter_GetReleaseInfoR13MfReleaseInfo
81005af4 T _Z26Buttons_GetNextStateChangeRjS_
8100aa0c T _Z26CPU_EBIU_ConfigMemoryBlockRK17CPU_MEMORY_CONFIG
810073f0 T _Z26CPU_INTC_ActivateInterruptjPFvPvES_
810004b0 T _Z26CheckFlashSectorPermissionP18BlockStorageDevicej
810058f8 T _Z27Buttons_RegisterStateChangejj
810061a8 T _Z27HAL_Time_GetDriftParametersPiS_Px
81014474 T _Z27HAL_Time_Sleep_MicroSecondsj
8100023c T _Z27Tinybooter_ProgramWordCheckv
81000248 T _Z28Tinybooter_ImageIsCompressedv
81008698 T _Z28USART_RemoveCharFromTxBufferiRc
81007308 T _Z29CPU_INTC_InterruptEnableStatej
810053f8 T _Z29CPU_ProtectCommunicationGPIOsj
81006804 T _Z29CPU_USART_WriteCharToTxBufferih
81006778 T _Z30CPU_USART_TxShiftRegisterEmptyi
81000250 T _Z31Tinybooter_CompressedImageStartRK22CompressedImage_Header
8100667c T _Z33CPU_USART_TxHandshakeEnabledStatei
81006bec T _Z37CPU_USART_RxBufferFullInterruptEnableij
81006b3c T _Z37CPU_USART_TxBufferEmptyInterruptStatei
81006ac4 T _Z38CPU_USART_TxBufferEmptyInterruptEnableij
81000258 T _Z39Tinybooter_PrepareForDecompressedLaunchv
81006530 T _Z44HAL_Time_Sleep_MicroSeconds_InterruptEnabledj
81007510 T _Z8CPU_Haltv
81009454 T _Z8USB_ReadiPcj
81007548 T _Z9CPU_Resetv
810075a0 T _Z9CPU_Sleep11SLEEP_LEVELy
810056d8 T _Z9LCD_Clearv
8100945c T _Z9USB_Flushi
8100944c T _Z9USB_WriteiPKcj
81013768 t _ZL10c_CRCTable
81000798 t _ZL12AccessMemoryjjPhi
81006620 t _ZL13setFieldValuejjjj.clone.0
8101352c t _ZL14c_Debugger_app
81013524 t _ZL14c_Debugger_phy
81013538 t _ZL14c_Lookup_Reply
81018524 b _ZL15LoggingCallback
81013544 t _ZL16c_Lookup_Request
81018520 b _ZL16g_s_FirstCluster
81018528 b _ZL16s_rebootHandlers
81018584 b _ZL23g_Boot_RAMConstants_CRC
81014008 t _ZL26g_AT49BV642DT_16_BlkRegion
8101401c t _ZL27g_AT49BV642DT_16_BlockRange
8100062c W _ZN10BlockRange25IsBlockTinyBooterAgnosticEj
8100a3c8 T _ZN10I2C_Driver10InitializeEv
8100aa18 T _ZN10TimeDriver10InitializeEv
81019a88 B _ZN10TimeDriver13m_initializedE
81003a94 T _ZN10WP_Message10InitializeEP13WP_Controller
81003ba8 T _ZN10WP_Message12PrepareReplyERK9WP_PacketjjPh
81003cac T _ZN10WP_Message12VerifyHeaderEv
81003cf0 T _ZN10WP_Message13VerifyPayloadEv
81003af0 T _ZN10WP_Message14PrepareRequestEjjjPh
81003dd4 T _ZN10WP_Message14ReplyBadPacketEj
81003ae4 T _ZN10WP_Message16PrepareReceptionEv
81003e48 T _ZN10WP_Message7ProcessEv
81003c6c T _ZN10WP_Message7ReleaseEv
81003138 T _ZN11CryptoState15VerifySignatureEj
810030e4 T _ZN11CryptoStateC1EjjPhjj
810030e4 T _ZN11CryptoStateC2EjjPhjj
81003110 T _ZN11CryptoStateD1Ev
81003110 T _ZN11CryptoStateD2Ev
81006020 W _ZN11LPC22XX_VIC14ForceInterruptEj
81007104 W _ZN11LPC22XX_VIC18IsInterruptEnabledEj
8100741c W _ZN11LPC22XX_VIC18IsInterruptPendingEv
81007178 W _ZN11LPC22XX_VIC21RemoveForcedInterruptEj
81007138 W _ZN11LPC22XX_VIC22NormalInterruptPendingEv
810070dc W _ZN12HAL_CALLBACK10InitializeEPFvPvES0_
8100780c T _ZN12SmartPtr_IRQ11WasDisabledEv
810078ac T _ZN12SmartPtr_IRQ12ForceEnabledEPv
81007890 T _ZN12SmartPtr_IRQ13ForceDisabledEPv
81007850 T _ZN12SmartPtr_IRQ5ProbeEv
810078ec T _ZN12SmartPtr_IRQ7AcquireEv
810078c8 T _ZN12SmartPtr_IRQ7DisableEv
81007820 T _ZN12SmartPtr_IRQ7ReleaseEv
81007938 T _ZN12SmartPtr_IRQ7RestoreEv
81007874 T _ZN12SmartPtr_IRQ8GetStateEPv
81007910 T _ZN12SmartPtr_IRQC1EPv
81007910 T _ZN12SmartPtr_IRQC2EPv
8100795c T _ZN12SmartPtr_IRQD1Ev
8100795c T _ZN12SmartPtr_IRQD2Ev
810086d0 T _ZN12USART_Driver10InitializeEiiiiii
81008330 T _ZN12USART_Driver12UninitializeEi
81009218 T _ZN12USART_Driver17AddCharToRxBufferEic
810085b8 T _ZN12USART_Driver22RemoveCharFromTxBufferEiRc
81008f94 T _ZN12USART_Driver4ReadEiPcj
81008c5c T _ZN12USART_Driver5FlushEi
810088fc T _ZN12USART_Driver5WriteEiPKcj
81008460 T _ZN12USART_Driver7SendXONEij
810083ec T _ZN12USART_Driver8SendXOFFEij
810084c4 T _ZN12USART_Driver8SetEventEij
81006654 W _ZN13LPC22XX_USART8getIntNoEi
81001ad8 T _ZN13Loader_Engine10InitializeEi
8100058c T _ZN13Loader_Engine11App_ReleaseEPvP10WP_Message
81002200 T _ZN13Loader_Engine12Monitor_PingEP10WP_Message
81002910 T _ZN13Loader_Engine14Monitor_RebootEP10WP_Message
81002820 T _ZN13Loader_Engine14ProcessPayloadEP10WP_Message
81002480 t _ZN13Loader_Engine14ReplyToCommandEP10WP_Messagebb.clone.0
81001eac T _ZN13Loader_Engine14ReplyToCommandEP10WP_MessagebbPvi
810026a8 T _ZN13Loader_Engine15Monitor_ExecuteEP10WP_Message
81002188 T _ZN13Loader_Engine15Monitor_OemInfoEP10WP_Message
81001b80 T _ZN13Loader_Engine15ProcessCommandsEv
810016ec T _ZN13Loader_Engine15SignedDataState10CheckDirtyEv
81001904 T _ZN13Loader_Engine15SignedDataState15VerifySignatureEPhjj
81001744 T _ZN13Loader_Engine15SignedDataState19EraseMemoryAndResetEv
810017bc T _ZN13Loader_Engine15SignedDataState20VerifyContiguousDataEjj
81001710 T _ZN13Loader_Engine15SignedDataState5ResetEv
81001e00 T _ZN13Loader_Engine15TransmitMessageEPK10WP_Messageb
810005b4 T _ZN13Loader_Engine16Phy_ReceiveBytesEPvRPhRj
81000558 T _ZN13Loader_Engine17App_ProcessHeaderEPvP10WP_Message
81002248 T _ZN13Loader_Engine17Monitor_MemoryMapEP10WP_Message
810028e0 T _ZN13Loader_Engine18App_ProcessPayloadEPvP10WP_Message
81001ccc T _ZN13Loader_Engine18EnumerateAndLaunchEv
810023bc T _ZN13Loader_Engine18Monitor_ReadMemoryEP10WP_Message
8100230c T _ZN13Loader_Engine19Monitor_CheckMemoryEP10WP_Message
810025f4 T _ZN13Loader_Engine19Monitor_EraseMemoryEP10WP_Message
81002538 T _ZN13Loader_Engine19Monitor_WriteMemoryEP10WP_Message
81001e8c T _ZN13Loader_Engine19Phy_TransmitMessageEPvPK10WP_Message
810024a8 T _ZN13Loader_Engine22Monitor_CheckSignatureEP10WP_Message
81001f5c T _ZN13Loader_Engine22Monitor_FlashSectorMapEP10WP_Message
81002970 T _ZN13Loader_Engine26Monitor_SignatureKeyUpdateEP10WP_Message
81001ba0 T _ZN13Loader_Engine6LaunchEPFvvE
81002b00 T _ZN13MfReleaseInfo4InitERS_ttttPKcj
81003d40 T _ZN13WP_Controller10InitializeEPKcPK16WP_PhysicalLayerPK19WP_ApplicationLayerPv
8100416c T _ZN13WP_Controller12AdvanceStateEv
81003db4 T _ZN13WP_Controller19SendProtocolMessageERK10WP_Message
8100418c T _ZN13WP_Controller19SendProtocolMessageEjjjPh
8100a0ec T _ZN14HAL_COMPLETION14DequeueAndExecEv
81009f40 T _ZN14HAL_COMPLETION14InitializeListEv
81009dd8 T _ZN14HAL_COMPLETION17WaitForInterruptsEyjy
8100a0c0 T _ZN14HAL_COMPLETION7ExecuteEv
81007440 T _ZN14LPC22XX_Driver10InitializeEv
810074b8 T _ZN14LPC22XX_Driver4HaltEv
8100752c T _ZN14LPC22XX_Driver5ResetEv
8100748c T _ZN14LPC22XX_Driver5SleepEv
81007564 T _ZN14LPC22XX_Driver8ShutdownEv
81007584 T _ZN14LPC22XX_Driver9HibernateEv
81000fac W _ZN15BitFieldManager17SetDirtySectorBitEj
81000e38 W _ZN15BitFieldManager20ResetBitFieldManagerEv
8100143c W _ZN15BitFieldManager24InvalidateSectorBitFieldEv
81000e58 W _ZN15BitFieldManager24ResetSignatureCheckArrayEv
8100149c W _ZN15BitFieldManager25EraseOnSignatureCheckFailEv
81001148 W _ZN15BitFieldManager27GetNextSectorSignatureCheckEP18BlockStorageDeviceR16SECTOR_BIT_FIELD
8100a470 W _ZN15I2C_HAL_XACTION18ProcessingLastUnitEv
8100a388 T _ZN15I2C_HAL_XACTION6SignalEhj
81004ee8 T _ZN16BlockStorageList10InitializeEv
81017614 B _ZN16BlockStorageList12s_deviceListE
810044a8 T _ZN16BlockStorageList13GetNextDeviceER18BlockStorageDevice
81017610 B _ZN16BlockStorageList13s_InitializedE
8100477c T _ZN16BlockStorageList14GetFirstDeviceEv
81017620 B _ZN16BlockStorageList15s_primaryDeviceE
81004618 T _ZN16BlockStorageList17InitializeDevicesEv
810044f4 T _ZN16BlockStorageList28FindDeviceForPhysicalAddressEPP18BlockStorageDevicejRj
81005004 T _ZN16BlockStorageList9AddDeviceEP18BlockStorageDeviceP19IBlockStorageDevicePvj
8100a344 T _ZN16HAL_CONFIG_BLOCK11ApplyConfigEPKcPvj
81009f1c T _ZN16HAL_CONTINUATION14InitializeListEv
8100a258 T _ZN16HAL_CONTINUATION19Dequeue_And_ExecuteEv
8100a050 T _ZN16HAL_CONTINUATION7EnqueueEv
81009edc W _ZN17HAL_DblLinkedListI16HAL_CONTINUATIONE10InitializeEv
8100a010 W _ZN17HAL_DblLinkedListI16HAL_CONTINUATIONE10LinkAtBackEPS0_
8100a224 W _ZN17HAL_DblLinkedListI16HAL_CONTINUATIONE16ExtractFirstNodeEv
81009f9c W _ZN17HAL_DblLinkedListI16HAL_CONTINUATIONE16InsertBeforeNodeEPS0_S2_
81009f80 W _ZN17HAL_DblLinkedListI16HAL_CONTINUATIONE6InsertEPS0_S2_S2_
81004ea8 W _ZN17HAL_DblLinkedListI18BlockStorageDeviceE10InitializeEv
81004fc4 W _ZN17HAL_DblLinkedListI18BlockStorageDeviceE10LinkAtBackEPS0_
81004f50 W _ZN17HAL_DblLinkedListI18BlockStorageDeviceE16InsertBeforeNodeEPS0_S2_
81004f3c W _ZN17HAL_DblLinkedListI18BlockStorageDeviceE6InsertEPS0_S2_S2_
81005684 W _ZN17HAL_DblLinkedNodeI16HAL_CONTINUATIONE10InitializeEv
81009f64 W _ZN17HAL_DblLinkedNodeI16HAL_CONTINUATIONE14RemoveFromListEv
81009ea8 W _ZN17HAL_DblLinkedNodeI16HAL_CONTINUATIONE6UnlinkEv
8100473c W _ZN17HAL_DblLinkedNodeI18BlockStorageDeviceE10InitializeEv
81004f20 W _ZN17HAL_DblLinkedNodeI18BlockStorageDeviceE14RemoveFromListEv
810001d8 W _ZN18BlockStorageDevice13GetDeviceInfoEv
81000758 W _ZN18BlockStorageDevice13IsBlockErasedEjj
81004210 W _ZN18BlockStorageDevice16InitializeDeviceEv
81004400 W _ZN18BlockStorageDevice17FindForBlockUsageEjRjS0_S0_
8100444c W _ZN18BlockStorageDevice18FindNextUsageBlockEjRjS0_S0_
810001f8 W _ZN18BlockStorageDevice21FindRegionFromAddressEjRjS0_
81000710 W _ZN18BlockStorageDevice4ReadEjjPh
81000730 W _ZN18BlockStorageDevice5WriteEjjPhj
81004bb8 T _ZN18BlockStorageStream10InitializeEj
81004afc T _ZN18BlockStorageStream10InitializeEjP18BlockStorageDevice
810047ac T _ZN18BlockStorageStream10NextStreamEv
81004be0 T _ZN18BlockStorageStream10PrevStreamEv
81004230 T _ZN18BlockStorageStream14CurrentAddressEv
810049b8 T _ZN18BlockStorageStream4ReadEPPhj
81004db0 T _ZN18BlockStorageStream4SeekEiNS_10SeekOriginE
81005954 T _ZN18GPIO_BUTTON_Driver10InitializeEv
8100573c T _ZN18GPIO_BUTTON_Driver14CurrentHWStateEv
810056e0 T _ZN18GPIO_BUTTON_Driver16HW_To_Hal_ButtonEj
81005a7c T _ZN18GPIO_BUTTON_Driver18GetNextStateChangeERjS0_
81005808 T _ZN18GPIO_BUTTON_Driver19RegisterStateChangeEjj
81005914 T _ZN18GPIO_BUTTON_Driver3ISREjjPv
8100a488 T _ZN18LPC22XX_I2C_Driver10InitializeEv
8100a58c T _ZN18LPC22XX_I2C_Driver18MasterXAction_StopEv
8100a5d8 T _ZN18LPC22XX_I2C_Driver18WriteToSubordinateEP20I2C_HAL_XACTION_UNIT
8100a544 T _ZN18LPC22XX_I2C_Driver19MasterXAction_StartEP15I2C_HAL_XACTIONb
8100a620 T _ZN18LPC22XX_I2C_Driver19ReadFromSubordinateEP20I2C_HAL_XACTION_UNIT
8100a67c T _ZN18LPC22XX_I2C_Driver3ISREPv
8100a850 T _ZN18LPC22XX_SPI_Driver10InitializeEv
81007248 T _ZN18LPC22XX_VIC_Driver10InitializeEv
810157e0 D _ZN18LPC22XX_VIC_Driver10s_IsrTableE
8100718c T _ZN18LPC22XX_VIC_Driver11IRQ_HandlerEv
81007324 T _ZN18LPC22XX_VIC_Driver14IRQToIRQVectorEj
810070a4 T _ZN18LPC22XX_VIC_Driver14STUB_ISRVectorEPv
81007354 T _ZN18LPC22XX_VIC_Driver17ActivateInterruptEjjPFvPvES0_
810072e0 T _ZN18LPC22XX_VIC_Driver20InterruptEnableStateEj
8101498c T _ZN19AT49BV_16_BS_Driver10EraseBlockEPvj
81014650 T _ZN19AT49BV_16_BS_Driver12ChipReadOnlyEPvjj
810146e0 T _ZN19AT49BV_16_BS_Driver13Action_ReadIDEPvRjS1_
81014580 T _ZN19AT49BV_16_BS_Driver13GetDeviceInfoEPv
810145f8 T _ZN19AT49BV_16_BS_Driver13IsBlockErasedEPvjj
81014770 T _ZN19AT49BV_16_BS_Driver13ReadProductIDEPvRjS1_
81014598 T _ZN19AT49BV_16_BS_Driver13SetPowerStateEPvj
810147bc T _ZN19AT49BV_16_BS_Driver14ChipInitializeEPv
810148c0 T _ZN19AT49BV_16_BS_Driver16Action_UnprotectEPvPVt
81014a40 T _ZN19AT49BV_16_BS_Driver16Action_WriteWordEPvPVtt
81014578 T _ZN19AT49BV_16_BS_Driver16ChipUnInitializeEPv
81014588 T _ZN19AT49BV_16_BS_Driver17GetSectorMetadataEPvjP14SectorMetadata
81014590 T _ZN19AT49BV_16_BS_Driver17SetSectorMetadataEPvjP14SectorMetadata
810148c4 T _ZN19AT49BV_16_BS_Driver18Action_EraseSectorEPvPVt
810145a8 T _ZN19AT49BV_16_BS_Driver18MaxBlockErase_uSecEPv
8101459c T _ZN19AT49BV_16_BS_Driver19MaxSectorWrite_uSecEPv
810145b4 T _ZN19AT49BV_16_BS_Driver4ReadEPvjjPh
81014c3c T _ZN19AT49BV_16_BS_Driver5WriteEPvjjPhj
81014c08 T _ZN19AT49BV_16_BS_Driver6MemsetEPvjhj
81014af0 T _ZN19AT49BV_16_BS_Driver6WriteXEPvjjPhjj
810057b0 W _ZN19Hal_Queue_KnownSizeIN18GPIO_BUTTON_Driver19BUTTON_STATE_CHANGEELj64EE10InitializeEv
81005a38 W _ZN19Hal_Queue_KnownSizeIN18GPIO_BUTTON_Driver19BUTTON_STATE_CHANGEELj64EE3PopEv
810057c4 W _ZN19Hal_Queue_KnownSizeIN18GPIO_BUTTON_Driver19BUTTON_STATE_CHANGEELj64EE4PushEv
81005c74 T _ZN19LPC22XX_GPIO_Driver10DisablePinEj13GPIO_RESISTORj13GPIO_ALT_MODE
81005bfc T _ZN19LPC22XX_GPIO_Driver10InitializeEv
81005ee0 T _ZN19LPC22XX_GPIO_Driver11GetPinStateEj
81005ba8 W _ZN19LPC22XX_GPIO_Driver11PinToPCBRegEj
81005f60 T _ZN19LPC22XX_GPIO_Driver11SetPinStateEjj
81005e1c T _ZN19LPC22XX_GPIO_Driver14EnableInputPinEjjPFvjjPvES0_13GPIO_INT_EDGE13GPIO_RESISTOR
81005bd0 W _ZN19LPC22XX_GPIO_Driver14PinToPCBRegBitEj
81005b30 T _ZN19LPC22XX_GPIO_Driver14STUB_ISRVectorEjjPv
81005d40 T _ZN19LPC22XX_GPIO_Driver15EnableOutputPinEjj
81005b80 W _ZN19LPC22XX_GPIO_Driver8PinToBitEj
81005b58 W _ZN19LPC22XX_GPIO_Driver9PinToPortEj
8100622c T _ZN19LPC22XX_TIME_Driver10InitializeEv
810143ec T _ZN19LPC22XX_TIME_Driver10Sleep_uSecEj
810064f8 T _ZN19LPC22XX_TIME_Driver11TicksToTimeEy
810062d4 T _ZN19LPC22XX_TIME_Driver12CounterValueEv
8100633c T _ZN19LPC22XX_TIME_Driver15SetCompareValueEy
81014478 T _ZN19LPC22XX_TIME_Driver15Sleep_uSec_LoopEj
81006448 T _ZN19LPC22XX_TIME_Driver3ISREPv
8100a36c T _ZN20FileSystemVolumeList10InitializeEv
8100a370 T _ZN20FileSystemVolumeList17InitializeVolumesEv
8100a380 W _ZN20I2C_HAL_XACTION_UNIT17IsReadXActionUnitEv
8100654c T _ZN20LPC22XX_TIMER_Driver10InitializeEjPFvPvES0_
810060e8 W _ZN20LPC22XX_TIMER_Driver10SetCompareEjj
810144a0 T _ZN20LPC22XX_TIMER_Driver11ReadCounterEj
81006128 W _ZN20LPC22XX_TIMER_Driver13DidCompareHitEj
81006098 W _ZN20LPC22XX_TIMER_Driver14ForceInterruptEj
81006168 W _ZN20LPC22XX_TIMER_Driver15ResetCompareHitEj
81006054 W _ZN20LPC22XX_TIMER_Driver22EnableCompareInterruptEj
81006e50 T _ZN20LPC22XX_USART_Driver10InitializeEiiiiii
81006c08 T _ZN20LPC22XX_USART_Driver11ProtectPinsEij
81006d88 T _ZN20LPC22XX_USART_Driver12UninitializeEi
810066a4 T _ZN20LPC22XX_USART_Driver13TxBufferEmptyEi
81006684 T _ZN20LPC22XX_USART_Driver14IsValidPortNumEi
81006948 T _ZN20LPC22XX_USART_Driver15UART_IntHandlerEPv
81006794 T _ZN20LPC22XX_USART_Driver19WriteCharToTxBufferEih
8100671c T _ZN20LPC22XX_USART_Driver20TxShiftRegisterEmptyEi
81006b58 T _ZN20LPC22XX_USART_Driver27RxBufferFullInterruptEnableEij
81006ae0 T _ZN20LPC22XX_USART_Driver27TxBufferEmptyInterruptStateEi
81006820 T _ZN20LPC22XX_USART_Driver28TxBufferEmptyInterruptEnableEij
810086b4 W _ZN21Hal_Queue_UnknownSizeIhE10InitializeEPhj
81008c0c W _ZN21Hal_Queue_UnknownSizeIhE16NumberOfElementsEv
81008b80 W _ZN21Hal_Queue_UnknownSizeIhE3PopERj
81008570 W _ZN21Hal_Queue_UnknownSizeIhE3PopEv
81008880 W _ZN21Hal_Queue_UnknownSizeIhE4PushERj
810091d0 W _ZN21Hal_Queue_UnknownSizeIhE4PushEv
81008c38 W _ZN21Hal_Queue_UnknownSizeIhE7IsEmptyEv
8100a944 T _ZN23LPC22XX_WATCHDOG_Driver7DisableEv
8100a974 T _ZN23LPC22XX_WATCHDOG_Driver8ResetCpuEv
81003084 T _ZN26ConfigurationSectorManager17GetDeploymentKeysEj
81002c94 T _ZN26ConfigurationSectorManager17LoadConfigurationEv
81002fe8 T _ZN26ConfigurationSectorManager18UpdateSignatureKeyEjPh
81002cfc T _ZN26ConfigurationSectorManager18WriteConfigurationEjPhjj
81002f70 T _ZN26ConfigurationSectorManager19CleanBootLoaderFlagEv
81003020 T _ZN26ConfigurationSectorManager19VerifiySignatureKeyEjPh
810030cc T _ZN26ConfigurationSectorManager20GetTinyBooterVersionEv
81002ef0 T _ZN26ConfigurationSectorManager20IsBootLoaderRequiredERi
81002e84 T _ZN26ConfigurationSectorManager21EraseWriteConfigBlockEPhj
81002fac T _ZN26ConfigurationSectorManager22CheckSignatureKeyEmptyEj
81002b6c T _ZN26ConfigurationSectorManager25LocateConfigurationSectorEj
8100665c W _ZN7LPC22XX4UARTEi
81006034 W _ZN7LPC22XX5TIMEREi
81009570 t _ZN7LPC22XX5TIMEREi.clone.0
81000614 W _ZN9MFVersion4InitERS_tttt
81000690 W _ZNK10BlockRange13GetBlockCountEv
81004208 W _ZNK10BlockRange13GetBlockUsageEv
81000670 W _ZNK10BlockRange8IsConfigEv
81009d88 W _ZNK12HAL_CALLBACK13GetEntryPointEv
810070e4 W _ZNK12HAL_CALLBACK7ExecuteEv
810043cc T _ZNK15BlockDeviceInfo17FindForBlockUsageEjRjS0_S0_
81004314 T _ZNK15BlockDeviceInfo18FindNextUsageBlockEjRjS0_S0_
8100423c T _ZNK15BlockDeviceInfo21FindRegionFromAddressEjRjS0_
810006a4 W _ZNK15BlockRegionInfo12BlockAddressEj
810006b4 W _ZNK15BlockRegionInfo15OffsetFromBlockEj
810006e4 W _ZNK15BlockRegionInfo21BlockIndexFromAddressEj
8100aa00 W _ZNK15BlockRegionInfo4SizeEv
81009d90 W _ZNK16HAL_CONTINUATION13GetEntryPointEv
81009db0 W _ZNK16HAL_CONTINUATION7ExecuteEv
8100a1f4 W _ZNK17HAL_DblLinkedListI16HAL_CONTINUATIONE14FirstValidNodeEv
81009ed8 W _ZNK17HAL_DblLinkedListI16HAL_CONTINUATIONE4HeadEv
81009ed0 W _ZNK17HAL_DblLinkedListI16HAL_CONTINUATIONE4TailEv
81009d78 t _ZNK17HAL_DblLinkedListI16HAL_CONTINUATIONE9FirstNodeEv.clone.0
8100474c W _ZNK17HAL_DblLinkedListI18BlockStorageDeviceE14FirstValidNodeEv
81004ea4 W _ZNK17HAL_DblLinkedListI18BlockStorageDeviceE4HeadEv
81004e9c W _ZNK17HAL_DblLinkedListI18BlockStorageDeviceE4TailEv
81004498 W _ZNK17HAL_DblLinkedListI18BlockStorageDeviceE9FirstNodeEv
81009dd0 W _ZNK17HAL_DblLinkedNodeI16HAL_CONTINUATIONE4NextEv
81009f94 W _ZNK17HAL_DblLinkedNodeI16HAL_CONTINUATIONE4PrevEv
810044a0 W _ZNK17HAL_DblLinkedNodeI18BlockStorageDeviceE4NextEv
81004bd8 W _ZNK17HAL_DblLinkedNodeI18BlockStorageDeviceE4PrevEv
81000778 W _ZNK18BlockStorageDevice10EraseBlockEj
81019a8c b _ZZN10TimeDriver16DateTimeToStringERKxE8rgBuffer
81019b0c b _ZZN10TimeDriver16TimeSpanToStringERKxE8rgBuffer
810159a0 d _ZZN20LPC22XX_USART_Driver11ProtectPinsEijE18COM1_PinsProtected
810159a4 d _ZZN20LPC22XX_USART_Driver11ProtectPinsEijE18COM2_PinsProtected
81012038 T __adddf3
81012998 T __aeabi_cdcmpeq
81012998 T __aeabi_cdcmple
8101297c T __aeabi_cdrcmple
81012a28 T __aeabi_d2iz
81012038 T __aeabi_dadd
810129b0 T __aeabi_dcmpeq
810129f8 T __aeabi_dcmpge
81012a10 T __aeabi_dcmpgt
810129e0 T __aeabi_dcmple
810129c8 T __aeabi_dcmplt
810126d8 T __aeabi_ddiv
81012448 T __aeabi_dmul
8101202c T __aeabi_drsub
81012034 T __aeabi_dsub
81012394 T __aeabi_f2d
8101236c T __aeabi_i2d
81012028 W __aeabi_idiv0
810123e8 T __aeabi_l2d
81012028 W __aeabi_ldiv0
81012348 T __aeabi_ui2d
81011f14 T __aeabi_uidiv
81012008 T __aeabi_uidivmod
810123d4 T __aeabi_ul2d
81012a84 T __aeabi_uldivmod
8101016c T __any_on
8100fe60 T __b2d
8101341c T __clzsi2
810128f4 T __cmpdf2
810100f8 T __copybits
8100ff24 T __d2b
810126d8 T __divdf3
81012b40 T __divdi3
810128f4 T __eqdf2
81012394 T __extendsfdf2
81012a28 T __fixdfsi
810123e8 T __floatdidf
8101236c T __floatsidf
810123d4 T __floatundidf
81012348 T __floatunsidf
810101f4 T __fpclassifyd
810128e4 T __gedf2
81012ac0 T __gnu_ldivmod_helper
81012b00 T __gnu_uldivmod_helper
810128e4 T __gtdf2
8100f764 T __hi0bits
8100f844 T __i2b
810128ec T __ledf2
8100f7b4 T __lo0bits
8100ec7c T __locale_charset
8100eca4 T __locale_cjk_lang
8100ec88 T __locale_mb_cur_max
8100ec98 T __locale_msgcharset
8100fb44 T __lshift
810128ec T __ltdf2
81015f04 D __malloc_av_
81019bbc B __malloc_current_mallinfo
8100f4f0 T __malloc_lock
81019be4 B __malloc_max_sbrked_mem
81019be8 B __malloc_max_total_mem
8101630c D __malloc_sbrk_base
81019bb8 B __malloc_top_pad
81016310 D __malloc_trim_threshold
8100f4f4 T __malloc_unlock
81015ea8 D __mb_cur_max
8100fc48 T __mcmp
8100fca8 T __mdiff
81014338 T __mprec_bigtens
81014270 T __mprec_tens
81014360 T __mprec_tinytens
81012448 T __muldf3
8100f59c T __multadd
8100f868 T __multiply
810128f4 T __nedf2
8100fa50 T __pow5mult
8101002c T __ratio
8100f678 T __s2b
81010320 T __ssprint_r
81012034 T __subdf3
81012fe8 T __udivdi3
81011f14 T __udivsi3
8100fe00 T __ulp
00000000 A __use_no_semihosting_swi
81011558 T _calloc_r
8100d610 T _dtoa_r
810116f0 T _free_r
81015a58 D _impure_ptr
8100ecac T _localeconv_r
8100ece0 T _malloc_r
810115f4 T _malloc_trim_r
810100a4 T _mprec_log10
81011954 T _realloc_r
810157d0 T _sbrk
81010280 T _sbrk_r
8100ec10 T _setlocale_r
         U _start
810104bc T _svfiprintf_r
8100b308 T _svfprintf_r
8100b240 T _vsnprintf_r
81014388 t blanks.6534
810141e0 t blanks.6590
81007c3c T debug_printf
81019bec B errno
81019a78 B g_AT49BV642DT_16_BS
810159ec D g_AT49BV642DT_16_BS_Config
810159d0 D g_AT49BV642DT_16_DeviceInfo
81015a20 D g_AT49BV_16_BS_DeviceTable
81016328 B g_BitFieldManager
81016320 B g_ConfigBuffer
81016324 B g_ConfigBufferLength
81014ec4 T g_ConfigurationSector
8101764c B g_Event_Callback
81017650 B g_Event_Callback_Arg
81017628 B g_Events_BoolTimerCompletion
8101596c D g_GPIO_BUTTON_Config
81017658 B g_GPIO_BUTTON_Driver
81019a44 B g_HAL_Completion_List
81019a50 B g_HAL_Continuation_List
81019a5c B g_I2C_Driver
81017868 B g_LPC22XX_GPIO_Driver
81019a6c B g_LPC22XX_I2C_Driver
81017eb8 B g_LPC22XX_PINSEL_Driver
81018518 B g_LPC22XX_TIMER_Driver
81018508 B g_LPC22XX_TIME_Driver
81016364 B g_PrimaryConfigManager
81019b90 B g_TimeDriver
81016c90 B g_eng
81015a60 d impure_data
81015e88 d lc_ctype_charset
81015eac d lc_message_charset
81007e9c T lcd_printf
81015ecc d lconv
8100ecd4 T localeconv
8100008c t loop
8100f3ec T memchr
8100aaa0 T memcmp
8100ab48 T memcpy
8100ad08 T memmove
8100ae30 T memset
81014260 t p05.5112
81003410 T private_free
810033f4 T private_malloc
8100d440 t quorem
8100ecb8 T setlocale
8100af30 T strcmp
8100afc4 t strcmp_unaligned
810102c0 T strlen
8100b160 T strncpy
8100b2c4 T vsnprintf
81014398 t zeroes.6535
810141f0 t zeroes.6591
