a000d2e4 T ABORTD_Handler
a000c79c t ABORTD_Handler_Ptr
a000c75c T ABORTD_SubHandler
a0000028 t ABORTD_SubHandler_Trampoline
a000d398 T ABORTP_Handler
a000c758 t ABORTP_Handler_Ptr
a000c718 T ABORTP_SubHandler
a0000024 t ABORTP_SubHandler_Trampoline
a0025ba8 B ABORT_recursion_counter
a0000000 T ARM_Vectors
00000000 a BUILD_RTM
00000000 a BUILD_RTM
00000000 a BUILD_RTM
00000000 a BUILD_RTM
a000a46c T BootEntry
a00000a0 t BootEntryPointer
00000001 a COMPILE_ARM
00000001 a COMPILE_ARM
00000001 a COMPILE_ARM
00000001 a COMPILE_ARM
a0000074 t ClearZI_ER_RAM
a0000000 T EntryPoint
00000001 a HAL_REDUCESIZE
00000001 a HAL_REDUCESIZE
00000001 a HAL_REDUCESIZE
a00075b8 T HAL_Time_CurrentTicks
a000c7a0 T HARD_Breakpoint
a000d218 T HARD_Breakpoint_Handler
a000c7c4 t HARD_Breakpoint_Handler_Ptr
a0018e64 T HalName
a001bba0 D HalSystemConfig
a0025aa0 B Hal_Usart_State
a0100000 R HeapBegin
a0200000 R HeapEnd
a0019ebc T IDelayLoop
a0019ec8 T IDelayLoop2
a0019ebc t IDelayLoop__Fi_b
a0009524 T IRQ_Handler
a0019e9c T IRQ_LOCK_Disable_asm
a0019e6c T IRQ_LOCK_ForceDisabled_asm
a0019e84 T IRQ_LOCK_ForceEnabled_asm
a0019e5c T IRQ_LOCK_GetState_asm
a0019e48 T IRQ_LOCK_Probe_asm
a0019e38 T IRQ_LOCK_Release_asm
a0019eac T IRQ_LOCK_Restore_asm
a000002c T IRQ_SubHandler_Trampoline
40000000 N Image$$ER_IRAM$$Base
00000000 A Image$$ER_IRAM$$Length
40000040 N Image$$ER_IRAM_TC$$Base
00000000 A Image$$ER_IRAM_TC$$Length
0001b9d0 A Image$$ER_RAM$$Length
a0000000 T Image$$ER_RAM_RO$$Base
0001b9d0 A Image$$ER_RAM_RO$$Length
a001b9d0 D Image$$ER_RAM_RW$$Base
00000aa8 A Image$$ER_RAM_RW$$Length
a001c480 B Image$$ER_RAM_RW$$ZI$$Base
000098d0 A Image$$ER_RAM_RW$$ZI$$Length
a0021e84 B LOAD_IMAGE_CalcCRC
a0021e80 B LOAD_IMAGE_Length
a0021e7c B LOAD_IMAGE_Start
40000000 A Load$$ER_IRAM$$Base
40000040 A Load$$ER_IRAM_TC$$Base
a0000000 T Load$$ER_RAM$$Base
a0000000 A Load$$ER_RAM_RO$$Base
a001b9d0 A Load$$ER_RAM_RW$$Base
a0021e78 b LoggingCallback
a0000080 t NoClearZI_ER_RAM
00000001 a PLATFORM_ARM_LPC24XX
00000001 a PLATFORM_ARM_LPC24XX
00000001 a PLATFORM_ARM_LPC24XX
00000001 a PLATFORM_ARM_LPC24XX
00000001 a PLATFORM_ARM_plak1a_LPC2478
00000001 a PLATFORM_ARM_plak1a_LPC2478
00000001 a PLATFORM_ARM_plak1a_LPC2478
00000001 a PLATFORM_ARM_plak1a_LPC2478
000000d7 a PSR_MODE_ABORT
000000d7 a PSR_MODE_ABORT
000000d1 a PSR_MODE_FIQ
000000d1 a PSR_MODE_FIQ
000000d2 a PSR_MODE_IRQ
000000d2 a PSR_MODE_IRQ
000000d3 a PSR_MODE_SUPERVISOR
000000d3 a PSR_MODE_SUPERVISOR
000000df a PSR_MODE_SYSTEM
000000df a PSR_MODE_SYSTEM
000000db a PSR_MODE_UNDEF
000000db a PSR_MODE_UNDEF
000000d0 a PSR_MODE_USER
000000d0 a PSR_MODE_USER
a0022aa0 B RxBuffer_Com
00000010 a STACK_MODE_ABORT
00000800 a STACK_MODE_IRQ
00000010 a STACK_MODE_UNDEF
a02ffff8 R StackBottom
a0300000 R StackTop
a001c700 B SystemEvents
a0009e10 T SystemState_ClearNoLock
a0009d84 T SystemState_QueryNoLock
a0009e84 T SystemState_SetNoLock
a0021e88 B SystemStates
00000001 a TARGETLOCATION_RAM
00000001 a TARGETLOCATION_RAM
00000001 a TARGETLOCATION_RAM
00000001 a TARGETLOCATION_RAM
a00075e4 T Time_CurrentTicks
a0021ea0 B TxBuffer_Com
a000d44c T UNDEF_Handler
a000c714 t UNDEF_Handler_Ptr
a000c6d4 T UNDEF_SubHandler
a0000020 t UNDEF_SubHandler_Trampoline
a0019014 T UsbDefaultConfiguration
a0000030 t VectorAreaSkip
a0014864 T _Balloc
a00143ec T _Bfree
a001748c T _Unwind_Complete
a0017490 T _Unwind_DeleteException
a0018360 T _Unwind_ForcedUnwind
a0017484 T _Unwind_GetCFA
a00183e8 T _Unwind_GetDataRelBase
a00183f0 t _Unwind_GetGR
a0017320 t _Unwind_GetGR
a0018428 T _Unwind_GetLanguageSpecificData
a001844c T _Unwind_GetRegionStart
a00183e0 T _Unwind_GetTextRelBase
a00182f4 T _Unwind_RaiseException
a0018318 T _Unwind_Resume
a001833c T _Unwind_Resume_or_Rethrow
a001739c t _Unwind_SetGR
a00172d4 T _Unwind_VRS_Get
a0017e1c T _Unwind_VRS_Pop
a0017350 T _Unwind_VRS_Set
a00172c0 t _Unwind_decode_target2
a0005744 T _Z10Events_Getj
a00057d0 T _Z10Events_Setj
a000be3c T _Z10USART_ReadiPcj
a0009cb4 T _Z10hal_printfPKcz
a000ba9c T _Z11USART_Flushi
a000c2d4 T _Z11USART_WriteiPKcj
a0009c10 T _Z11hal_fprintfiPKcz
a0009c68 T _Z11hal_vprintfPKcPv
a00056d8 T _Z12Events_Clearj
a000954c T _Z12HAL_AssertExv
a000e238 T _Z12HeapLocationRPhRj
a0009d04 t _Z12InitCRuntimev
a000c820 T _Z12RegisterDumpv
a00099d0 T _Z12SOCKETS_ReadiPcj
a000c6a0 T _Z12USB_GetEventij
a0009a8c T _Z12hal_vfprintfiPKcPv
a000e214 T _Z13FS_AddVolumesv
a000e218 T _Z13FS_Initializev
a00099f0 T _Z13SOCKETS_Flushi
a00099b0 T _Z13SOCKETS_WriteiPKcj
a000c5dc T _Z13USB_ConfigureiPK25USB_DYNAMIC_CONFIGURATION
a000c6bc T _Z13USB_GetStatusi
a0009a40 T _Z13hal_vsnprintfPcjPKcPv
a00096e0 T _Z14CPU_Initializev
a000a290 T _Z14HAL_Initializev
a000e338 T _Z14I2C_Initializev
a000e35c T _Z14Ink_Initializev
a000586c T _Z14LCD_Initializev
a0000e64 T _Z14SignalActivityv
a000c5c4 T _Z14USB_Initializei
a000c610 T _Z14USB_OpenStreamiii
a00001c0 T _Z15Bootstrap_Delayi
a00073b0 T _Z15CPU_TicksToTimey
a000e4bc T _Z15Time_Initializev
a000c630 T _Z15USB_CloseStreami
a0005878 T _Z16LCD_Uninitializev
a000e46c T _Z16Piezo_Initializev
a0001a70 T _Z16StartApplicationPFvvE
a000c568 T _Z16USART_Initializeiiiiii
a000c5f8 T _Z16USB_Uninitializei
a000e434 T _Z16Watchdog_Disablev
a0009a08 T _Z17CPU_DisableCachesv
a0004ea8 T _Z17DebuggerPort_ReadiPcj
a00053a4 T _Z17Events_Initializev
a0005354 T _Z17Events_MaskedReadj
a0000868 T _Z17Initialize_SyncOnv
a000e208 T _Z18Battery_Initializev
a0000724 T _Z18BootstrapCode_Pinsv
a000602c T _Z18Buttons_Initializev
a000e3d4 T _Z18CPU_SPI_Initializev
a000739c T _Z18CPU_TicksPerSecondv
a000e1fc T _Z18Charger_Initializev
a000e470 T _Z18CustomHeapLocationRPhRj
a0004dc8 T _Z18DebuggerPort_Flushi
a0004fa4 T _Z18DebuggerPort_WriteiPKcj
a000e22c T _Z18Gesture_Initializev
a000998c T _Z18Network_Initializev
a0009998 T _Z18SOCKETS_Initializei
a000e628 T _Z18SUPPORT_ComputeCRCPKvij
a00000b4 T _Z19BootstrapCode_Dummyv
a0006c6c T _Z19CPU_GPIO_DisablePinj13GPIO_RESISTORj13GPIO_ALT_MODE
a000727c T _Z19CPU_GPIO_Initializev
a0009120 T _Z19CPU_INTC_Initializev
a0009a24 T _Z19CPU_USB_ProtectPinsij
a0007d2c T _Z19HAL_Time_Initializev
a0007bd8 T _Z19HAL_Time_SetComparey
a000e460 T _Z19PalEvent_Initializev
a0009f40 T _Z19Verify_RAMConstantsPv
a000c8bc T _Z20ABORT_HandlerDisplayPjjjjPKcj
a000e1f0 T _Z20BackLight_Initializev
a00003a8 T _Z20BootstrapCode_Clocksv
a0006880 T _Z20CPU_GPIO_GetPinStatej
a000679c T _Z20CPU_GPIO_SetPinStatejj
a0008f80 T _Z20CPU_USART_Initializeiiiiii
a0000ee4 W _Z20Events_WaitForEventsjj
a000542c T _Z20Events_WaitForEventsjjj
a000a22c W _Z20HAL_Init_Custom_Heapv
a000758c T _Z20HAL_Time_CurrentTimev
a000c824 T _Z20monitor_debug_printfPKcz
a00025f4 T _Z21ApplicationEntryPointv
a000896c T _Z21CPU_USART_ProtectPinsij
a0009d08 T _Z21Checksum_RAMConstantsv
a0000e28 T _Z21PortBooterLoadProgramPPv
a000e49c T _Z21SimpleHeap_InitializePvj
a0000668 T _Z22BootstrapCode_Ext_SRAMv
a0005bac T _Z22Buttons_CurrentHWStatev
a0005888 T _Z22LCD_WriteFormattedCharh
a000e4e8 T _Z22TimeService_Initializev
a000c7c8 T _Z22Watchdog_GetSetEnabledjj
a000c7e4 T _Z22Watchdog_GetSetTimeoutij
a000e14c T _Z23BlockStorage_AddDevicesv
a000066c T _Z23BootstrapCode_Ext_Flashv
a0000984 T _Z23BootstrapCode_Ext_SDRAMv
a000708c T _Z23CPU_GPIO_EnableInputPinjjPFvjjPvE13GPIO_INT_EDGE13GPIO_RESISTOR
a0019c94 T _Z23CPU_MicrosecondsToTicksj
a0019c48 T _Z23CPU_MicrosecondsToTicksy
a00073d4 T _Z23CPU_MillisecondsToTicksj
a0008470 T _Z23CPU_USART_TxBufferEmptyi
a00051b8 T _Z23DebuggerPort_Initializei
a000e4b0 T _Z23I2C_Internal_Initializev
a000b510 T _Z23USART_AddCharToRxBufferic
a000c800 T _Z23Watchdog_GetSetBehavior17Watchdog_Behaviorj
a0005934 T _Z24Buttons_HW_To_Hal_Buttonj
a000e52c T _Z24CPU_EBIU_Memory_ReadOnlyRK17CPU_MEMORY_CONFIGj
a0006a78 T _Z24CPU_GPIO_EnableOutputPinjj
a0009a0c T _Z24CPU_GetUncachableAddressj
a00000b8 T _Z24PrepareImageRegions_IRAMv
a0005c88 T _Z26Buttons_GetNextStateChangeRjS_
a000e51c T _Z26CPU_EBIU_ConfigMemoryBlockRK17CPU_MEMORY_CONFIG
a00093fc T _Z26CPU_INTC_ActivateInterruptjPFvPvES_
a0005e40 T _Z27Buttons_RegisterStateChangejj
a0004c60 T _Z27CPU_InitializeCommunicationv
a0007354 T _Z27HAL_Time_GetDriftParametersPiS_Px
a0007610 T _Z27HAL_Time_Sleep_MicroSecondsj
a000013c T _Z27PrepareImageRegions_IRAM_TCv
a000b1b8 T _Z28USART_RemoveCharFromTxBufferiRc
a0009290 T _Z29CPU_INTC_InterruptEnableStatej
a0004bc4 T _Z29CPU_ProtectCommunicationGPIOsj
a0008434 T _Z29CPU_USART_WriteCharToTxBufferih
a000829c T _Z30CPU_USART_TxShiftRegisterEmptyi
a000800c T _Z33CPU_USART_TxHandshakeEnabledStatei
a0008584 T _Z37CPU_USART_RxBufferFullInterruptEnableij
a00081bc T _Z37CPU_USART_TxBufferEmptyInterruptStatei
a00089a0 T _Z38CPU_USART_TxBufferEmptyInterruptEnableij
a000744c T _Z44HAL_Time_Sleep_MicroSeconds_InterruptEnabledj
a00008ac T _Z7delayMsjj
a0009670 T _Z8CPU_Haltv
a00002bc T _Z8GetFpclkj
a00001dc T _Z8GetFsclkv
a000c668 T _Z8USB_ReadiPcj
a0009584 T _Z9CPU_Sleep11SLEEP_LEVELy
a0005884 T _Z9LCD_Clearv
a000c688 T _Z9USB_Flushi
a000c648 T _Z9USB_WriteiPKcj
a000e278 T _ZN10I2C_Driver10InitializeEv
a000e548 T _ZN10TimeDriver10InitializeEv
a0025c10 B _ZN10TimeDriver13m_initializedE
a00072a0 W _ZN11LPC24XX_VIC14ForceInterruptEj
a00091f0 W _ZN11LPC24XX_VIC18IsInterruptEnabledEj
a0009058 W _ZN11LPC24XX_VIC21RemoveForcedInterruptEj
a0008fdc W _ZN12HAL_CALLBACK10InitializeEPFvPvES0_
a00011c4 W _ZN12SREC_Handler4htoiEPKcjRj
a0001bb4 W _ZN12SREC_Handler7ProcessEc
a0001364 W _ZN12SREC_Handler9ParseLineEPKc
a0009704 T _ZN12SmartPtr_IRQ11WasDisabledEv
a0009868 T _ZN12SmartPtr_IRQ12ForceEnabledEPv
a0009898 T _ZN12SmartPtr_IRQ13ForceDisabledEPv
a00098f8 T _ZN12SmartPtr_IRQ5ProbeEv
a00097dc T _ZN12SmartPtr_IRQ7AcquireEv
a00097a8 T _ZN12SmartPtr_IRQ7DisableEv
a000993c T _ZN12SmartPtr_IRQ7ReleaseEv
a0009730 T _ZN12SmartPtr_IRQ7RestoreEv
a00098c8 T _ZN12SmartPtr_IRQ8GetStateEPv
a0009824 T _ZN12SmartPtr_IRQC1EPv
a0009774 T _ZN12SmartPtr_IRQD1Ev
a000c318 T _ZN12USART_Driver10InitializeEiiiiii
a000b1f4 T _ZN12USART_Driver17AddCharToRxBufferEic
a000b01c T _ZN12USART_Driver22RemoveCharFromTxBufferEiRc
a000bad0 T _ZN12USART_Driver4ReadEiPcj
a000b554 T _ZN12USART_Driver5FlushEi
a000be80 T _ZN12USART_Driver5WriteEiPKcj
a000adf8 T _ZN12USART_Driver7SendXONEij
a000af0c T _ZN12USART_Driver8SendXOFFEij
a000accc T _ZN12USART_Driver8SetEventEij
a0001e34 W _ZN12XREC_Handler7ProcessEh
a00072d4 W _ZN13LPC24XX_TIMER8getIntNoEi
a0007f40 W _ZN13LPC24XX_USART8getIntNoEi
a000df74 T _ZN14HAL_COMPLETION14DequeueAndExecEv
a000d798 T _ZN14HAL_COMPLETION14InitializeListEv
a00053e0 W _ZN14HAL_COMPLETION16InitializeForISREPFvPvES0_
a000dd84 T _ZN14HAL_COMPLETION17WaitForInterruptsEyjy
a000dc60 T _ZN14HAL_COMPLETION5AbortEv
a000dbb0 T _ZN14HAL_COMPLETION7ExecuteEv
a000968c T _ZN14LPC24XX_Driver10InitializeEv
a0009608 T _ZN14LPC24XX_Driver4HaltEv
a0009540 T _ZN14LPC24XX_Driver5PauseEv
a0009544 T _ZN14LPC24XX_Driver5SleepEv
a000955c T _ZN14LPC24XX_Driver8ShutdownEv
a0009548 T _ZN14LPC24XX_Driver9HibernateEv
a0003a2c T _ZN16BlockStorageList10InitializeEv
a001c6ec B _ZN16BlockStorageList12s_deviceListE
a001c6fc B _ZN16BlockStorageList13s_InitializedE
a0003918 T _ZN16BlockStorageList14GetFirstDeviceEv
a001c6f8 B _ZN16BlockStorageList15s_primaryDeviceE
a00049fc T _ZN16BlockStorageList17InitializeDevicesEv
a0003674 T _ZN16BlockStorageList28FindDeviceForPhysicalAddressEPP18BlockStorageDevicejRj
a0004900 T _ZN16BlockStorageList9AddDeviceEP18BlockStorageDeviceP19IBlockStorageDevicePvj
a000e1a8 T _ZN16HAL_CONFIG_BLOCK11ApplyConfigEPKcPvj
a000e184 T _ZN16HAL_CONFIG_BLOCK11ApplyConfigEPKcPvjPS2_
a000d774 T _ZN16HAL_CONTINUATION14InitializeListEv
a000d634 T _ZN16HAL_CONTINUATION18InitializeCallbackEPFvPvES0_
a000dac0 T _ZN16HAL_CONTINUATION19Dequeue_And_ExecuteEv
a000da2c T _ZN16HAL_CONTINUATION7EnqueueEv
a000d710 W _ZN17HAL_DblLinkedListI16HAL_CONTINUATIONE10InitializeEv
a000d918 W _ZN17HAL_DblLinkedListI16HAL_CONTINUATIONE10LinkAtBackEPS0_
a000d9cc W _ZN17HAL_DblLinkedListI16HAL_CONTINUATIONE16ExtractFirstNodeEv
a000d87c W _ZN17HAL_DblLinkedListI16HAL_CONTINUATIONE16InsertBeforeNodeEPS0_S2_
a000d814 W _ZN17HAL_DblLinkedListI16HAL_CONTINUATIONE6InsertEPS0_S2_S2_
a00039c8 W _ZN17HAL_DblLinkedListI18BlockStorageDeviceE10InitializeEv
a0003bb0 W _ZN17HAL_DblLinkedListI18BlockStorageDeviceE10LinkAtBackEPS0_
a0003b14 W _ZN17HAL_DblLinkedListI18BlockStorageDeviceE16InsertBeforeNodeEPS0_S2_
a0003ac8 W _ZN17HAL_DblLinkedListI18BlockStorageDeviceE6InsertEPS0_S2_S2_
a000537c W _ZN17HAL_DblLinkedNodeI16HAL_CONTINUATIONE10InitializeEv
a000d7bc W _ZN17HAL_DblLinkedNodeI16HAL_CONTINUATIONE14RemoveFromListEv
a000d5c4 W _ZN17HAL_DblLinkedNodeI16HAL_CONTINUATIONE6UnlinkEv
a000388c W _ZN17HAL_DblLinkedNodeI18BlockStorageDeviceE10InitializeEv
a0003a70 W _ZN17HAL_DblLinkedNodeI18BlockStorageDeviceE14RemoveFromListEv
a0000cc8 W _ZN18BlockStorageDevice13GetDeviceInfoEv
a0000d68 W _ZN18BlockStorageDevice13IsBlockErasedEjj
a0003148 W _ZN18BlockStorageDevice16InitializeDeviceEv
a000355c W _ZN18BlockStorageDevice17FindForBlockUsageEjRjS0_S0_
a00035cc W _ZN18BlockStorageDevice18FindNextUsageBlockEjRjS0_S0_
a00012fc W _ZN18BlockStorageDevice21FindRegionFromAddressEjRjS0_
a0003188 W _ZN18BlockStorageDevice4ReadEjjPh
a0000d08 W _ZN18BlockStorageDevice5WriteEjjPhj
a00048c0 T _ZN18BlockStorageStream10InitializeEj
a0004788 T _ZN18BlockStorageStream10InitializeEjP18BlockStorageDevice
a0003c00 T _ZN18BlockStorageStream10NextStreamEv
a0004210 T _ZN18BlockStorageStream10PrevStreamEv
a00031e0 T _ZN18BlockStorageStream14CurrentAddressEv
a0003fa4 T _ZN18BlockStorageStream4ReadEPPhj
a0004578 T _ZN18BlockStorageStream4SeekEiNS_10SeekOriginE
a000589c W _ZN18GPIO_BUTTON_CONFIG13GetDriverNameEv
a0005ef4 T _ZN18GPIO_BUTTON_Driver10InitializeEv
a0005aec T _ZN18GPIO_BUTTON_Driver14CurrentHWStateEv
a00058ac T _ZN18GPIO_BUTTON_Driver16HW_To_Hal_ButtonEj
a0005bd0 T _ZN18GPIO_BUTTON_Driver18GetNextStateChangeERjS0_
a0005cc4 T _ZN18GPIO_BUTTON_Driver19RegisterStateChangeEjj
a0005e7c T _ZN18GPIO_BUTTON_Driver3ISREjjPv
a000e368 T _ZN18LPC24XX_SPI_Driver10InitializeEv
a000908c T _ZN18LPC24XX_VIC_Driver10InitializeEv
a001b9d0 D _ZN18LPC24XX_VIC_Driver10s_IsrTableE
a0009444 T _ZN18LPC24XX_VIC_Driver11IRQ_HandlerEv
a000913c T _ZN18LPC24XX_VIC_Driver14IRQToIRQVectorEj
a00091a8 T _ZN18LPC24XX_VIC_Driver14STUB_ISRVectorEPv
a00092c4 T _ZN18LPC24XX_VIC_Driver17ActivateInterruptEjjPFvPvES0_
a0009240 T _ZN18LPC24XX_VIC_Driver20InterruptEnableStateEj
a001a94c T _ZN19AT49BV_16_BS_Driver10EraseBlockEPvj
a001a5a4 T _ZN19AT49BV_16_BS_Driver12ChipReadOnlyEPvjj
a001a2ac T _ZN19AT49BV_16_BS_Driver13Action_ReadIDEPvRjS1_
a0019eec T _ZN19AT49BV_16_BS_Driver13GetDeviceInfoEPv
a001a3dc T _ZN19AT49BV_16_BS_Driver13IsBlockErasedEPvjj
a001af04 T _ZN19AT49BV_16_BS_Driver13ReadProductIDEPvRjS1_
a0019f48 T _ZN19AT49BV_16_BS_Driver13SetPowerStateEPvj
a001af60 T _ZN19AT49BV_16_BS_Driver14ChipInitializeEPv
a0019fac T _ZN19AT49BV_16_BS_Driver16Action_UnprotectEPvPVt
a0019fc0 T _ZN19AT49BV_16_BS_Driver16Action_WriteWordEPvPVtt
a0019ed4 T _ZN19AT49BV_16_BS_Driver16ChipUnInitializeEPv
a0019f08 T _ZN19AT49BV_16_BS_Driver17GetSectorMetadataEPvjP14SectorMetadata
a0019f28 T _ZN19AT49BV_16_BS_Driver17SetSectorMetadataEPvjP14SectorMetadata
a001a128 T _ZN19AT49BV_16_BS_Driver18Action_EraseSectorEPvPVt
a0019f84 T _ZN19AT49BV_16_BS_Driver18MaxBlockErase_uSecEPv
a0019f5c T _ZN19AT49BV_16_BS_Driver19MaxSectorWrite_uSecEPv
a001a498 T _ZN19AT49BV_16_BS_Driver4ReadEPvjjPh
a001aa88 T _ZN19AT49BV_16_BS_Driver5WriteEPvjjPhj
a001a8c8 T _ZN19AT49BV_16_BS_Driver6MemsetEPvjhj
a001a6c0 T _ZN19AT49BV_16_BS_Driver6WriteXEPvjjPhjj
a0005968 W _ZN19Hal_Queue_KnownSizeIN18GPIO_BUTTON_Driver19BUTTON_STATE_CHANGEELj64EE10InitializeEv
a0005a44 W _ZN19Hal_Queue_KnownSizeIN18GPIO_BUTTON_Driver19BUTTON_STATE_CHANGEELj64EE3PopEv
a000599c W _ZN19Hal_Queue_KnownSizeIN18GPIO_BUTTON_Driver19BUTTON_STATE_CHANGEELj64EE4PushEv
a0006b30 T _ZN19LPC24XX_GPIO_Driver10DisablePinEj13GPIO_RESISTORj13GPIO_ALT_MODE
a00070e8 T _ZN19LPC24XX_GPIO_Driver10InitializeEv
a00067d0 T _ZN19LPC24XX_GPIO_Driver11GetPinStateEj
a0006aac W _ZN19LPC24XX_GPIO_Driver11PinToPCBRegEj
a0006640 T _ZN19LPC24XX_GPIO_Driver11SetPinStateEjj
a0006cc4 T _ZN19LPC24XX_GPIO_Driver14EnableInputPinEjjPFvjjPvES0_13GPIO_INT_EDGE13GPIO_RESISTOR
a0006aec W _ZN19LPC24XX_GPIO_Driver14PinToPCBRegBitEj
a0006580 T _ZN19LPC24XX_GPIO_Driver14STUB_ISRVectorEjjPv
a00068b4 T _ZN19LPC24XX_GPIO_Driver15EnableOutputPinEjj
a0006094 T _ZN19LPC24XX_GPIO_Driver18PIN_ISR_DESCRIPTOR4FireEPv
a00060ec T _ZN19LPC24XX_GPIO_Driver8GPIO_ISREPv
a0006600 W _ZN19LPC24XX_GPIO_Driver8PinToBitEj
a00065c0 W _ZN19LPC24XX_GPIO_Driver9PinToPortEj
a0007c6c T _ZN19LPC24XX_TIME_Driver10InitializeEv
a0019d04 T _ZN19LPC24XX_TIME_Driver10Sleep_uSecEj
a0007530 T _ZN19LPC24XX_TIME_Driver11CurrentTimeEv
a0007478 T _ZN19LPC24XX_TIME_Driver12CounterValueEv
a00078a0 T _ZN19LPC24XX_TIME_Driver15SetCompareValueEy
a0019cb8 T _ZN19LPC24XX_TIME_Driver15Sleep_uSec_LoopEj
a0007ad4 T _ZN19LPC24XX_TIME_Driver3ISREPv
a000e21c T _ZN20FileSystemVolumeList10InitializeEv
a000e220 T _ZN20FileSystemVolumeList17InitializeVolumesEv
a0007d50 T _ZN20LPC24XX_TIMER_Driver10InitializeEjPFvPvES0_
a00077c0 W _ZN20LPC24XX_TIMER_Driver10SetCompareEjj
a0019dd8 T _ZN20LPC24XX_TIMER_Driver11ReadCounterEj
a00076f8 W _ZN20LPC24XX_TIMER_Driver13DidCompareHitEj
a0007824 W _ZN20LPC24XX_TIMER_Driver14ForceInterruptEj
a0007760 W _ZN20LPC24XX_TIMER_Driver15ResetCompareHitEj
a0007c04 W _ZN20LPC24XX_TIMER_Driver22EnableCompareInterruptEj
a0008be0 T _ZN20LPC24XX_USART_Driver10InitializeEiiiiii
a0008734 T _ZN20LPC24XX_USART_Driver11ProtectPinsEij
a00082d0 T _ZN20LPC24XX_USART_Driver13TxBufferEmptyEi
a0007fb0 T _ZN20LPC24XX_USART_Driver14IsValidPortNumEi
a00089d4 T _ZN20LPC24XX_USART_Driver15UART_IntHandlerEPv
a000837c T _ZN20LPC24XX_USART_Driver19WriteCharToTxBufferEih
a00081f0 T _ZN20LPC24XX_USART_Driver20TxShiftRegisterEmptyEi
a0007ff4 T _ZN20LPC24XX_USART_Driver23TxHandshakeEnabledStateEi
a00084a4 T _ZN20LPC24XX_USART_Driver27RxBufferFullInterruptEnableEij
a00080fc T _ZN20LPC24XX_USART_Driver27TxBufferEmptyInterruptStateEi
a00085b8 T _ZN20LPC24XX_USART_Driver28TxBufferEmptyInterruptEnableEij
a000a7f8 W _ZN21Hal_Queue_UnknownSizeIhE10InitializeEPhj
a000ab38 W _ZN21Hal_Queue_UnknownSizeIhE16NumberOfElementsEv
a000a9b0 W _ZN21Hal_Queue_UnknownSizeIhE3PopERj
a000a748 W _ZN21Hal_Queue_UnknownSizeIhE3PopEv
a000a84c W _ZN21Hal_Queue_UnknownSizeIhE4PushERj
a000ac1c W _ZN21Hal_Queue_UnknownSizeIhE4PushEv
a000abc8 W _ZN21Hal_Queue_UnknownSizeIhE7IsEmptyEv
a000e404 T _ZN23LPC24XX_WATCHDOG_Driver7DisableEv
a0000f24 W _ZN5State10InitializeEv
a000e450 W _ZN7LPC24XX3EMCEv
a0006074 W _ZN7LPC24XX3PCBEv
a0007344 W _ZN7LPC24XX3VICEv
a0006050 W _ZN7LPC24XX4GPIOEv
a0008040 W _ZN7LPC24XX4UARTEi
a000e3f8 W _ZN7LPC24XX4WTDGEv
a000763c W _ZN7LPC24XX5TIMEREi
a0006084 W _ZN7LPC24XX6SYSCONEv
a0006060 W _ZN7LPC24XX7GPIOIRQEv
a00030c8 W _ZNK10BlockRange13GetBlockCountEv
a00030f4 W _ZNK10BlockRange13GetBlockUsageEv
a000d500 W _ZNK12HAL_CALLBACK13GetEntryPointEv
a000900c W _ZNK12HAL_CALLBACK7ExecuteEv
a00034e4 T _ZNK15BlockDeviceInfo17FindForBlockUsageEjRjS0_S0_
a000338c T _ZNK15BlockDeviceInfo18FindNextUsageBlockEjRjS0_S0_
a0003208 T _ZNK15BlockDeviceInfo21FindRegionFromAddressEjRjS0_
a0003114 W _ZNK15BlockRegionInfo12BlockAddressEj
a000e4f4 W _ZNK15BlockRegionInfo4SizeEv
a000d51c W _ZNK16HAL_CONTINUATION13GetEntryPointEv
a000d558 W _ZNK16HAL_CONTINUATION7ExecuteEv
a000d968 W _ZNK17HAL_DblLinkedListI16HAL_CONTINUATIONE14FirstValidNodeEv
a000d6f8 W _ZNK17HAL_DblLinkedListI16HAL_CONTINUATIONE4HeadEv
a000d690 W _ZNK17HAL_DblLinkedListI16HAL_CONTINUATIONE4TailEv
a000d6b0 W _ZNK17HAL_DblLinkedListI16HAL_CONTINUATIONE7IsEmptyEv
a000d58c W _ZNK17HAL_DblLinkedListI16HAL_CONTINUATIONE9FirstNodeEv
a00038b4 W _ZNK17HAL_DblLinkedListI18BlockStorageDeviceE14FirstValidNodeEv
a00039b0 W _ZNK17HAL_DblLinkedListI18BlockStorageDeviceE4HeadEv
a0003990 W _ZNK17HAL_DblLinkedListI18BlockStorageDeviceE4TailEv
a000363c W _ZNK17HAL_DblLinkedListI18BlockStorageDeviceE9FirstNodeEv
a000d5a8 W _ZNK17HAL_DblLinkedNodeI16HAL_CONTINUATIONE4NextEv
a000d860 W _ZNK17HAL_DblLinkedNodeI16HAL_CONTINUATIONE4PrevEv
a0003658 W _ZNK17HAL_DblLinkedNodeI18BlockStorageDeviceE4NextEv
a0003974 W _ZNK17HAL_DblLinkedNodeI18BlockStorageDeviceE4PrevEv
a0000db8 W _ZNK18BlockStorageDevice10EraseBlockEj
a0025c14 b _ZZN10TimeDriver16DateTimeToStringERKxE8rgBuffer
a0025c94 b _ZZN10TimeDriver16TimeSpanToStringERKxE8rgBuffer
a001bb9c d _ZZN20LPC24XX_USART_Driver11ProtectPinsEijE18COM1_PinsProtected
a001bb98 d _ZZN20LPC24XX_USART_Driver11ProtectPinsEijE18COM2_PinsProtected
a001bb94 d _ZZN20LPC24XX_USART_Driver11ProtectPinsEijE18COM3_PinsProtected
a001bb90 d _ZZN20LPC24XX_USART_Driver11ProtectPinsEijE18COM4_PinsProtected
a0018360 T ___Unwind_ForcedUnwind
a00182f4 T ___Unwind_RaiseException
a0018318 T ___Unwind_Resume
a001833c T ___Unwind_Resume_or_Rethrow
a0015d30 T __adddf3
a001668c T __aeabi_cdcmpeq
a001668c T __aeabi_cdcmple
a0016670 T __aeabi_cdrcmple
a001671c T __aeabi_d2iz
a0015d30 T __aeabi_dadd
a00166a4 T __aeabi_dcmpeq
a00166ec T __aeabi_dcmpge
a0016704 T __aeabi_dcmpgt
a00166d4 T __aeabi_dcmple
a00166bc T __aeabi_dcmplt
a00163d0 T __aeabi_ddiv
a0016140 T __aeabi_dmul
a0015d24 T __aeabi_drsub
a0015d2c T __aeabi_dsub
a001608c T __aeabi_f2d
a0016064 T __aeabi_i2d
a0015d20 T __aeabi_idiv0
a00160e0 T __aeabi_l2d
a0015d20 T __aeabi_ldiv0
a0016040 T __aeabi_ui2d
a0015c0c T __aeabi_uidiv
a0015d08 T __aeabi_uidivmod
a00160cc T __aeabi_ul2d
a0016778 T __aeabi_uldivmod
a0017914 T __aeabi_unwind_cpp_pr0
a0017900 W __aeabi_unwind_cpp_pr1
a00178ec W __aeabi_unwind_cpp_pr2
a00147c4 T __any_on
a00145bc T __b2d
a0019b48 T __clz_tab
a00165ec T __cmpdf2
a0014768 T __copybits
         w __cxa_begin_cleanup
         w __cxa_call_unexpected
         w __cxa_type_match
a00148f8 T __d2b
a0015d20 T __div0
a00163d0 T __divdf3
a0016824 T __divdi3
a00165ec T __eqdf2
a0025d4c B __exidx_end
a0025d4c B __exidx_start
a001608c T __extendsfdf2
a001671c T __fixdfsi
a00160e0 T __floatdidf
a0016064 T __floatsidf
a00160cc T __floatundidf
a0016040 T __floatunsidf
a0012d78 t __fp_lock
a0012dac T __fp_lock_all
a0012d80 t __fp_unlock
a0012d88 T __fp_unlock_all
a00165dc T __gedf2
         w __gnu_Unwind_Find_exidx
a0017bd0 T __gnu_Unwind_ForcedUnwind
a0017d40 T __gnu_Unwind_RaiseException
a0018214 T __gnu_Unwind_Restore_VFP
a0018224 T __gnu_Unwind_Restore_VFP_D
a0018234 T __gnu_Unwind_Restore_VFP_D_16_to_31
a00182cc T __gnu_Unwind_Restore_WMMXC
a0018244 T __gnu_Unwind_Restore_WMMXD
a0017c54 T __gnu_Unwind_Resume
a0017dec T __gnu_Unwind_Resume_or_Rethrow
a001821c T __gnu_Unwind_Save_VFP
a001822c T __gnu_Unwind_Save_VFP_D
a001823c T __gnu_Unwind_Save_VFP_D_16_to_31
a00182e0 T __gnu_Unwind_Save_WMMXC
a0018288 T __gnu_Unwind_Save_WMMXD
a00167dc T __gnu_ldivmod_helper
a0016794 T __gnu_uldivmod_helper
a0018460 T __gnu_unwind_execute
a001886c T __gnu_unwind_frame
a00174b4 t __gnu_unwind_pr_common
a00165dc T __gtdf2
a0014408 T __hi0bits
a0014e54 T __i2b
a00156e8 T __isinfd
a0015724 T __isnand
a001c05c D __lc_ctype
a00165e4 T __ledf2
a0014460 T __lo0bits
a0013834 T __locale_charset
a0014b70 T __lshift
a00165e4 T __ltdf2
a001c068 D __malloc_av_
a0025d1c B __malloc_current_mallinfo
a00143e4 T __malloc_lock
a0025d44 B __malloc_max_sbrked_mem
a0025d48 B __malloc_max_total_mem
a001c470 D __malloc_sbrk_base
a0025d18 B __malloc_top_pad
a001c474 D __malloc_trim_threshold
a00143e8 T __malloc_unlock
a001c058 D __mb_cur_max
a00144f4 T __mcmp
a0014a2c T __mdiff
a0019af8 T __mprec_bigtens
a0019a20 T __mprec_tens
a0019b20 T __mprec_tinytens
a0016140 T __muldf3
a0014e78 T __multadd
a0014c7c T __multiply
a00165ec T __nedf2
a0014f50 T __pow5mult
a0014678 T __ratio
a00181f8 T __restore_core_regs
a0015048 T __s2b
a0015794 T __sclose
a0012df8 T __sfmoreglue
a0012e4c T __sfp
a0012ce4 T __sfp_lock_acquire
a0012ce8 T __sfp_lock_release
a00132e4 T __sfvwrite_r
a00189b0 T __sigtramp
a001892c T __sigtramp_r
a0012cf4 T __sinit
a0012cec T __sinit_lock_acquire
a0012cf0 T __sinit_lock_release
a00138dc T __smakebuf
a000e9cc t __sprint_r
a0015864 T __sread
a00157b4 T __sseek
a0015d2c T __subdf3
a0015800 T __swrite
a00112dc T __swsetup
a0016da8 T __udivdi3
a0015c0c T __udivsi3
a001455c T __ulp
00000000 A __use_no_semihosting_swi
a0015958 T _calloc_r
a0012de8 T _cleanup
a0012dd0 T _cleanup_r
a001b9cc T _close
a00159f8 T _close_r
a0011610 T _dtoa_r
a001b9cc T _exit
a0015a34 T _fclose_r
a0013024 T _free_r
a001b9cc T _fstat
a0015b44 T _fstat_r
a00137ac T _fwalk
a0013720 T _fwalk_reent
a001b9cc T _getpid
a0018af8 T _getpid_r
a0019924 T _global_impure_ptr
a001bc50 D _impure_ptr
a001891c T _init_signal
a00188c4 T _init_signal_r
a001b9cc T _kill
a0018b08 T _kill_r
a0013844 T _localeconv_r
a001b9cc T _lseek
a0015b84 T _lseek_r
a0013a58 T _malloc_r
a0012f28 T _malloc_trim_r
a00146fc T _mprec_log10
a00189c4 T _raise_r
a001b9cc T _read
a0015bc8 T _read_r
a001512c T _realloc_r
a001b9cc T _sbrk
a0015754 T _sbrk_r
a0013860 T _setlocale_r
a0018a84 T _signal_r
         U _start
a000ea04 T _vfprintf_r
a000e8d0 T _vsnprintf_r
a0010cbc T _wcrtomb_r
a0010d34 T _wcsrtombs_r
a0010ebc T _wctomb_r
a001b9cc T _write
a0015914 T _write_r
a00188b4 T abort
a001992a t blanks.3531
a0019524 t c_CRCTable
a00199e0 t charset
a000a174 T debug_printf
a0025d4c B errno
a0015b30 T fclose
a0012ad0 T fflush
a0025bd4 B g_AT49BV642DT_16_BS
a001bbe4 D g_AT49BV642DT_16_BS_Config
a0019348 t g_AT49BV642DT_16_BlkRegion
a001935c t g_AT49BV642DT_16_BlockRange
a001bbc8 D g_AT49BV642DT_16_DeviceInfo
a001bc18 D g_AT49BV_16_BS_DeviceTable
a0021e9c b g_Boot_RAMConstants_CRC
a001b0c0 T g_ConfigurationSector
a001c704 B g_Event_Callback
a001c708 B g_Event_Callback_Arg
a001c710 B g_Events_BoolTimerCompletion
a001bb5c D g_GPIO_BUTTON_Config
a001c738 B g_GPIO_BUTTON_Driver
a0025bac B g_HAL_Completion_List
a0025bb8 B g_HAL_Continuation_List
a0025bc4 B g_I2C_Driver
a001c948 B g_LPC24XX_GPIO_Driver
a001f3d0 B g_LPC24XX_PINSEL_Driver
a0021e68 B g_LPC24XX_TIMER_Driver
a0021e58 B g_LPC24XX_TIME_Driver
a001c4c4 B g_SREC
a001c480 B g_State
a0025be8 B g_TimeDriver
a001c5d4 B g_XREC
a0017928 t get_eit_entry
a001bc58 d impure_data
a001b9cc T isatty
a0009ef8 T lcd_printf
a00199e4 t lconv
a0013850 T localeconv
a000008c t loop
a00141dc T memchr
a000e6b8 T memcpy
a00142f0 T memmove
a000e75c T memset
a0018384 t next_unwind_byte
a0019ae8 t p05.2718
a0000890 T platform_prestackinit
a0000e18 T private_free
a0000e00 T private_malloc
a00113f0 t quorem
a0018a70 T raise
a00181f8 T restore_core_regs
a0017cbc t restore_non_core_regs
a00173e8 t search_EIT_table
a00173cc t selfrel_offset31
a00138c0 T setlocale
a0018adc T signal
a0012c88 t std
a000e7e8 T strcmp
a00158ac T strlen
a0018420 t unwind_UCB_from_context
a0017bf8 t unwind_phase2
a0017a74 t unwind_phase2_forced
a0010c90 T vfprintf
a000e948 T vsnprintf
a0010d08 T wcrtomb
a0010e78 T wcsrtombs
a001993a t zeroes.3532
a000d304 T ABORTD_Handler
a000c7bc t ABORTD_Handler_Ptr
a000c77c T ABORTD_SubHandler
a0000028 t ABORTD_SubHandler_Trampoline
a000d3b8 T ABORTP_Handler
a000c778 t ABORTP_Handler_Ptr
a000c738 T ABORTP_SubHandler
a0000024 t ABORTP_SubHandler_Trampoline
a0025bc8 B ABORT_recursion_counter
a0000000 T ARM_Vectors
00000000 a BUILD_RTM
00000000 a BUILD_RTM
00000000 a BUILD_RTM
00000000 a BUILD_RTM
a000a48c T BootEntry
a00000a0 t BootEntryPointer
00000001 a COMPILE_ARM
00000001 a COMPILE_ARM
00000001 a COMPILE_ARM
00000001 a COMPILE_ARM
a0000074 t ClearZI_ER_RAM
a0000000 T EntryPoint
00000001 a HAL_REDUCESIZE
00000001 a HAL_REDUCESIZE
00000001 a HAL_REDUCESIZE
a00075d8 T HAL_Time_CurrentTicks
a000c7c0 T HARD_Breakpoint
a000d238 T HARD_Breakpoint_Handler
a000c7e4 t HARD_Breakpoint_Handler_Ptr
a0018e84 T HalName
a001bbc0 D HalSystemConfig
a0025ac0 B Hal_Usart_State
a0100000 R HeapBegin
a0200000 R HeapEnd
a0019edc T IDelayLoop
a0019ee8 T IDelayLoop2
a0019edc t IDelayLoop__Fi_b
a0009544 T IRQ_Handler
a0019ebc T IRQ_LOCK_Disable_asm
a0019e8c T IRQ_LOCK_ForceDisabled_asm
a0019ea4 T IRQ_LOCK_ForceEnabled_asm
a0019e7c T IRQ_LOCK_GetState_asm
a0019e68 T IRQ_LOCK_Probe_asm
a0019e58 T IRQ_LOCK_Release_asm
a0019ecc T IRQ_LOCK_Restore_asm
a000002c T IRQ_SubHandler_Trampoline
40000000 N Image$$ER_IRAM$$Base
00000000 A Image$$ER_IRAM$$Length
40000040 N Image$$ER_IRAM_TC$$Base
00000000 A Image$$ER_IRAM_TC$$Length
0001b9f0 A Image$$ER_RAM$$Length
a0000000 T Image$$ER_RAM_RO$$Base
0001b9f0 A Image$$ER_RAM_RO$$Length
a001b9f0 D Image$$ER_RAM_RW$$Base
00000aa8 A Image$$ER_RAM_RW$$Length
a001c4a0 B Image$$ER_RAM_RW$$ZI$$Base
000098d0 A Image$$ER_RAM_RW$$ZI$$Length
a0021ea4 B LOAD_IMAGE_CalcCRC
a0021ea0 B LOAD_IMAGE_Length
a0021e9c B LOAD_IMAGE_Start
40000000 A Load$$ER_IRAM$$Base
40000040 A Load$$ER_IRAM_TC$$Base
a0000000 T Load$$ER_RAM$$Base
a0000000 A Load$$ER_RAM_RO$$Base
a001b9f0 A Load$$ER_RAM_RW$$Base
a0021e98 b LoggingCallback
a0000080 t NoClearZI_ER_RAM
00000001 a PLATFORM_ARM_LPC24XX
00000001 a PLATFORM_ARM_LPC24XX
00000001 a PLATFORM_ARM_LPC24XX
00000001 a PLATFORM_ARM_LPC24XX
00000001 a PLATFORM_ARM_plak1a_LPC2478
00000001 a PLATFORM_ARM_plak1a_LPC2478
00000001 a PLATFORM_ARM_plak1a_LPC2478
00000001 a PLATFORM_ARM_plak1a_LPC2478
000000d7 a PSR_MODE_ABORT
000000d7 a PSR_MODE_ABORT
000000d1 a PSR_MODE_FIQ
000000d1 a PSR_MODE_FIQ
000000d2 a PSR_MODE_IRQ
000000d2 a PSR_MODE_IRQ
000000d3 a PSR_MODE_SUPERVISOR
000000d3 a PSR_MODE_SUPERVISOR
000000df a PSR_MODE_SYSTEM
000000df a PSR_MODE_SYSTEM
000000db a PSR_MODE_UNDEF
000000db a PSR_MODE_UNDEF
000000d0 a PSR_MODE_USER
000000d0 a PSR_MODE_USER
a0022ac0 B RxBuffer_Com
00000010 a STACK_MODE_ABORT
00000800 a STACK_MODE_IRQ
00000010 a STACK_MODE_UNDEF
a02ffff8 R StackBottom
a0300000 R StackTop
a001c720 B SystemEvents
a0009e30 T SystemState_ClearNoLock
a0009da4 T SystemState_QueryNoLock
a0009ea4 T SystemState_SetNoLock
a0021ea8 B SystemStates
00000001 a TARGETLOCATION_RAM
00000001 a TARGETLOCATION_RAM
00000001 a TARGETLOCATION_RAM
00000001 a TARGETLOCATION_RAM
a0007604 T Time_CurrentTicks
a0021ec0 B TxBuffer_Com
a000d46c T UNDEF_Handler
a000c734 t UNDEF_Handler_Ptr
a000c6f4 T UNDEF_SubHandler
a0000020 t UNDEF_SubHandler_Trampoline
a0019034 T UsbDefaultConfiguration
a0000030 t VectorAreaSkip
a0014884 T _Balloc
a001440c T _Bfree
a00174ac T _Unwind_Complete
a00174b0 T _Unwind_DeleteException
a0018380 T _Unwind_ForcedUnwind
a00174a4 T _Unwind_GetCFA
a0018408 T _Unwind_GetDataRelBase
a0018410 t _Unwind_GetGR
a0017340 t _Unwind_GetGR
a0018448 T _Unwind_GetLanguageSpecificData
a001846c T _Unwind_GetRegionStart
a0018400 T _Unwind_GetTextRelBase
a0018314 T _Unwind_RaiseException
a0018338 T _Unwind_Resume
a001835c T _Unwind_Resume_or_Rethrow
a00173bc t _Unwind_SetGR
a00172f4 T _Unwind_VRS_Get
a0017e3c T _Unwind_VRS_Pop
a0017370 T _Unwind_VRS_Set
a00172e0 t _Unwind_decode_target2
a0005744 T _Z10Events_Getj
a00057d0 T _Z10Events_Setj
a000be5c T _Z10USART_ReadiPcj
a0009cd4 T _Z10hal_printfPKcz
a000babc T _Z11USART_Flushi
a000c2f4 T _Z11USART_WriteiPKcj
a0009c30 T _Z11hal_fprintfiPKcz
a0009c88 T _Z11hal_vprintfPKcPv
a00056d8 T _Z12Events_Clearj
a000956c T _Z12HAL_AssertExv
a000e258 T _Z12HeapLocationRPhRj
a0009d24 t _Z12InitCRuntimev
a000c840 T _Z12RegisterDumpv
a00099f0 T _Z12SOCKETS_ReadiPcj
a000c6c0 T _Z12USB_GetEventij
a0009aac T _Z12hal_vfprintfiPKcPv
a000e234 T _Z13FS_AddVolumesv
a000e238 T _Z13FS_Initializev
a0009a10 T _Z13SOCKETS_Flushi
a00099d0 T _Z13SOCKETS_WriteiPKcj
a000c5fc T _Z13USB_ConfigureiPK25USB_DYNAMIC_CONFIGURATION
a000c6dc T _Z13USB_GetStatusi
a0009a60 T _Z13hal_vsnprintfPcjPKcPv
a0009700 T _Z14CPU_Initializev
a000a2b0 T _Z14HAL_Initializev
a000e358 T _Z14I2C_Initializev
a000e37c T _Z14Ink_Initializev
a000586c T _Z14LCD_Initializev
a0000e64 T _Z14SignalActivityv
a000c5e4 T _Z14USB_Initializei
a000c630 T _Z14USB_OpenStreamiii
a00001c0 T _Z15Bootstrap_Delayi
a00073d0 T _Z15CPU_TicksToTimey
a000e4dc T _Z15Time_Initializev
a000c650 T _Z15USB_CloseStreami
a0005878 T _Z16LCD_Uninitializev
a000e48c T _Z16Piezo_Initializev
a0001a70 T _Z16StartApplicationPFvvE
a000c588 T _Z16USART_Initializeiiiiii
a000c618 T _Z16USB_Uninitializei
a000e454 T _Z16Watchdog_Disablev
a0009a28 T _Z17CPU_DisableCachesv
a0004ea8 T _Z17DebuggerPort_ReadiPcj
a00053a4 T _Z17Events_Initializev
a0005354 T _Z17Events_MaskedReadj
a0000868 T _Z17Initialize_SyncOnv
a000e228 T _Z18Battery_Initializev
a0000724 T _Z18BootstrapCode_Pinsv
a000602c T _Z18Buttons_Initializev
a000e3f4 T _Z18CPU_SPI_Initializev
a00073bc T _Z18CPU_TicksPerSecondv
a000e21c T _Z18Charger_Initializev
a000e490 T _Z18CustomHeapLocationRPhRj
a0004dc8 T _Z18DebuggerPort_Flushi
a0004fa4 T _Z18DebuggerPort_WriteiPKcj
a000e24c T _Z18Gesture_Initializev
a00099ac T _Z18Network_Initializev
a00099b8 T _Z18SOCKETS_Initializei
a000e648 T _Z18SUPPORT_ComputeCRCPKvij
a00000b4 T _Z19BootstrapCode_Dummyv
a0006c8c T _Z19CPU_GPIO_DisablePinj13GPIO_RESISTORj13GPIO_ALT_MODE
a000729c T _Z19CPU_GPIO_Initializev
a0009140 T _Z19CPU_INTC_Initializev
a0009a44 T _Z19CPU_USB_ProtectPinsij
a0007d4c T _Z19HAL_Time_Initializev
a0007bf8 T _Z19HAL_Time_SetComparey
a000e480 T _Z19PalEvent_Initializev
a0009f60 T _Z19Verify_RAMConstantsPv
a000c8dc T _Z20ABORT_HandlerDisplayPjjjjPKcj
a000e210 T _Z20BackLight_Initializev
a00003a8 T _Z20BootstrapCode_Clocksv
a00068a0 T _Z20CPU_GPIO_GetPinStatej
a00067bc T _Z20CPU_GPIO_SetPinStatejj
a0008fa0 T _Z20CPU_USART_Initializeiiiiii
a0000ee4 W _Z20Events_WaitForEventsjj
a000542c T _Z20Events_WaitForEventsjjj
a000a24c W _Z20HAL_Init_Custom_Heapv
a00075ac T _Z20HAL_Time_CurrentTimev
a000c844 T _Z20monitor_debug_printfPKcz
a00025f4 T _Z21ApplicationEntryPointv
a000898c T _Z21CPU_USART_ProtectPinsij
a0009d28 T _Z21Checksum_RAMConstantsv
a0000e28 T _Z21PortBooterLoadProgramPPv
a000e4bc T _Z21SimpleHeap_InitializePvj
a0000668 T _Z22BootstrapCode_Ext_SRAMv
a0005bac T _Z22Buttons_CurrentHWStatev
a0005888 T _Z22LCD_WriteFormattedCharh
a000e508 T _Z22TimeService_Initializev
a000c7e8 T _Z22Watchdog_GetSetEnabledjj
a000c804 T _Z22Watchdog_GetSetTimeoutij
a000e16c T _Z23BlockStorage_AddDevicesv
a000066c T _Z23BootstrapCode_Ext_Flashv
a0000984 T _Z23BootstrapCode_Ext_SDRAMv
a00070ac T _Z23CPU_GPIO_EnableInputPinjjPFvjjPvE13GPIO_INT_EDGE13GPIO_RESISTOR
a0019cb4 T _Z23CPU_MicrosecondsToTicksj
a0019c68 T _Z23CPU_MicrosecondsToTicksy
a00073f4 T _Z23CPU_MillisecondsToTicksj
a0008490 T _Z23CPU_USART_TxBufferEmptyi
a00051b8 T _Z23DebuggerPort_Initializei
a000e4d0 T _Z23I2C_Internal_Initializev
a000b530 T _Z23USART_AddCharToRxBufferic
a000c820 T _Z23Watchdog_GetSetBehavior17Watchdog_Behaviorj
a0005934 T _Z24Buttons_HW_To_Hal_Buttonj
a000e54c T _Z24CPU_EBIU_Memory_ReadOnlyRK17CPU_MEMORY_CONFIGj
a0006a98 T _Z24CPU_GPIO_EnableOutputPinjj
a0009a2c T _Z24CPU_GetUncachableAddressj
a00000b8 T _Z24PrepareImageRegions_IRAMv
a0005c88 T _Z26Buttons_GetNextStateChangeRjS_
a000e53c T _Z26CPU_EBIU_ConfigMemoryBlockRK17CPU_MEMORY_CONFIG
a000941c T _Z26CPU_INTC_ActivateInterruptjPFvPvES_
a0005e40 T _Z27Buttons_RegisterStateChangejj
a0004c60 T _Z27CPU_InitializeCommunicationv
a0007374 T _Z27HAL_Time_GetDriftParametersPiS_Px
a0007630 T _Z27HAL_Time_Sleep_MicroSecondsj
a000013c T _Z27PrepareImageRegions_IRAM_TCv
a000b1d8 T _Z28USART_RemoveCharFromTxBufferiRc
a00092b0 T _Z29CPU_INTC_InterruptEnableStatej
a0004bc4 T _Z29CPU_ProtectCommunicationGPIOsj
a0008454 T _Z29CPU_USART_WriteCharToTxBufferih
a00082bc T _Z30CPU_USART_TxShiftRegisterEmptyi
a000802c T _Z33CPU_USART_TxHandshakeEnabledStatei
a00085a4 T _Z37CPU_USART_RxBufferFullInterruptEnableij
a00081dc T _Z37CPU_USART_TxBufferEmptyInterruptStatei
a00089c0 T _Z38CPU_USART_TxBufferEmptyInterruptEnableij
a000746c T _Z44HAL_Time_Sleep_MicroSeconds_InterruptEnabledj
a00008ac T _Z7delayMsjj
a0009690 T _Z8CPU_Haltv
a00002bc T _Z8GetFpclkj
a00001dc T _Z8GetFsclkv
a000c688 T _Z8USB_ReadiPcj
a00095a4 T _Z9CPU_Sleep11SLEEP_LEVELy
a0005884 T _Z9LCD_Clearv
a000c6a8 T _Z9USB_Flushi
a000c668 T _Z9USB_WriteiPKcj
a000e298 T _ZN10I2C_Driver10InitializeEv
a000e568 T _ZN10TimeDriver10InitializeEv
a0025c30 B _ZN10TimeDriver13m_initializedE
a00072c0 W _ZN11LPC24XX_VIC14ForceInterruptEj
a0009210 W _ZN11LPC24XX_VIC18IsInterruptEnabledEj
a0009078 W _ZN11LPC24XX_VIC21RemoveForcedInterruptEj
a0008ffc W _ZN12HAL_CALLBACK10InitializeEPFvPvES0_
a00011c4 W _ZN12SREC_Handler4htoiEPKcjRj
a0001bb4 W _ZN12SREC_Handler7ProcessEc
a0001364 W _ZN12SREC_Handler9ParseLineEPKc
a0009724 T _ZN12SmartPtr_IRQ11WasDisabledEv
a0009888 T _ZN12SmartPtr_IRQ12ForceEnabledEPv
a00098b8 T _ZN12SmartPtr_IRQ13ForceDisabledEPv
a0009918 T _ZN12SmartPtr_IRQ5ProbeEv
a00097fc T _ZN12SmartPtr_IRQ7AcquireEv
a00097c8 T _ZN12SmartPtr_IRQ7DisableEv
a000995c T _ZN12SmartPtr_IRQ7ReleaseEv
a0009750 T _ZN12SmartPtr_IRQ7RestoreEv
a00098e8 T _ZN12SmartPtr_IRQ8GetStateEPv
a0009844 T _ZN12SmartPtr_IRQC1EPv
a0009794 T _ZN12SmartPtr_IRQD1Ev
a000c338 T _ZN12USART_Driver10InitializeEiiiiii
a000b214 T _ZN12USART_Driver17AddCharToRxBufferEic
a000b03c T _ZN12USART_Driver22RemoveCharFromTxBufferEiRc
a000baf0 T _ZN12USART_Driver4ReadEiPcj
a000b574 T _ZN12USART_Driver5FlushEi
a000bea0 T _ZN12USART_Driver5WriteEiPKcj
a000ae18 T _ZN12USART_Driver7SendXONEij
a000af2c T _ZN12USART_Driver8SendXOFFEij
a000acec T _ZN12USART_Driver8SetEventEij
a0001e34 W _ZN12XREC_Handler7ProcessEh
a00072f4 W _ZN13LPC24XX_TIMER8getIntNoEi
a0007f60 W _ZN13LPC24XX_USART8getIntNoEi
a000df94 T _ZN14HAL_COMPLETION14DequeueAndExecEv
a000d7b8 T _ZN14HAL_COMPLETION14InitializeListEv
a00053e0 W _ZN14HAL_COMPLETION16InitializeForISREPFvPvES0_
a000dda4 T _ZN14HAL_COMPLETION17WaitForInterruptsEyjy
a000dc80 T _ZN14HAL_COMPLETION5AbortEv
a000dbd0 T _ZN14HAL_COMPLETION7ExecuteEv
a00096ac T _ZN14LPC24XX_Driver10InitializeEv
a0009628 T _ZN14LPC24XX_Driver4HaltEv
a0009560 T _ZN14LPC24XX_Driver5PauseEv
a0009564 T _ZN14LPC24XX_Driver5SleepEv
a000957c T _ZN14LPC24XX_Driver8ShutdownEv
a0009568 T _ZN14LPC24XX_Driver9HibernateEv
a0003a2c T _ZN16BlockStorageList10InitializeEv
a001c70c B _ZN16BlockStorageList12s_deviceListE
a001c71c B _ZN16BlockStorageList13s_InitializedE
a0003918 T _ZN16BlockStorageList14GetFirstDeviceEv
a001c718 B _ZN16BlockStorageList15s_primaryDeviceE
a00049fc T _ZN16BlockStorageList17InitializeDevicesEv
a0003674 T _ZN16BlockStorageList28FindDeviceForPhysicalAddressEPP18BlockStorageDevicejRj
a0004900 T _ZN16BlockStorageList9AddDeviceEP18BlockStorageDeviceP19IBlockStorageDevicePvj
a000e1c8 T _ZN16HAL_CONFIG_BLOCK11ApplyConfigEPKcPvj
a000e1a4 T _ZN16HAL_CONFIG_BLOCK11ApplyConfigEPKcPvjPS2_
a000d794 T _ZN16HAL_CONTINUATION14InitializeListEv
a000d654 T _ZN16HAL_CONTINUATION18InitializeCallbackEPFvPvES0_
a000dae0 T _ZN16HAL_CONTINUATION19Dequeue_And_ExecuteEv
a000da4c T _ZN16HAL_CONTINUATION7EnqueueEv
a000d730 W _ZN17HAL_DblLinkedListI16HAL_CONTINUATIONE10InitializeEv
a000d938 W _ZN17HAL_DblLinkedListI16HAL_CONTINUATIONE10LinkAtBackEPS0_
a000d9ec W _ZN17HAL_DblLinkedListI16HAL_CONTINUATIONE16ExtractFirstNodeEv
a000d89c W _ZN17HAL_DblLinkedListI16HAL_CONTINUATIONE16InsertBeforeNodeEPS0_S2_
a000d834 W _ZN17HAL_DblLinkedListI16HAL_CONTINUATIONE6InsertEPS0_S2_S2_
a00039c8 W _ZN17HAL_DblLinkedListI18BlockStorageDeviceE10InitializeEv
a0003bb0 W _ZN17HAL_DblLinkedListI18BlockStorageDeviceE10LinkAtBackEPS0_
a0003b14 W _ZN17HAL_DblLinkedListI18BlockStorageDeviceE16InsertBeforeNodeEPS0_S2_
a0003ac8 W _ZN17HAL_DblLinkedListI18BlockStorageDeviceE6InsertEPS0_S2_S2_
a000537c W _ZN17HAL_DblLinkedNodeI16HAL_CONTINUATIONE10InitializeEv
a000d7dc W _ZN17HAL_DblLinkedNodeI16HAL_CONTINUATIONE14RemoveFromListEv
a000d5e4 W _ZN17HAL_DblLinkedNodeI16HAL_CONTINUATIONE6UnlinkEv
a000388c W _ZN17HAL_DblLinkedNodeI18BlockStorageDeviceE10InitializeEv
a0003a70 W _ZN17HAL_DblLinkedNodeI18BlockStorageDeviceE14RemoveFromListEv
a0000cc8 W _ZN18BlockStorageDevice13GetDeviceInfoEv
a0000d68 W _ZN18BlockStorageDevice13IsBlockErasedEjj
a0003148 W _ZN18BlockStorageDevice16InitializeDeviceEv
a000355c W _ZN18BlockStorageDevice17FindForBlockUsageEjRjS0_S0_
a00035cc W _ZN18BlockStorageDevice18FindNextUsageBlockEjRjS0_S0_
a00012fc W _ZN18BlockStorageDevice21FindRegionFromAddressEjRjS0_
a0003188 W _ZN18BlockStorageDevice4ReadEjjPh
a0000d08 W _ZN18BlockStorageDevice5WriteEjjPhj
a00048c0 T _ZN18BlockStorageStream10InitializeEj
a0004788 T _ZN18BlockStorageStream10InitializeEjP18BlockStorageDevice
a0003c00 T _ZN18BlockStorageStream10NextStreamEv
a0004210 T _ZN18BlockStorageStream10PrevStreamEv
a00031e0 T _ZN18BlockStorageStream14CurrentAddressEv
a0003fa4 T _ZN18BlockStorageStream4ReadEPPhj
a0004578 T _ZN18BlockStorageStream4SeekEiNS_10SeekOriginE
a000589c W _ZN18GPIO_BUTTON_CONFIG13GetDriverNameEv
a0005ef4 T _ZN18GPIO_BUTTON_Driver10InitializeEv
a0005aec T _ZN18GPIO_BUTTON_Driver14CurrentHWStateEv
a00058ac T _ZN18GPIO_BUTTON_Driver16HW_To_Hal_ButtonEj
a0005bd0 T _ZN18GPIO_BUTTON_Driver18GetNextStateChangeERjS0_
a0005cc4 T _ZN18GPIO_BUTTON_Driver19RegisterStateChangeEjj
a0005e7c T _ZN18GPIO_BUTTON_Driver3ISREjjPv
a000e388 T _ZN18LPC24XX_SPI_Driver10InitializeEv
a00090ac T _ZN18LPC24XX_VIC_Driver10InitializeEv
a001b9f0 D _ZN18LPC24XX_VIC_Driver10s_IsrTableE
a0009464 T _ZN18LPC24XX_VIC_Driver11IRQ_HandlerEv
a000915c T _ZN18LPC24XX_VIC_Driver14IRQToIRQVectorEj
a00091c8 T _ZN18LPC24XX_VIC_Driver14STUB_ISRVectorEPv
a00092e4 T _ZN18LPC24XX_VIC_Driver17ActivateInterruptEjjPFvPvES0_
a0009260 T _ZN18LPC24XX_VIC_Driver20InterruptEnableStateEj
a001a96c T _ZN19AT49BV_16_BS_Driver10EraseBlockEPvj
a001a5c4 T _ZN19AT49BV_16_BS_Driver12ChipReadOnlyEPvjj
a001a2cc T _ZN19AT49BV_16_BS_Driver13Action_ReadIDEPvRjS1_
a0019f0c T _ZN19AT49BV_16_BS_Driver13GetDeviceInfoEPv
a001a3fc T _ZN19AT49BV_16_BS_Driver13IsBlockErasedEPvjj
a001af24 T _ZN19AT49BV_16_BS_Driver13ReadProductIDEPvRjS1_
a0019f68 T _ZN19AT49BV_16_BS_Driver13SetPowerStateEPvj
a001af80 T _ZN19AT49BV_16_BS_Driver14ChipInitializeEPv
a0019fcc T _ZN19AT49BV_16_BS_Driver16Action_UnprotectEPvPVt
a0019fe0 T _ZN19AT49BV_16_BS_Driver16Action_WriteWordEPvPVtt
a0019ef4 T _ZN19AT49BV_16_BS_Driver16ChipUnInitializeEPv
a0019f28 T _ZN19AT49BV_16_BS_Driver17GetSectorMetadataEPvjP14SectorMetadata
a0019f48 T _ZN19AT49BV_16_BS_Driver17SetSectorMetadataEPvjP14SectorMetadata
a001a148 T _ZN19AT49BV_16_BS_Driver18Action_EraseSectorEPvPVt
a0019fa4 T _ZN19AT49BV_16_BS_Driver18MaxBlockErase_uSecEPv
a0019f7c T _ZN19AT49BV_16_BS_Driver19MaxSectorWrite_uSecEPv
a001a4b8 T _ZN19AT49BV_16_BS_Driver4ReadEPvjjPh
a001aaa8 T _ZN19AT49BV_16_BS_Driver5WriteEPvjjPhj
a001a8e8 T _ZN19AT49BV_16_BS_Driver6MemsetEPvjhj
a001a6e0 T _ZN19AT49BV_16_BS_Driver6WriteXEPvjjPhjj
a0005968 W _ZN19Hal_Queue_KnownSizeIN18GPIO_BUTTON_Driver19BUTTON_STATE_CHANGEELj64EE10InitializeEv
a0005a44 W _ZN19Hal_Queue_KnownSizeIN18GPIO_BUTTON_Driver19BUTTON_STATE_CHANGEELj64EE3PopEv
a000599c W _ZN19Hal_Queue_KnownSizeIN18GPIO_BUTTON_Driver19BUTTON_STATE_CHANGEELj64EE4PushEv
a0006b50 T _ZN19LPC24XX_GPIO_Driver10DisablePinEj13GPIO_RESISTORj13GPIO_ALT_MODE
a0007108 T _ZN19LPC24XX_GPIO_Driver10InitializeEv
a00067f0 T _ZN19LPC24XX_GPIO_Driver11GetPinStateEj
a0006acc W _ZN19LPC24XX_GPIO_Driver11PinToPCBRegEj
a0006660 T _ZN19LPC24XX_GPIO_Driver11SetPinStateEjj
a0006ce4 T _ZN19LPC24XX_GPIO_Driver14EnableInputPinEjjPFvjjPvES0_13GPIO_INT_EDGE13GPIO_RESISTOR
a0006b0c W _ZN19LPC24XX_GPIO_Driver14PinToPCBRegBitEj
a00065a0 T _ZN19LPC24XX_GPIO_Driver14STUB_ISRVectorEjjPv
a00068d4 T _ZN19LPC24XX_GPIO_Driver15EnableOutputPinEjj
a0006094 T _ZN19LPC24XX_GPIO_Driver18PIN_ISR_DESCRIPTOR4FireEPv
a00060ec T _ZN19LPC24XX_GPIO_Driver8GPIO_ISREPv
a0006620 W _ZN19LPC24XX_GPIO_Driver8PinToBitEj
a00065e0 W _ZN19LPC24XX_GPIO_Driver9PinToPortEj
a0007c8c T _ZN19LPC24XX_TIME_Driver10InitializeEv
a0019d24 T _ZN19LPC24XX_TIME_Driver10Sleep_uSecEj
a0007550 T _ZN19LPC24XX_TIME_Driver11CurrentTimeEv
a0007498 T _ZN19LPC24XX_TIME_Driver12CounterValueEv
a00078c0 T _ZN19LPC24XX_TIME_Driver15SetCompareValueEy
a0019cd8 T _ZN19LPC24XX_TIME_Driver15Sleep_uSec_LoopEj
a0007af4 T _ZN19LPC24XX_TIME_Driver3ISREPv
a000e23c T _ZN20FileSystemVolumeList10InitializeEv
a000e240 T _ZN20FileSystemVolumeList17InitializeVolumesEv
a0007d70 T _ZN20LPC24XX_TIMER_Driver10InitializeEjPFvPvES0_
a00077e0 W _ZN20LPC24XX_TIMER_Driver10SetCompareEjj
a0019df8 T _ZN20LPC24XX_TIMER_Driver11ReadCounterEj
a0007718 W _ZN20LPC24XX_TIMER_Driver13DidCompareHitEj
a0007844 W _ZN20LPC24XX_TIMER_Driver14ForceInterruptEj
a0007780 W _ZN20LPC24XX_TIMER_Driver15ResetCompareHitEj
a0007c24 W _ZN20LPC24XX_TIMER_Driver22EnableCompareInterruptEj
a0008c00 T _ZN20LPC24XX_USART_Driver10InitializeEiiiiii
a0008754 T _ZN20LPC24XX_USART_Driver11ProtectPinsEij
a00082f0 T _ZN20LPC24XX_USART_Driver13TxBufferEmptyEi
a0007fd0 T _ZN20LPC24XX_USART_Driver14IsValidPortNumEi
a00089f4 T _ZN20LPC24XX_USART_Driver15UART_IntHandlerEPv
a000839c T _ZN20LPC24XX_USART_Driver19WriteCharToTxBufferEih
a0008210 T _ZN20LPC24XX_USART_Driver20TxShiftRegisterEmptyEi
a0008014 T _ZN20LPC24XX_USART_Driver23TxHandshakeEnabledStateEi
a00084c4 T _ZN20LPC24XX_USART_Driver27RxBufferFullInterruptEnableEij
a000811c T _ZN20LPC24XX_USART_Driver27TxBufferEmptyInterruptStateEi
a00085d8 T _ZN20LPC24XX_USART_Driver28TxBufferEmptyInterruptEnableEij
a000a818 W _ZN21Hal_Queue_UnknownSizeIhE10InitializeEPhj
a000ab58 W _ZN21Hal_Queue_UnknownSizeIhE16NumberOfElementsEv
a000a9d0 W _ZN21Hal_Queue_UnknownSizeIhE3PopERj
a000a768 W _ZN21Hal_Queue_UnknownSizeIhE3PopEv
a000a86c W _ZN21Hal_Queue_UnknownSizeIhE4PushERj
a000ac3c W _ZN21Hal_Queue_UnknownSizeIhE4PushEv
a000abe8 W _ZN21Hal_Queue_UnknownSizeIhE7IsEmptyEv
a000e424 T _ZN23LPC24XX_WATCHDOG_Driver7DisableEv
a0000f24 W _ZN5State10InitializeEv
a000e470 W _ZN7LPC24XX3EMCEv
a0006074 W _ZN7LPC24XX3PCBEv
a0007364 W _ZN7LPC24XX3VICEv
a0006050 W _ZN7LPC24XX4GPIOEv
a0008060 W _ZN7LPC24XX4UARTEi
a000e418 W _ZN7LPC24XX4WTDGEv
a000765c W _ZN7LPC24XX5TIMEREi
a0006084 W _ZN7LPC24XX6SYSCONEv
a0006060 W _ZN7LPC24XX7GPIOIRQEv
a00030c8 W _ZNK10BlockRange13GetBlockCountEv
a00030f4 W _ZNK10BlockRange13GetBlockUsageEv
a000d520 W _ZNK12HAL_CALLBACK13GetEntryPointEv
a000902c W _ZNK12HAL_CALLBACK7ExecuteEv
a00034e4 T _ZNK15BlockDeviceInfo17FindForBlockUsageEjRjS0_S0_
a000338c T _ZNK15BlockDeviceInfo18FindNextUsageBlockEjRjS0_S0_
a0003208 T _ZNK15BlockDeviceInfo21FindRegionFromAddressEjRjS0_
a0003114 W _ZNK15BlockRegionInfo12BlockAddressEj
a000e514 W _ZNK15BlockRegionInfo4SizeEv
a000d53c W _ZNK16HAL_CONTINUATION13GetEntryPointEv
a000d578 W _ZNK16HAL_CONTINUATION7ExecuteEv
a000d988 W _ZNK17HAL_DblLinkedListI16HAL_CONTINUATIONE14FirstValidNodeEv
a000d718 W _ZNK17HAL_DblLinkedListI16HAL_CONTINUATIONE4HeadEv
a000d6b0 W _ZNK17HAL_DblLinkedListI16HAL_CONTINUATIONE4TailEv
a000d6d0 W _ZNK17HAL_DblLinkedListI16HAL_CONTINUATIONE7IsEmptyEv
a000d5ac W _ZNK17HAL_DblLinkedListI16HAL_CONTINUATIONE9FirstNodeEv
a00038b4 W _ZNK17HAL_DblLinkedListI18BlockStorageDeviceE14FirstValidNodeEv
a00039b0 W _ZNK17HAL_DblLinkedListI18BlockStorageDeviceE4HeadEv
a0003990 W _ZNK17HAL_DblLinkedListI18BlockStorageDeviceE4TailEv
a000363c W _ZNK17HAL_DblLinkedListI18BlockStorageDeviceE9FirstNodeEv
a000d5c8 W _ZNK17HAL_DblLinkedNodeI16HAL_CONTINUATIONE4NextEv
a000d880 W _ZNK17HAL_DblLinkedNodeI16HAL_CONTINUATIONE4PrevEv
a0003658 W _ZNK17HAL_DblLinkedNodeI18BlockStorageDeviceE4NextEv
a0003974 W _ZNK17HAL_DblLinkedNodeI18BlockStorageDeviceE4PrevEv
a0000db8 W _ZNK18BlockStorageDevice10EraseBlockEj
a0025c34 b _ZZN10TimeDriver16DateTimeToStringERKxE8rgBuffer
a0025cb4 b _ZZN10TimeDriver16TimeSpanToStringERKxE8rgBuffer
a001bbbc d _ZZN20LPC24XX_USART_Driver11ProtectPinsEijE18COM1_PinsProtected
a001bbb8 d _ZZN20LPC24XX_USART_Driver11ProtectPinsEijE18COM2_PinsProtected
a001bbb4 d _ZZN20LPC24XX_USART_Driver11ProtectPinsEijE18COM3_PinsProtected
a001bbb0 d _ZZN20LPC24XX_USART_Driver11ProtectPinsEijE18COM4_PinsProtected
a0018380 T ___Unwind_ForcedUnwind
a0018314 T ___Unwind_RaiseException
a0018338 T ___Unwind_Resume
a001835c T ___Unwind_Resume_or_Rethrow
a0015d50 T __adddf3
a00166ac T __aeabi_cdcmpeq
a00166ac T __aeabi_cdcmple
a0016690 T __aeabi_cdrcmple
a001673c T __aeabi_d2iz
a0015d50 T __aeabi_dadd
a00166c4 T __aeabi_dcmpeq
a001670c T __aeabi_dcmpge
a0016724 T __aeabi_dcmpgt
a00166f4 T __aeabi_dcmple
a00166dc T __aeabi_dcmplt
a00163f0 T __aeabi_ddiv
a0016160 T __aeabi_dmul
a0015d44 T __aeabi_drsub
a0015d4c T __aeabi_dsub
a00160ac T __aeabi_f2d
a0016084 T __aeabi_i2d
a0015d40 T __aeabi_idiv0
a0016100 T __aeabi_l2d
a0015d40 T __aeabi_ldiv0
a0016060 T __aeabi_ui2d
a0015c2c T __aeabi_uidiv
a0015d28 T __aeabi_uidivmod
a00160ec T __aeabi_ul2d
a0016798 T __aeabi_uldivmod
a0017934 T __aeabi_unwind_cpp_pr0
a0017920 W __aeabi_unwind_cpp_pr1
a001790c W __aeabi_unwind_cpp_pr2
a00147e4 T __any_on
a00145dc T __b2d
a0019b68 T __clz_tab
a001660c T __cmpdf2
a0014788 T __copybits
         w __cxa_begin_cleanup
         w __cxa_call_unexpected
         w __cxa_type_match
a0014918 T __d2b
a0015d40 T __div0
a00163f0 T __divdf3
a0016844 T __divdi3
a001660c T __eqdf2
a0025d6c B __exidx_end
a0025d6c B __exidx_start
a00160ac T __extendsfdf2
a001673c T __fixdfsi
a0016100 T __floatdidf
a0016084 T __floatsidf
a00160ec T __floatundidf
a0016060 T __floatunsidf
a0012d98 t __fp_lock
a0012dcc T __fp_lock_all
a0012da0 t __fp_unlock
a0012da8 T __fp_unlock_all
a00165fc T __gedf2
         w __gnu_Unwind_Find_exidx
a0017bf0 T __gnu_Unwind_ForcedUnwind
a0017d60 T __gnu_Unwind_RaiseException
a0018234 T __gnu_Unwind_Restore_VFP
a0018244 T __gnu_Unwind_Restore_VFP_D
a0018254 T __gnu_Unwind_Restore_VFP_D_16_to_31
a00182ec T __gnu_Unwind_Restore_WMMXC
a0018264 T __gnu_Unwind_Restore_WMMXD
a0017c74 T __gnu_Unwind_Resume
a0017e0c T __gnu_Unwind_Resume_or_Rethrow
a001823c T __gnu_Unwind_Save_VFP
a001824c T __gnu_Unwind_Save_VFP_D
a001825c T __gnu_Unwind_Save_VFP_D_16_to_31
a0018300 T __gnu_Unwind_Save_WMMXC
a00182a8 T __gnu_Unwind_Save_WMMXD
a00167fc T __gnu_ldivmod_helper
a00167b4 T __gnu_uldivmod_helper
a0018480 T __gnu_unwind_execute
a001888c T __gnu_unwind_frame
a00174d4 t __gnu_unwind_pr_common
a00165fc T __gtdf2
a0014428 T __hi0bits
a0014e74 T __i2b
a0015708 T __isinfd
a0015744 T __isnand
a001c07c D __lc_ctype
a0016604 T __ledf2
a0014480 T __lo0bits
a0013854 T __locale_charset
a0014b90 T __lshift
a0016604 T __ltdf2
a001c088 D __malloc_av_
a0025d3c B __malloc_current_mallinfo
a0014404 T __malloc_lock
a0025d64 B __malloc_max_sbrked_mem
a0025d68 B __malloc_max_total_mem
a001c490 D __malloc_sbrk_base
a0025d38 B __malloc_top_pad
a001c494 D __malloc_trim_threshold
a0014408 T __malloc_unlock
a001c078 D __mb_cur_max
a0014514 T __mcmp
a0014a4c T __mdiff
a0019b18 T __mprec_bigtens
a0019a40 T __mprec_tens
a0019b40 T __mprec_tinytens
a0016160 T __muldf3
a0014e98 T __multadd
a0014c9c T __multiply
a001660c T __nedf2
a0014f70 T __pow5mult
a0014698 T __ratio
a0018218 T __restore_core_regs
a0015068 T __s2b
a00157b4 T __sclose
a0012e18 T __sfmoreglue
a0012e6c T __sfp
a0012d04 T __sfp_lock_acquire
a0012d08 T __sfp_lock_release
a0013304 T __sfvwrite_r
a00189d0 T __sigtramp
a001894c T __sigtramp_r
a0012d14 T __sinit
a0012d0c T __sinit_lock_acquire
a0012d10 T __sinit_lock_release
a00138fc T __smakebuf
a000e9ec t __sprint_r
a0015884 T __sread
a00157d4 T __sseek
a0015d4c T __subdf3
a0015820 T __swrite
a00112fc T __swsetup
a0016dc8 T __udivdi3
a0015c2c T __udivsi3
a001457c T __ulp
00000000 A __use_no_semihosting_swi
a0015978 T _calloc_r
a0012e08 T _cleanup
a0012df0 T _cleanup_r
a001b9ec T _close
a0015a18 T _close_r
a0011630 T _dtoa_r
a001b9ec T _exit
a0015a54 T _fclose_r
a0013044 T _free_r
a001b9ec T _fstat
a0015b64 T _fstat_r
a00137cc T _fwalk
a0013740 T _fwalk_reent
a001b9ec T _getpid
a0018b18 T _getpid_r
a0019944 T _global_impure_ptr
a001bc70 D _impure_ptr
a001893c T _init_signal
a00188e4 T _init_signal_r
a001b9ec T _kill
a0018b28 T _kill_r
a0013864 T _localeconv_r
a001b9ec T _lseek
a0015ba4 T _lseek_r
a0013a78 T _malloc_r
a0012f48 T _malloc_trim_r
a001471c T _mprec_log10
a00189e4 T _raise_r
a001b9ec T _read
a0015be8 T _read_r
a001514c T _realloc_r
a001b9ec T _sbrk
a0015774 T _sbrk_r
a0013880 T _setlocale_r
a0018aa4 T _signal_r
         U _start
a000ea24 T _vfprintf_r
a000e8f0 T _vsnprintf_r
a0010cdc T _wcrtomb_r
a0010d54 T _wcsrtombs_r
a0010edc T _wctomb_r
a001b9ec T _write
a0015934 T _write_r
a00188d4 T abort
a001994a t blanks.3531
a0019544 t c_CRCTable
a0019a00 t charset
a000a194 T debug_printf
a0025d6c B errno
a0015b50 T fclose
a0012af0 T fflush
a0025bf4 B g_AT49BV642DT_16_BS
a001bc04 D g_AT49BV642DT_16_BS_Config
a0019368 t g_AT49BV642DT_16_BlkRegion
a001937c t g_AT49BV642DT_16_BlockRange
a001bbe8 D g_AT49BV642DT_16_DeviceInfo
a001bc38 D g_AT49BV_16_BS_DeviceTable
a0021ebc b g_Boot_RAMConstants_CRC
a001b0e0 T g_ConfigurationSector
a001c724 B g_Event_Callback
a001c728 B g_Event_Callback_Arg
a001c730 B g_Events_BoolTimerCompletion
a001bb7c D g_GPIO_BUTTON_Config
a001c758 B g_GPIO_BUTTON_Driver
a0025bcc B g_HAL_Completion_List
a0025bd8 B g_HAL_Continuation_List
a0025be4 B g_I2C_Driver
a001c968 B g_LPC24XX_GPIO_Driver
a001f3f0 B g_LPC24XX_PINSEL_Driver
a0021e88 B g_LPC24XX_TIMER_Driver
a0021e78 B g_LPC24XX_TIME_Driver
a001c4e4 B g_SREC
a001c4a0 B g_State
a0025c08 B g_TimeDriver
a001c5f4 B g_XREC
a0017948 t get_eit_entry
a001bc78 d impure_data
a001b9ec T isatty
a0009f18 T lcd_printf
a0019a04 t lconv
a0013870 T localeconv
a000008c t loop
a00141fc T memchr
a000e6d8 T memcpy
a0014310 T memmove
a000e77c T memset
a00183a4 t next_unwind_byte
a0019b08 t p05.2718
a0000890 T platform_prestackinit
a0000e18 T private_free
a0000e00 T private_malloc
a0011410 t quorem
a0018a90 T raise
a0018218 T restore_core_regs
a0017cdc t restore_non_core_regs
a0017408 t search_EIT_table
a00173ec t selfrel_offset31
a00138e0 T setlocale
a0018afc T signal
a0012ca8 t std
a000e808 T strcmp
a00158cc T strlen
a0018440 t unwind_UCB_from_context
a0017c18 t unwind_phase2
a0017a94 t unwind_phase2_forced
a0010cb0 T vfprintf
a000e968 T vsnprintf
a0010d28 T wcrtomb
a0010e98 T wcsrtombs
a001995a t zeroes.3532
a000d2e4 T ABORTD_Handler
a000c79c t ABORTD_Handler_Ptr
a000c75c T ABORTD_SubHandler
a0000028 t ABORTD_SubHandler_Trampoline
a000d398 T ABORTP_Handler
a000c758 t ABORTP_Handler_Ptr
a000c718 T ABORTP_SubHandler
a0000024 t ABORTP_SubHandler_Trampoline
a0025ba8 B ABORT_recursion_counter
a0000000 T ARM_Vectors
00000000 a BUILD_RTM
00000000 a BUILD_RTM
00000000 a BUILD_RTM
00000000 a BUILD_RTM
a000a46c T BootEntry
a00000a0 t BootEntryPointer
00000001 a COMPILE_ARM
00000001 a COMPILE_ARM
00000001 a COMPILE_ARM
00000001 a COMPILE_ARM
a0000074 t ClearZI_ER_RAM
a0000000 T EntryPoint
00000001 a HAL_REDUCESIZE
00000001 a HAL_REDUCESIZE
00000001 a HAL_REDUCESIZE
a00075b8 T HAL_Time_CurrentTicks
a000c7a0 T HARD_Breakpoint
a000d218 T HARD_Breakpoint_Handler
a000c7c4 t HARD_Breakpoint_Handler_Ptr
a0018e64 T HalName
a001bba0 D HalSystemConfig
a0025aa0 B Hal_Usart_State
a0100000 R HeapBegin
a0200000 R HeapEnd
a0019ebc T IDelayLoop
a0019ec8 T IDelayLoop2
a0019ebc t IDelayLoop__Fi_b
a0009524 T IRQ_Handler
a0019e9c T IRQ_LOCK_Disable_asm
a0019e6c T IRQ_LOCK_ForceDisabled_asm
a0019e84 T IRQ_LOCK_ForceEnabled_asm
a0019e5c T IRQ_LOCK_GetState_asm
a0019e48 T IRQ_LOCK_Probe_asm
a0019e38 T IRQ_LOCK_Release_asm
a0019eac T IRQ_LOCK_Restore_asm
a000002c T IRQ_SubHandler_Trampoline
40000000 N Image$$ER_IRAM$$Base
00000000 A Image$$ER_IRAM$$Length
40000040 N Image$$ER_IRAM_TC$$Base
00000000 A Image$$ER_IRAM_TC$$Length
0001b9d0 A Image$$ER_RAM$$Length
a0000000 T Image$$ER_RAM_RO$$Base
0001b9d0 A Image$$ER_RAM_RO$$Length
a001b9d0 D Image$$ER_RAM_RW$$Base
00000aa8 A Image$$ER_RAM_RW$$Length
a001c480 B Image$$ER_RAM_RW$$ZI$$Base
000098d0 A Image$$ER_RAM_RW$$ZI$$Length
a0021e84 B LOAD_IMAGE_CalcCRC
a0021e80 B LOAD_IMAGE_Length
a0021e7c B LOAD_IMAGE_Start
40000000 A Load$$ER_IRAM$$Base
40000040 A Load$$ER_IRAM_TC$$Base
a0000000 T Load$$ER_RAM$$Base
a0000000 A Load$$ER_RAM_RO$$Base
a001b9d0 A Load$$ER_RAM_RW$$Base
a0021e78 b LoggingCallback
a0000080 t NoClearZI_ER_RAM
00000001 a PLATFORM_ARM_LPC24XX
00000001 a PLATFORM_ARM_LPC24XX
00000001 a PLATFORM_ARM_LPC24XX
00000001 a PLATFORM_ARM_LPC24XX
00000001 a PLATFORM_ARM_plak1a_LPC2478
00000001 a PLATFORM_ARM_plak1a_LPC2478
00000001 a PLATFORM_ARM_plak1a_LPC2478
00000001 a PLATFORM_ARM_plak1a_LPC2478
000000d7 a PSR_MODE_ABORT
000000d7 a PSR_MODE_ABORT
000000d1 a PSR_MODE_FIQ
000000d1 a PSR_MODE_FIQ
000000d2 a PSR_MODE_IRQ
000000d2 a PSR_MODE_IRQ
000000d3 a PSR_MODE_SUPERVISOR
000000d3 a PSR_MODE_SUPERVISOR
000000df a PSR_MODE_SYSTEM
000000df a PSR_MODE_SYSTEM
000000db a PSR_MODE_UNDEF
000000db a PSR_MODE_UNDEF
000000d0 a PSR_MODE_USER
000000d0 a PSR_MODE_USER
a0022aa0 B RxBuffer_Com
00000010 a STACK_MODE_ABORT
00000800 a STACK_MODE_IRQ
00000010 a STACK_MODE_UNDEF
a02ffff8 R StackBottom
a0300000 R StackTop
a001c700 B SystemEvents
a0009e10 T SystemState_ClearNoLock
a0009d84 T SystemState_QueryNoLock
a0009e84 T SystemState_SetNoLock
a0021e88 B SystemStates
00000001 a TARGETLOCATION_RAM
00000001 a TARGETLOCATION_RAM
00000001 a TARGETLOCATION_RAM
00000001 a TARGETLOCATION_RAM
a00075e4 T Time_CurrentTicks
a0021ea0 B TxBuffer_Com
a000d44c T UNDEF_Handler
a000c714 t UNDEF_Handler_Ptr
a000c6d4 T UNDEF_SubHandler
a0000020 t UNDEF_SubHandler_Trampoline
a0019014 T UsbDefaultConfiguration
a0000030 t VectorAreaSkip
a0014864 T _Balloc
a00143ec T _Bfree
a001748c T _Unwind_Complete
a0017490 T _Unwind_DeleteException
a0018360 T _Unwind_ForcedUnwind
a0017484 T _Unwind_GetCFA
a00183e8 T _Unwind_GetDataRelBase
a00183f0 t _Unwind_GetGR
a0017320 t _Unwind_GetGR
a0018428 T _Unwind_GetLanguageSpecificData
a001844c T _Unwind_GetRegionStart
a00183e0 T _Unwind_GetTextRelBase
a00182f4 T _Unwind_RaiseException
a0018318 T _Unwind_Resume
a001833c T _Unwind_Resume_or_Rethrow
a001739c t _Unwind_SetGR
a00172d4 T _Unwind_VRS_Get
a0017e1c T _Unwind_VRS_Pop
a0017350 T _Unwind_VRS_Set
a00172c0 t _Unwind_decode_target2
a0005744 T _Z10Events_Getj
a00057d0 T _Z10Events_Setj
a000be3c T _Z10USART_ReadiPcj
a0009cb4 T _Z10hal_printfPKcz
a000ba9c T _Z11USART_Flushi
a000c2d4 T _Z11USART_WriteiPKcj
a0009c10 T _Z11hal_fprintfiPKcz
a0009c68 T _Z11hal_vprintfPKcPv
a00056d8 T _Z12Events_Clearj
a000954c T _Z12HAL_AssertExv
a000e238 T _Z12HeapLocationRPhRj
a0009d04 t _Z12InitCRuntimev
a000c820 T _Z12RegisterDumpv
a00099d0 T _Z12SOCKETS_ReadiPcj
a000c6a0 T _Z12USB_GetEventij
a0009a8c T _Z12hal_vfprintfiPKcPv
a000e214 T _Z13FS_AddVolumesv
a000e218 T _Z13FS_Initializev
a00099f0 T _Z13SOCKETS_Flushi
a00099b0 T _Z13SOCKETS_WriteiPKcj
a000c5dc T _Z13USB_ConfigureiPK25USB_DYNAMIC_CONFIGURATION
a000c6bc T _Z13USB_GetStatusi
a0009a40 T _Z13hal_vsnprintfPcjPKcPv
a00096e0 T _Z14CPU_Initializev
a000a290 T _Z14HAL_Initializev
a000e338 T _Z14I2C_Initializev
a000e35c T _Z14Ink_Initializev
a000586c T _Z14LCD_Initializev
a0000e64 T _Z14SignalActivityv
a000c5c4 T _Z14USB_Initializei
a000c610 T _Z14USB_OpenStreamiii
a00001c0 T _Z15Bootstrap_Delayi
a00073b0 T _Z15CPU_TicksToTimey
a000e4bc T _Z15Time_Initializev
a000c630 T _Z15USB_CloseStreami
a0005878 T _Z16LCD_Uninitializev
a000e46c T _Z16Piezo_Initializev
a0001a70 T _Z16StartApplicationPFvvE
a000c568 T _Z16USART_Initializeiiiiii
a000c5f8 T _Z16USB_Uninitializei
a000e434 T _Z16Watchdog_Disablev
a0009a08 T _Z17CPU_DisableCachesv
a0004ea8 T _Z17DebuggerPort_ReadiPcj
a00053a4 T _Z17Events_Initializev
a0005354 T _Z17Events_MaskedReadj
a0000868 T _Z17Initialize_SyncOnv
a000e208 T _Z18Battery_Initializev
a0000724 T _Z18BootstrapCode_Pinsv
a000602c T _Z18Buttons_Initializev
a000e3d4 T _Z18CPU_SPI_Initializev
a000739c T _Z18CPU_TicksPerSecondv
a000e1fc T _Z18Charger_Initializev
a000e470 T _Z18CustomHeapLocationRPhRj
a0004dc8 T _Z18DebuggerPort_Flushi
a0004fa4 T _Z18DebuggerPort_WriteiPKcj
a000e22c T _Z18Gesture_Initializev
a000998c T _Z18Network_Initializev
a0009998 T _Z18SOCKETS_Initializei
a000e628 T _Z18SUPPORT_ComputeCRCPKvij
a00000b4 T _Z19BootstrapCode_Dummyv
a0006c6c T _Z19CPU_GPIO_DisablePinj13GPIO_RESISTORj13GPIO_ALT_MODE
a000727c T _Z19CPU_GPIO_Initializev
a0009120 T _Z19CPU_INTC_Initializev
a0009a24 T _Z19CPU_USB_ProtectPinsij
a0007d2c T _Z19HAL_Time_Initializev
a0007bd8 T _Z19HAL_Time_SetComparey
a000e460 T _Z19PalEvent_Initializev
a0009f40 T _Z19Verify_RAMConstantsPv
a000c8bc T _Z20ABORT_HandlerDisplayPjjjjPKcj
a000e1f0 T _Z20BackLight_Initializev
a00003a8 T _Z20BootstrapCode_Clocksv
a0006880 T _Z20CPU_GPIO_GetPinStatej
a000679c T _Z20CPU_GPIO_SetPinStatejj
a0008f80 T _Z20CPU_USART_Initializeiiiiii
a0000ee4 W _Z20Events_WaitForEventsjj
a000542c T _Z20Events_WaitForEventsjjj
a000a22c W _Z20HAL_Init_Custom_Heapv
a000758c T _Z20HAL_Time_CurrentTimev
a000c824 T _Z20monitor_debug_printfPKcz
a00025f4 T _Z21ApplicationEntryPointv
a000896c T _Z21CPU_USART_ProtectPinsij
a0009d08 T _Z21Checksum_RAMConstantsv
a0000e28 T _Z21PortBooterLoadProgramPPv
a000e49c T _Z21SimpleHeap_InitializePvj
a0000668 T _Z22BootstrapCode_Ext_SRAMv
a0005bac T _Z22Buttons_CurrentHWStatev
a0005888 T _Z22LCD_WriteFormattedCharh
a000e4e8 T _Z22TimeService_Initializev
a000c7c8 T _Z22Watchdog_GetSetEnabledjj
a000c7e4 T _Z22Watchdog_GetSetTimeoutij
a000e14c T _Z23BlockStorage_AddDevicesv
a000066c T _Z23BootstrapCode_Ext_Flashv
a0000984 T _Z23BootstrapCode_Ext_SDRAMv
a000708c T _Z23CPU_GPIO_EnableInputPinjjPFvjjPvE13GPIO_INT_EDGE13GPIO_RESISTOR
a0019c94 T _Z23CPU_MicrosecondsToTicksj
a0019c48 T _Z23CPU_MicrosecondsToTicksy
a00073d4 T _Z23CPU_MillisecondsToTicksj
a0008470 T _Z23CPU_USART_TxBufferEmptyi
a00051b8 T _Z23DebuggerPort_Initializei
a000e4b0 T _Z23I2C_Internal_Initializev
a000b510 T _Z23USART_AddCharToRxBufferic
a000c800 T _Z23Watchdog_GetSetBehavior17Watchdog_Behaviorj
a0005934 T _Z24Buttons_HW_To_Hal_Buttonj
a000e52c T _Z24CPU_EBIU_Memory_ReadOnlyRK17CPU_MEMORY_CONFIGj
a0006a78 T _Z24CPU_GPIO_EnableOutputPinjj
a0009a0c T _Z24CPU_GetUncachableAddressj
a00000b8 T _Z24PrepareImageRegions_IRAMv
a0005c88 T _Z26Buttons_GetNextStateChangeRjS_
a000e51c T _Z26CPU_EBIU_ConfigMemoryBlockRK17CPU_MEMORY_CONFIG
a00093fc T _Z26CPU_INTC_ActivateInterruptjPFvPvES_
a0005e40 T _Z27Buttons_RegisterStateChangejj
a0004c60 T _Z27CPU_InitializeCommunicationv
a0007354 T _Z27HAL_Time_GetDriftParametersPiS_Px
a0007610 T _Z27HAL_Time_Sleep_MicroSecondsj
a000013c T _Z27PrepareImageRegions_IRAM_TCv
a000b1b8 T _Z28USART_RemoveCharFromTxBufferiRc
a0009290 T _Z29CPU_INTC_InterruptEnableStatej
a0004bc4 T _Z29CPU_ProtectCommunicationGPIOsj
a0008434 T _Z29CPU_USART_WriteCharToTxBufferih
a000829c T _Z30CPU_USART_TxShiftRegisterEmptyi
a000800c T _Z33CPU_USART_TxHandshakeEnabledStatei
a0008584 T _Z37CPU_USART_RxBufferFullInterruptEnableij
a00081bc T _Z37CPU_USART_TxBufferEmptyInterruptStatei
a00089a0 T _Z38CPU_USART_TxBufferEmptyInterruptEnableij
a000744c T _Z44HAL_Time_Sleep_MicroSeconds_InterruptEnabledj
a00008ac T _Z7delayMsjj
a0009670 T _Z8CPU_Haltv
a00002bc T _Z8GetFpclkj
a00001dc T _Z8GetFsclkv
a000c668 T _Z8USB_ReadiPcj
a0009584 T _Z9CPU_Sleep11SLEEP_LEVELy
a0005884 T _Z9LCD_Clearv
a000c688 T _Z9USB_Flushi
a000c648 T _Z9USB_WriteiPKcj
a000e278 T _ZN10I2C_Driver10InitializeEv
a000e548 T _ZN10TimeDriver10InitializeEv
a0025c10 B _ZN10TimeDriver13m_initializedE
a00072a0 W _ZN11LPC24XX_VIC14ForceInterruptEj
a00091f0 W _ZN11LPC24XX_VIC18IsInterruptEnabledEj
a0009058 W _ZN11LPC24XX_VIC21RemoveForcedInterruptEj
a0008fdc W _ZN12HAL_CALLBACK10InitializeEPFvPvES0_
a00011c4 W _ZN12SREC_Handler4htoiEPKcjRj
a0001bb4 W _ZN12SREC_Handler7ProcessEc
a0001364 W _ZN12SREC_Handler9ParseLineEPKc
a0009704 T _ZN12SmartPtr_IRQ11WasDisabledEv
a0009868 T _ZN12SmartPtr_IRQ12ForceEnabledEPv
a0009898 T _ZN12SmartPtr_IRQ13ForceDisabledEPv
a00098f8 T _ZN12SmartPtr_IRQ5ProbeEv
a00097dc T _ZN12SmartPtr_IRQ7AcquireEv
a00097a8 T _ZN12SmartPtr_IRQ7DisableEv
a000993c T _ZN12SmartPtr_IRQ7ReleaseEv
a0009730 T _ZN12SmartPtr_IRQ7RestoreEv
a00098c8 T _ZN12SmartPtr_IRQ8GetStateEPv
a0009824 T _ZN12SmartPtr_IRQC1EPv
a0009774 T _ZN12SmartPtr_IRQD1Ev
a000c318 T _ZN12USART_Driver10InitializeEiiiiii
a000b1f4 T _ZN12USART_Driver17AddCharToRxBufferEic
a000b01c T _ZN12USART_Driver22RemoveCharFromTxBufferEiRc
a000bad0 T _ZN12USART_Driver4ReadEiPcj
a000b554 T _ZN12USART_Driver5FlushEi
a000be80 T _ZN12USART_Driver5WriteEiPKcj
a000adf8 T _ZN12USART_Driver7SendXONEij
a000af0c T _ZN12USART_Driver8SendXOFFEij
a000accc T _ZN12USART_Driver8SetEventEij
a0001e34 W _ZN12XREC_Handler7ProcessEh
a00072d4 W _ZN13LPC24XX_TIMER8getIntNoEi
a0007f40 W _ZN13LPC24XX_USART8getIntNoEi
a000df74 T _ZN14HAL_COMPLETION14DequeueAndExecEv
a000d798 T _ZN14HAL_COMPLETION14InitializeListEv
a00053e0 W _ZN14HAL_COMPLETION16InitializeForISREPFvPvES0_
a000dd84 T _ZN14HAL_COMPLETION17WaitForInterruptsEyjy
a000dc60 T _ZN14HAL_COMPLETION5AbortEv
a000dbb0 T _ZN14HAL_COMPLETION7ExecuteEv
a000968c T _ZN14LPC24XX_Driver10InitializeEv
a0009608 T _ZN14LPC24XX_Driver4HaltEv
a0009540 T _ZN14LPC24XX_Driver5PauseEv
a0009544 T _ZN14LPC24XX_Driver5SleepEv
a000955c T _ZN14LPC24XX_Driver8ShutdownEv
a0009548 T _ZN14LPC24XX_Driver9HibernateEv
a0003a2c T _ZN16BlockStorageList10InitializeEv
a001c6ec B _ZN16BlockStorageList12s_deviceListE
a001c6fc B _ZN16BlockStorageList13s_InitializedE
a0003918 T _ZN16BlockStorageList14GetFirstDeviceEv
a001c6f8 B _ZN16BlockStorageList15s_primaryDeviceE
a00049fc T _ZN16BlockStorageList17InitializeDevicesEv
a0003674 T _ZN16BlockStorageList28FindDeviceForPhysicalAddressEPP18BlockStorageDevicejRj
a0004900 T _ZN16BlockStorageList9AddDeviceEP18BlockStorageDeviceP19IBlockStorageDevicePvj
a000e1a8 T _ZN16HAL_CONFIG_BLOCK11ApplyConfigEPKcPvj
a000e184 T _ZN16HAL_CONFIG_BLOCK11ApplyConfigEPKcPvjPS2_
a000d774 T _ZN16HAL_CONTINUATION14InitializeListEv
a000d634 T _ZN16HAL_CONTINUATION18InitializeCallbackEPFvPvES0_
a000dac0 T _ZN16HAL_CONTINUATION19Dequeue_And_ExecuteEv
a000da2c T _ZN16HAL_CONTINUATION7EnqueueEv
a000d710 W _ZN17HAL_DblLinkedListI16HAL_CONTINUATIONE10InitializeEv
a000d918 W _ZN17HAL_DblLinkedListI16HAL_CONTINUATIONE10LinkAtBackEPS0_
a000d9cc W _ZN17HAL_DblLinkedListI16HAL_CONTINUATIONE16ExtractFirstNodeEv
a000d87c W _ZN17HAL_DblLinkedListI16HAL_CONTINUATIONE16InsertBeforeNodeEPS0_S2_
a000d814 W _ZN17HAL_DblLinkedListI16HAL_CONTINUATIONE6InsertEPS0_S2_S2_
a00039c8 W _ZN17HAL_DblLinkedListI18BlockStorageDeviceE10InitializeEv
a0003bb0 W _ZN17HAL_DblLinkedListI18BlockStorageDeviceE10LinkAtBackEPS0_
a0003b14 W _ZN17HAL_DblLinkedListI18BlockStorageDeviceE16InsertBeforeNodeEPS0_S2_
a0003ac8 W _ZN17HAL_DblLinkedListI18BlockStorageDeviceE6InsertEPS0_S2_S2_
a000537c W _ZN17HAL_DblLinkedNodeI16HAL_CONTINUATIONE10InitializeEv
a000d7bc W _ZN17HAL_DblLinkedNodeI16HAL_CONTINUATIONE14RemoveFromListEv
a000d5c4 W _ZN17HAL_DblLinkedNodeI16HAL_CONTINUATIONE6UnlinkEv
a000388c W _ZN17HAL_DblLinkedNodeI18BlockStorageDeviceE10InitializeEv
a0003a70 W _ZN17HAL_DblLinkedNodeI18BlockStorageDeviceE14RemoveFromListEv
a0000cc8 W _ZN18BlockStorageDevice13GetDeviceInfoEv
a0000d68 W _ZN18BlockStorageDevice13IsBlockErasedEjj
a0003148 W _ZN18BlockStorageDevice16InitializeDeviceEv
a000355c W _ZN18BlockStorageDevice17FindForBlockUsageEjRjS0_S0_
a00035cc W _ZN18BlockStorageDevice18FindNextUsageBlockEjRjS0_S0_
a00012fc W _ZN18BlockStorageDevice21FindRegionFromAddressEjRjS0_
a0003188 W _ZN18BlockStorageDevice4ReadEjjPh
a0000d08 W _ZN18BlockStorageDevice5WriteEjjPhj
a00048c0 T _ZN18BlockStorageStream10InitializeEj
a0004788 T _ZN18BlockStorageStream10InitializeEjP18BlockStorageDevice
a0003c00 T _ZN18BlockStorageStream10NextStreamEv
a0004210 T _ZN18BlockStorageStream10PrevStreamEv
a00031e0 T _ZN18BlockStorageStream14CurrentAddressEv
a0003fa4 T _ZN18BlockStorageStream4ReadEPPhj
a0004578 T _ZN18BlockStorageStream4SeekEiNS_10SeekOriginE
a000589c W _ZN18GPIO_BUTTON_CONFIG13GetDriverNameEv
a0005ef4 T _ZN18GPIO_BUTTON_Driver10InitializeEv
a0005aec T _ZN18GPIO_BUTTON_Driver14CurrentHWStateEv
a00058ac T _ZN18GPIO_BUTTON_Driver16HW_To_Hal_ButtonEj
a0005bd0 T _ZN18GPIO_BUTTON_Driver18GetNextStateChangeERjS0_
a0005cc4 T _ZN18GPIO_BUTTON_Driver19RegisterStateChangeEjj
a0005e7c T _ZN18GPIO_BUTTON_Driver3ISREjjPv
a000e368 T _ZN18LPC24XX_SPI_Driver10InitializeEv
a000908c T _ZN18LPC24XX_VIC_Driver10InitializeEv
a001b9d0 D _ZN18LPC24XX_VIC_Driver10s_IsrTableE
a0009444 T _ZN18LPC24XX_VIC_Driver11IRQ_HandlerEv
a000913c T _ZN18LPC24XX_VIC_Driver14IRQToIRQVectorEj
a00091a8 T _ZN18LPC24XX_VIC_Driver14STUB_ISRVectorEPv
a00092c4 T _ZN18LPC24XX_VIC_Driver17ActivateInterruptEjjPFvPvES0_
a0009240 T _ZN18LPC24XX_VIC_Driver20InterruptEnableStateEj
a001a94c T _ZN19AT49BV_16_BS_Driver10EraseBlockEPvj
a001a5a4 T _ZN19AT49BV_16_BS_Driver12ChipReadOnlyEPvjj
a001a2ac T _ZN19AT49BV_16_BS_Driver13Action_ReadIDEPvRjS1_
a0019eec T _ZN19AT49BV_16_BS_Driver13GetDeviceInfoEPv
a001a3dc T _ZN19AT49BV_16_BS_Driver13IsBlockErasedEPvjj
a001af04 T _ZN19AT49BV_16_BS_Driver13ReadProductIDEPvRjS1_
a0019f48 T _ZN19AT49BV_16_BS_Driver13SetPowerStateEPvj
a001af60 T _ZN19AT49BV_16_BS_Driver14ChipInitializeEPv
a0019fac T _ZN19AT49BV_16_BS_Driver16Action_UnprotectEPvPVt
a0019fc0 T _ZN19AT49BV_16_BS_Driver16Action_WriteWordEPvPVtt
a0019ed4 T _ZN19AT49BV_16_BS_Driver16ChipUnInitializeEPv
a0019f08 T _ZN19AT49BV_16_BS_Driver17GetSectorMetadataEPvjP14SectorMetadata
a0019f28 T _ZN19AT49BV_16_BS_Driver17SetSectorMetadataEPvjP14SectorMetadata
a001a128 T _ZN19AT49BV_16_BS_Driver18Action_EraseSectorEPvPVt
a0019f84 T _ZN19AT49BV_16_BS_Driver18MaxBlockErase_uSecEPv
a0019f5c T _ZN19AT49BV_16_BS_Driver19MaxSectorWrite_uSecEPv
a001a498 T _ZN19AT49BV_16_BS_Driver4ReadEPvjjPh
a001aa88 T _ZN19AT49BV_16_BS_Driver5WriteEPvjjPhj
a001a8c8 T _ZN19AT49BV_16_BS_Driver6MemsetEPvjhj
a001a6c0 T _ZN19AT49BV_16_BS_Driver6WriteXEPvjjPhjj
a0005968 W _ZN19Hal_Queue_KnownSizeIN18GPIO_BUTTON_Driver19BUTTON_STATE_CHANGEELj64EE10InitializeEv
a0005a44 W _ZN19Hal_Queue_KnownSizeIN18GPIO_BUTTON_Driver19BUTTON_STATE_CHANGEELj64EE3PopEv
a000599c W _ZN19Hal_Queue_KnownSizeIN18GPIO_BUTTON_Driver19BUTTON_STATE_CHANGEELj64EE4PushEv
a0006b30 T _ZN19LPC24XX_GPIO_Driver10DisablePinEj13GPIO_RESISTORj13GPIO_ALT_MODE
a00070e8 T _ZN19LPC24XX_GPIO_Driver10InitializeEv
a00067d0 T _ZN19LPC24XX_GPIO_Driver11GetPinStateEj
a0006aac W _ZN19LPC24XX_GPIO_Driver11PinToPCBRegEj
a0006640 T _ZN19LPC24XX_GPIO_Driver11SetPinStateEjj
a0006cc4 T _ZN19LPC24XX_GPIO_Driver14EnableInputPinEjjPFvjjPvES0_13GPIO_INT_EDGE13GPIO_RESISTOR
a0006aec W _ZN19LPC24XX_GPIO_Driver14PinToPCBRegBitEj
a0006580 T _ZN19LPC24XX_GPIO_Driver14STUB_ISRVectorEjjPv
a00068b4 T _ZN19LPC24XX_GPIO_Driver15EnableOutputPinEjj
a0006094 T _ZN19LPC24XX_GPIO_Driver18PIN_ISR_DESCRIPTOR4FireEPv
a00060ec T _ZN19LPC24XX_GPIO_Driver8GPIO_ISREPv
a0006600 W _ZN19LPC24XX_GPIO_Driver8PinToBitEj
a00065c0 W _ZN19LPC24XX_GPIO_Driver9PinToPortEj
a0007c6c T _ZN19LPC24XX_TIME_Driver10InitializeEv
a0019d04 T _ZN19LPC24XX_TIME_Driver10Sleep_uSecEj
a0007530 T _ZN19LPC24XX_TIME_Driver11CurrentTimeEv
a0007478 T _ZN19LPC24XX_TIME_Driver12CounterValueEv
a00078a0 T _ZN19LPC24XX_TIME_Driver15SetCompareValueEy
a0019cb8 T _ZN19LPC24XX_TIME_Driver15Sleep_uSec_LoopEj
a0007ad4 T _ZN19LPC24XX_TIME_Driver3ISREPv
a000e21c T _ZN20FileSystemVolumeList10InitializeEv
a000e220 T _ZN20FileSystemVolumeList17InitializeVolumesEv
a0007d50 T _ZN20LPC24XX_TIMER_Driver10InitializeEjPFvPvES0_
a00077c0 W _ZN20LPC24XX_TIMER_Driver10SetCompareEjj
a0019dd8 T _ZN20LPC24XX_TIMER_Driver11ReadCounterEj
a00076f8 W _ZN20LPC24XX_TIMER_Driver13DidCompareHitEj
a0007824 W _ZN20LPC24XX_TIMER_Driver14ForceInterruptEj
a0007760 W _ZN20LPC24XX_TIMER_Driver15ResetCompareHitEj
a0007c04 W _ZN20LPC24XX_TIMER_Driver22EnableCompareInterruptEj
a0008be0 T _ZN20LPC24XX_USART_Driver10InitializeEiiiiii
a0008734 T _ZN20LPC24XX_USART_Driver11ProtectPinsEij
a00082d0 T _ZN20LPC24XX_USART_Driver13TxBufferEmptyEi
a0007fb0 T _ZN20LPC24XX_USART_Driver14IsValidPortNumEi
a00089d4 T _ZN20LPC24XX_USART_Driver15UART_IntHandlerEPv
a000837c T _ZN20LPC24XX_USART_Driver19WriteCharToTxBufferEih
a00081f0 T _ZN20LPC24XX_USART_Driver20TxShiftRegisterEmptyEi
a0007ff4 T _ZN20LPC24XX_USART_Driver23TxHandshakeEnabledStateEi
a00084a4 T _ZN20LPC24XX_USART_Driver27RxBufferFullInterruptEnableEij
a00080fc T _ZN20LPC24XX_USART_Driver27TxBufferEmptyInterruptStateEi
a00085b8 T _ZN20LPC24XX_USART_Driver28TxBufferEmptyInterruptEnableEij
a000a7f8 W _ZN21Hal_Queue_UnknownSizeIhE10InitializeEPhj
a000ab38 W _ZN21Hal_Queue_UnknownSizeIhE16NumberOfElementsEv
a000a9b0 W _ZN21Hal_Queue_UnknownSizeIhE3PopERj
a000a748 W _ZN21Hal_Queue_UnknownSizeIhE3PopEv
a000a84c W _ZN21Hal_Queue_UnknownSizeIhE4PushERj
a000ac1c W _ZN21Hal_Queue_UnknownSizeIhE4PushEv
a000abc8 W _ZN21Hal_Queue_UnknownSizeIhE7IsEmptyEv
a000e404 T _ZN23LPC24XX_WATCHDOG_Driver7DisableEv
a0000f24 W _ZN5State10InitializeEv
a000e450 W _ZN7LPC24XX3EMCEv
a0006074 W _ZN7LPC24XX3PCBEv
a0007344 W _ZN7LPC24XX3VICEv
a0006050 W _ZN7LPC24XX4GPIOEv
a0008040 W _ZN7LPC24XX4UARTEi
a000e3f8 W _ZN7LPC24XX4WTDGEv
a000763c W _ZN7LPC24XX5TIMEREi
a0006084 W _ZN7LPC24XX6SYSCONEv
a0006060 W _ZN7LPC24XX7GPIOIRQEv
a00030c8 W _ZNK10BlockRange13GetBlockCountEv
a00030f4 W _ZNK10BlockRange13GetBlockUsageEv
a000d500 W _ZNK12HAL_CALLBACK13GetEntryPointEv
a000900c W _ZNK12HAL_CALLBACK7ExecuteEv
a00034e4 T _ZNK15BlockDeviceInfo17FindForBlockUsageEjRjS0_S0_
a000338c T _ZNK15BlockDeviceInfo18FindNextUsageBlockEjRjS0_S0_
a0003208 T _ZNK15BlockDeviceInfo21FindRegionFromAddressEjRjS0_
a0003114 W _ZNK15BlockRegionInfo12BlockAddressEj
a000e4f4 W _ZNK15BlockRegionInfo4SizeEv
a000d51c W _ZNK16HAL_CONTINUATION13GetEntryPointEv
a000d558 W _ZNK16HAL_CONTINUATION7ExecuteEv
a000d968 W _ZNK17HAL_DblLinkedListI16HAL_CONTINUATIONE14FirstValidNodeEv
a000d6f8 W _ZNK17HAL_DblLinkedListI16HAL_CONTINUATIONE4HeadEv
a000d690 W _ZNK17HAL_DblLinkedListI16HAL_CONTINUATIONE4TailEv
a000d6b0 W _ZNK17HAL_DblLinkedListI16HAL_CONTINUATIONE7IsEmptyEv
a000d58c W _ZNK17HAL_DblLinkedListI16HAL_CONTINUATIONE9FirstNodeEv
a00038b4 W _ZNK17HAL_DblLinkedListI18BlockStorageDeviceE14FirstValidNodeEv
a00039b0 W _ZNK17HAL_DblLinkedListI18BlockStorageDeviceE4HeadEv
a0003990 W _ZNK17HAL_DblLinkedListI18BlockStorageDeviceE4TailEv
a000363c W _ZNK17HAL_DblLinkedListI18BlockStorageDeviceE9FirstNodeEv
a000d5a8 W _ZNK17HAL_DblLinkedNodeI16HAL_CONTINUATIONE4NextEv
a000d860 W _ZNK17HAL_DblLinkedNodeI16HAL_CONTINUATIONE4PrevEv
a0003658 W _ZNK17HAL_DblLinkedNodeI18BlockStorageDeviceE4NextEv
a0003974 W _ZNK17HAL_DblLinkedNodeI18BlockStorageDeviceE4PrevEv
a0000db8 W _ZNK18BlockStorageDevice10EraseBlockEj
a0025c14 b _ZZN10TimeDriver16DateTimeToStringERKxE8rgBuffer
a0025c94 b _ZZN10TimeDriver16TimeSpanToStringERKxE8rgBuffer
a001bb9c d _ZZN20LPC24XX_USART_Driver11ProtectPinsEijE18COM1_PinsProtected
a001bb98 d _ZZN20LPC24XX_USART_Driver11ProtectPinsEijE18COM2_PinsProtected
a001bb94 d _ZZN20LPC24XX_USART_Driver11ProtectPinsEijE18COM3_PinsProtected
a001bb90 d _ZZN20LPC24XX_USART_Driver11ProtectPinsEijE18COM4_PinsProtected
a0018360 T ___Unwind_ForcedUnwind
a00182f4 T ___Unwind_RaiseException
a0018318 T ___Unwind_Resume
a001833c T ___Unwind_Resume_or_Rethrow
a0015d30 T __adddf3
a001668c T __aeabi_cdcmpeq
a001668c T __aeabi_cdcmple
a0016670 T __aeabi_cdrcmple
a001671c T __aeabi_d2iz
a0015d30 T __aeabi_dadd
a00166a4 T __aeabi_dcmpeq
a00166ec T __aeabi_dcmpge
a0016704 T __aeabi_dcmpgt
a00166d4 T __aeabi_dcmple
a00166bc T __aeabi_dcmplt
a00163d0 T __aeabi_ddiv
a0016140 T __aeabi_dmul
a0015d24 T __aeabi_drsub
a0015d2c T __aeabi_dsub
a001608c T __aeabi_f2d
a0016064 T __aeabi_i2d
a0015d20 T __aeabi_idiv0
a00160e0 T __aeabi_l2d
a0015d20 T __aeabi_ldiv0
a0016040 T __aeabi_ui2d
a0015c0c T __aeabi_uidiv
a0015d08 T __aeabi_uidivmod
a00160cc T __aeabi_ul2d
a0016778 T __aeabi_uldivmod
a0017914 T __aeabi_unwind_cpp_pr0
a0017900 W __aeabi_unwind_cpp_pr1
a00178ec W __aeabi_unwind_cpp_pr2
a00147c4 T __any_on
a00145bc T __b2d
a0019b48 T __clz_tab
a00165ec T __cmpdf2
a0014768 T __copybits
         w __cxa_begin_cleanup
         w __cxa_call_unexpected
         w __cxa_type_match
a00148f8 T __d2b
a0015d20 T __div0
a00163d0 T __divdf3
a0016824 T __divdi3
a00165ec T __eqdf2
a0025d4c B __exidx_end
a0025d4c B __exidx_start
a001608c T __extendsfdf2
a001671c T __fixdfsi
a00160e0 T __floatdidf
a0016064 T __floatsidf
a00160cc T __floatundidf
a0016040 T __floatunsidf
a0012d78 t __fp_lock
a0012dac T __fp_lock_all
a0012d80 t __fp_unlock
a0012d88 T __fp_unlock_all
a00165dc T __gedf2
         w __gnu_Unwind_Find_exidx
a0017bd0 T __gnu_Unwind_ForcedUnwind
a0017d40 T __gnu_Unwind_RaiseException
a0018214 T __gnu_Unwind_Restore_VFP
a0018224 T __gnu_Unwind_Restore_VFP_D
a0018234 T __gnu_Unwind_Restore_VFP_D_16_to_31
a00182cc T __gnu_Unwind_Restore_WMMXC
a0018244 T __gnu_Unwind_Restore_WMMXD
a0017c54 T __gnu_Unwind_Resume
a0017dec T __gnu_Unwind_Resume_or_Rethrow
a001821c T __gnu_Unwind_Save_VFP
a001822c T __gnu_Unwind_Save_VFP_D
a001823c T __gnu_Unwind_Save_VFP_D_16_to_31
a00182e0 T __gnu_Unwind_Save_WMMXC
a0018288 T __gnu_Unwind_Save_WMMXD
a00167dc T __gnu_ldivmod_helper
a0016794 T __gnu_uldivmod_helper
a0018460 T __gnu_unwind_execute
a001886c T __gnu_unwind_frame
a00174b4 t __gnu_unwind_pr_common
a00165dc T __gtdf2
a0014408 T __hi0bits
a0014e54 T __i2b
a00156e8 T __isinfd
a0015724 T __isnand
a001c05c D __lc_ctype
a00165e4 T __ledf2
a0014460 T __lo0bits
a0013834 T __locale_charset
a0014b70 T __lshift
a00165e4 T __ltdf2
a001c068 D __malloc_av_
a0025d1c B __malloc_current_mallinfo
a00143e4 T __malloc_lock
a0025d44 B __malloc_max_sbrked_mem
a0025d48 B __malloc_max_total_mem
a001c470 D __malloc_sbrk_base
a0025d18 B __malloc_top_pad
a001c474 D __malloc_trim_threshold
a00143e8 T __malloc_unlock
a001c058 D __mb_cur_max
a00144f4 T __mcmp
a0014a2c T __mdiff
a0019af8 T __mprec_bigtens
a0019a20 T __mprec_tens
a0019b20 T __mprec_tinytens
a0016140 T __muldf3
a0014e78 T __multadd
a0014c7c T __multiply
a00165ec T __nedf2
a0014f50 T __pow5mult
a0014678 T __ratio
a00181f8 T __restore_core_regs
a0015048 T __s2b
a0015794 T __sclose
a0012df8 T __sfmoreglue
a0012e4c T __sfp
a0012ce4 T __sfp_lock_acquire
a0012ce8 T __sfp_lock_release
a00132e4 T __sfvwrite_r
a00189b0 T __sigtramp
a001892c T __sigtramp_r
a0012cf4 T __sinit
a0012cec T __sinit_lock_acquire
a0012cf0 T __sinit_lock_release
a00138dc T __smakebuf
a000e9cc t __sprint_r
a0015864 T __sread
a00157b4 T __sseek
a0015d2c T __subdf3
a0015800 T __swrite
a00112dc T __swsetup
a0016da8 T __udivdi3
a0015c0c T __udivsi3
a001455c T __ulp
00000000 A __use_no_semihosting_swi
a0015958 T _calloc_r
a0012de8 T _cleanup
a0012dd0 T _cleanup_r
a001b9cc T _close
a00159f8 T _close_r
a0011610 T _dtoa_r
a001b9cc T _exit
a0015a34 T _fclose_r
a0013024 T _free_r
a001b9cc T _fstat
a0015b44 T _fstat_r
a00137ac T _fwalk
a0013720 T _fwalk_reent
a001b9cc T _getpid
a0018af8 T _getpid_r
a0019924 T _global_impure_ptr
a001bc50 D _impure_ptr
a001891c T _init_signal
a00188c4 T _init_signal_r
a001b9cc T _kill
a0018b08 T _kill_r
a0013844 T _localeconv_r
a001b9cc T _lseek
a0015b84 T _lseek_r
a0013a58 T _malloc_r
a0012f28 T _malloc_trim_r
a00146fc T _mprec_log10
a00189c4 T _raise_r
a001b9cc T _read
a0015bc8 T _read_r
a001512c T _realloc_r
a001b9cc T _sbrk
a0015754 T _sbrk_r
a0013860 T _setlocale_r
a0018a84 T _signal_r
         U _start
a000ea04 T _vfprintf_r
a000e8d0 T _vsnprintf_r
a0010cbc T _wcrtomb_r
a0010d34 T _wcsrtombs_r
a0010ebc T _wctomb_r
a001b9cc T _write
a0015914 T _write_r
a00188b4 T abort
a001992a t blanks.3531
a0019524 t c_CRCTable
a00199e0 t charset
a000a174 T debug_printf
a0025d4c B errno
a0015b30 T fclose
a0012ad0 T fflush
a0025bd4 B g_AT49BV642DT_16_BS
a001bbe4 D g_AT49BV642DT_16_BS_Config
a0019348 t g_AT49BV642DT_16_BlkRegion
a001935c t g_AT49BV642DT_16_BlockRange
a001bbc8 D g_AT49BV642DT_16_DeviceInfo
a001bc18 D g_AT49BV_16_BS_DeviceTable
a0021e9c b g_Boot_RAMConstants_CRC
a001b0c0 T g_ConfigurationSector
a001c704 B g_Event_Callback
a001c708 B g_Event_Callback_Arg
a001c710 B g_Events_BoolTimerCompletion
a001bb5c D g_GPIO_BUTTON_Config
a001c738 B g_GPIO_BUTTON_Driver
a0025bac B g_HAL_Completion_List
a0025bb8 B g_HAL_Continuation_List
a0025bc4 B g_I2C_Driver
a001c948 B g_LPC24XX_GPIO_Driver
a001f3d0 B g_LPC24XX_PINSEL_Driver
a0021e68 B g_LPC24XX_TIMER_Driver
a0021e58 B g_LPC24XX_TIME_Driver
a001c4c4 B g_SREC
a001c480 B g_State
a0025be8 B g_TimeDriver
a001c5d4 B g_XREC
a0017928 t get_eit_entry
a001bc58 d impure_data
a001b9cc T isatty
a0009ef8 T lcd_printf
a00199e4 t lconv
a0013850 T localeconv
a000008c t loop
a00141dc T memchr
a000e6b8 T memcpy
a00142f0 T memmove
a000e75c T memset
a0018384 t next_unwind_byte
a0019ae8 t p05.2718
a0000890 T platform_prestackinit
a0000e18 T private_free
a0000e00 T private_malloc
a00113f0 t quorem
a0018a70 T raise
a00181f8 T restore_core_regs
a0017cbc t restore_non_core_regs
a00173e8 t search_EIT_table
a00173cc t selfrel_offset31
a00138c0 T setlocale
a0018adc T signal
a0012c88 t std
a000e7e8 T strcmp
a00158ac T strlen
a0018420 t unwind_UCB_from_context
a0017bf8 t unwind_phase2
a0017a74 t unwind_phase2_forced
a0010c90 T vfprintf
a000e948 T vsnprintf
a0010d08 T wcrtomb
a0010e78 T wcsrtombs
a001993a t zeroes.3532
a000d334 T ABORTD_Handler
a000c7ec t ABORTD_Handler_Ptr
a000c7ac T ABORTD_SubHandler
a0000028 t ABORTD_SubHandler_Trampoline
a000d3e8 T ABORTP_Handler
a000c7a8 t ABORTP_Handler_Ptr
a000c768 T ABORTP_SubHandler
a0000024 t ABORTP_SubHandler_Trampoline
a0025bf8 B ABORT_recursion_counter
a0000000 T ARM_Vectors
00000000 a BUILD_RTM
00000000 a BUILD_RTM
00000000 a BUILD_RTM
00000000 a BUILD_RTM
a000a4bc T BootEntry
a00000a0 t BootEntryPointer
00000001 a COMPILE_ARM
00000001 a COMPILE_ARM
00000001 a COMPILE_ARM
00000001 a COMPILE_ARM
a0000074 t ClearZI_ER_RAM
a0000000 T EntryPoint
00000001 a HAL_REDUCESIZE
00000001 a HAL_REDUCESIZE
00000001 a HAL_REDUCESIZE
a0007608 T HAL_Time_CurrentTicks
a000c7f0 T HARD_Breakpoint
a000d268 T HARD_Breakpoint_Handler
a000c814 t HARD_Breakpoint_Handler_Ptr
a0018eb4 T HalName
a001bbf0 D HalSystemConfig
a0025af0 B Hal_Usart_State
a0100000 R HeapBegin
a0200000 R HeapEnd
a0019f0c T IDelayLoop
a0019f18 T IDelayLoop2
a0019f0c t IDelayLoop__Fi_b
a0009574 T IRQ_Handler
a0019eec T IRQ_LOCK_Disable_asm
a0019ebc T IRQ_LOCK_ForceDisabled_asm
a0019ed4 T IRQ_LOCK_ForceEnabled_asm
a0019eac T IRQ_LOCK_GetState_asm
a0019e98 T IRQ_LOCK_Probe_asm
a0019e88 T IRQ_LOCK_Release_asm
a0019efc T IRQ_LOCK_Restore_asm
a000002c T IRQ_SubHandler_Trampoline
40000000 N Image$$ER_IRAM$$Base
00000000 A Image$$ER_IRAM$$Length
40000040 N Image$$ER_IRAM_TC$$Base
00000000 A Image$$ER_IRAM_TC$$Length
0001ba20 A Image$$ER_RAM$$Length
a0000000 T Image$$ER_RAM_RO$$Base
0001ba20 A Image$$ER_RAM_RO$$Length
a001ba20 D Image$$ER_RAM_RW$$Base
00000aa8 A Image$$ER_RAM_RW$$Length
a001c4d0 B Image$$ER_RAM_RW$$ZI$$Base
000098d0 A Image$$ER_RAM_RW$$ZI$$Length
a0021ed4 B LOAD_IMAGE_CalcCRC
a0021ed0 B LOAD_IMAGE_Length
a0021ecc B LOAD_IMAGE_Start
40000000 A Load$$ER_IRAM$$Base
40000040 A Load$$ER_IRAM_TC$$Base
a0000000 T Load$$ER_RAM$$Base
a0000000 A Load$$ER_RAM_RO$$Base
a001ba20 A Load$$ER_RAM_RW$$Base
a0021ec8 b LoggingCallback
a0000080 t NoClearZI_ER_RAM
00000001 a PLATFORM_ARM_LPC24XX
00000001 a PLATFORM_ARM_LPC24XX
00000001 a PLATFORM_ARM_LPC24XX
00000001 a PLATFORM_ARM_LPC24XX
00000001 a PLATFORM_ARM_plak1a_LPC2478
00000001 a PLATFORM_ARM_plak1a_LPC2478
00000001 a PLATFORM_ARM_plak1a_LPC2478
00000001 a PLATFORM_ARM_plak1a_LPC2478
000000d7 a PSR_MODE_ABORT
000000d7 a PSR_MODE_ABORT
000000d1 a PSR_MODE_FIQ
000000d1 a PSR_MODE_FIQ
000000d2 a PSR_MODE_IRQ
000000d2 a PSR_MODE_IRQ
000000d3 a PSR_MODE_SUPERVISOR
000000d3 a PSR_MODE_SUPERVISOR
000000df a PSR_MODE_SYSTEM
000000df a PSR_MODE_SYSTEM
000000db a PSR_MODE_UNDEF
000000db a PSR_MODE_UNDEF
000000d0 a PSR_MODE_USER
000000d0 a PSR_MODE_USER
a0022af0 B RxBuffer_Com
00000010 a STACK_MODE_ABORT
00000800 a STACK_MODE_IRQ
00000010 a STACK_MODE_UNDEF
a02ffff8 R StackBottom
a0300000 R StackTop
a001c750 B SystemEvents
a0009e60 T SystemState_ClearNoLock
a0009dd4 T SystemState_QueryNoLock
a0009ed4 T SystemState_SetNoLock
a0021ed8 B SystemStates
00000001 a TARGETLOCATION_RAM
00000001 a TARGETLOCATION_RAM
00000001 a TARGETLOCATION_RAM
00000001 a TARGETLOCATION_RAM
a0007634 T Time_CurrentTicks
a0021ef0 B TxBuffer_Com
a000d49c T UNDEF_Handler
a000c764 t UNDEF_Handler_Ptr
a000c724 T UNDEF_SubHandler
a0000020 t UNDEF_SubHandler_Trampoline
a0019064 T UsbDefaultConfiguration
a0000030 t VectorAreaSkip
a00148b4 T _Balloc
a001443c T _Bfree
a00174dc T _Unwind_Complete
a00174e0 T _Unwind_DeleteException
a00183b0 T _Unwind_ForcedUnwind
a00174d4 T _Unwind_GetCFA
a0018438 T _Unwind_GetDataRelBase
a0018440 t _Unwind_GetGR
a0017370 t _Unwind_GetGR
a0018478 T _Unwind_GetLanguageSpecificData
a001849c T _Unwind_GetRegionStart
a0018430 T _Unwind_GetTextRelBase
a0018344 T _Unwind_RaiseException
a0018368 T _Unwind_Resume
a001838c T _Unwind_Resume_or_Rethrow
a00173ec t _Unwind_SetGR
a0017324 T _Unwind_VRS_Get
a0017e6c T _Unwind_VRS_Pop
a00173a0 T _Unwind_VRS_Set
a0017310 t _Unwind_decode_target2
a0005744 T _Z10Events_Getj
a00057d0 T _Z10Events_Setj
a000be8c T _Z10USART_ReadiPcj
a0009d04 T _Z10hal_printfPKcz
a000baec T _Z11USART_Flushi
a000c324 T _Z11USART_WriteiPKcj
a0009c60 T _Z11hal_fprintfiPKcz
a0009cb8 T _Z11hal_vprintfPKcPv
a00056d8 T _Z12Events_Clearj
a000959c T _Z12HAL_AssertExv
a000e288 T _Z12HeapLocationRPhRj
a0009d54 t _Z12InitCRuntimev
a000c870 T _Z12RegisterDumpv
a0009a20 T _Z12SOCKETS_ReadiPcj
a000c6f0 T _Z12USB_GetEventij
a0009adc T _Z12hal_vfprintfiPKcPv
a000e264 T _Z13FS_AddVolumesv
a000e268 T _Z13FS_Initializev
a0009a40 T _Z13SOCKETS_Flushi
a0009a00 T _Z13SOCKETS_WriteiPKcj
a000c62c T _Z13USB_ConfigureiPK25USB_DYNAMIC_CONFIGURATION
a000c70c T _Z13USB_GetStatusi
a0009a90 T _Z13hal_vsnprintfPcjPKcPv
a0009730 T _Z14CPU_Initializev
a000a2e0 T _Z14HAL_Initializev
a000e388 T _Z14I2C_Initializev
a000e3ac T _Z14Ink_Initializev
a000586c T _Z14LCD_Initializev
a0000e64 T _Z14SignalActivityv
a000c614 T _Z14USB_Initializei
a000c660 T _Z14USB_OpenStreamiii
a00001c0 T _Z15Bootstrap_Delayi
a0007400 T _Z15CPU_TicksToTimey
a000e50c T _Z15Time_Initializev
a000c680 T _Z15USB_CloseStreami
a0005878 T _Z16LCD_Uninitializev
a000e4bc T _Z16Piezo_Initializev
a0001a70 T _Z16StartApplicationPFvvE
a000c5b8 T _Z16USART_Initializeiiiiii
a000c648 T _Z16USB_Uninitializei
a000e484 T _Z16Watchdog_Disablev
a0009a58 T _Z17CPU_DisableCachesv
a0004ea8 T _Z17DebuggerPort_ReadiPcj
a00053a4 T _Z17Events_Initializev
a0005354 T _Z17Events_MaskedReadj
a0000868 T _Z17Initialize_SyncOnv
a000e258 T _Z18Battery_Initializev
a0000724 T _Z18BootstrapCode_Pinsv
a000602c T _Z18Buttons_Initializev
a000e424 T _Z18CPU_SPI_Initializev
a00073ec T _Z18CPU_TicksPerSecondv
a000e24c T _Z18Charger_Initializev
a000e4c0 T _Z18CustomHeapLocationRPhRj
a0004dc8 T _Z18DebuggerPort_Flushi
a0004fa4 T _Z18DebuggerPort_WriteiPKcj
a000e27c T _Z18Gesture_Initializev
a00099dc T _Z18Network_Initializev
a00099e8 T _Z18SOCKETS_Initializei
a000e678 T _Z18SUPPORT_ComputeCRCPKvij
a00000b4 T _Z19BootstrapCode_Dummyv
a0006c6c T _Z19CPU_GPIO_DisablePinj13GPIO_RESISTORj13GPIO_ALT_MODE
a00072cc T _Z19CPU_GPIO_Initializev
a0009170 T _Z19CPU_INTC_Initializev
a0009a74 T _Z19CPU_USB_ProtectPinsij
a0007d7c T _Z19HAL_Time_Initializev
a0007c28 T _Z19HAL_Time_SetComparey
a000e4b0 T _Z19PalEvent_Initializev
a0009f90 T _Z19Verify_RAMConstantsPv
a000c90c T _Z20ABORT_HandlerDisplayPjjjjPKcj
a000e240 T _Z20BackLight_Initializev
a00003a8 T _Z20BootstrapCode_Clocksv
a0006880 T _Z20CPU_GPIO_GetPinStatej
a000679c T _Z20CPU_GPIO_SetPinStatejj
a0008fd0 T _Z20CPU_USART_Initializeiiiiii
a0000ee4 W _Z20Events_WaitForEventsjj
a000542c T _Z20Events_WaitForEventsjjj
a000a27c W _Z20HAL_Init_Custom_Heapv
a00075dc T _Z20HAL_Time_CurrentTimev
a000c874 T _Z20monitor_debug_printfPKcz
a00025f4 T _Z21ApplicationEntryPointv
a00089bc T _Z21CPU_USART_ProtectPinsij
a0009d58 T _Z21Checksum_RAMConstantsv
a0000e28 T _Z21PortBooterLoadProgramPPv
a000e4ec T _Z21SimpleHeap_InitializePvj
a0000668 T _Z22BootstrapCode_Ext_SRAMv
a0005bac T _Z22Buttons_CurrentHWStatev
a0005888 T _Z22LCD_WriteFormattedCharh
a000e538 T _Z22TimeService_Initializev
a000c818 T _Z22Watchdog_GetSetEnabledjj
a000c834 T _Z22Watchdog_GetSetTimeoutij
a000e19c T _Z23BlockStorage_AddDevicesv
a000066c T _Z23BootstrapCode_Ext_Flashv
a0000984 T _Z23BootstrapCode_Ext_SDRAMv
a00070dc T _Z23CPU_GPIO_EnableInputPinjjPFvjjPvE13GPIO_INT_EDGE13GPIO_RESISTOR
a0019ce4 T _Z23CPU_MicrosecondsToTicksj
a0019c98 T _Z23CPU_MicrosecondsToTicksy
a0007424 T _Z23CPU_MillisecondsToTicksj
a00084c0 T _Z23CPU_USART_TxBufferEmptyi
a00051b8 T _Z23DebuggerPort_Initializei
a000e500 T _Z23I2C_Internal_Initializev
a000b560 T _Z23USART_AddCharToRxBufferic
a000c850 T _Z23Watchdog_GetSetBehavior17Watchdog_Behaviorj
a0005934 T _Z24Buttons_HW_To_Hal_Buttonj
a000e57c T _Z24CPU_EBIU_Memory_ReadOnlyRK17CPU_MEMORY_CONFIGj
a0006a78 T _Z24CPU_GPIO_EnableOutputPinjj
a0009a5c T _Z24CPU_GetUncachableAddressj
a00000b8 T _Z24PrepareImageRegions_IRAMv
a0005c88 T _Z26Buttons_GetNextStateChangeRjS_
a000e56c T _Z26CPU_EBIU_ConfigMemoryBlockRK17CPU_MEMORY_CONFIG
a000944c T _Z26CPU_INTC_ActivateInterruptjPFvPvES_
a0005e40 T _Z27Buttons_RegisterStateChangejj
a0004c60 T _Z27CPU_InitializeCommunicationv
a00073a4 T _Z27HAL_Time_GetDriftParametersPiS_Px
a0007660 T _Z27HAL_Time_Sleep_MicroSecondsj
a000013c T _Z27PrepareImageRegions_IRAM_TCv
a000b208 T _Z28USART_RemoveCharFromTxBufferiRc
a00092e0 T _Z29CPU_INTC_InterruptEnableStatej
a0004bc4 T _Z29CPU_ProtectCommunicationGPIOsj
a0008484 T _Z29CPU_USART_WriteCharToTxBufferih
a00082ec T _Z30CPU_USART_TxShiftRegisterEmptyi
a000805c T _Z33CPU_USART_TxHandshakeEnabledStatei
a00085d4 T _Z37CPU_USART_RxBufferFullInterruptEnableij
a000820c T _Z37CPU_USART_TxBufferEmptyInterruptStatei
a00089f0 T _Z38CPU_USART_TxBufferEmptyInterruptEnableij
a000749c T _Z44HAL_Time_Sleep_MicroSeconds_InterruptEnabledj
a00008ac T _Z7delayMsjj
a00096c0 T _Z8CPU_Haltv
a00002bc T _Z8GetFpclkj
a00001dc T _Z8GetFsclkv
a000c6b8 T _Z8USB_ReadiPcj
a00095d4 T _Z9CPU_Sleep11SLEEP_LEVELy
a0005884 T _Z9LCD_Clearv
a000c6d8 T _Z9USB_Flushi
a000c698 T _Z9USB_WriteiPKcj
a000e2c8 T _ZN10I2C_Driver10InitializeEv
a000e598 T _ZN10TimeDriver10InitializeEv
a0025c60 B _ZN10TimeDriver13m_initializedE
a00072f0 W _ZN11LPC24XX_VIC14ForceInterruptEj
a0009240 W _ZN11LPC24XX_VIC18IsInterruptEnabledEj
a00090a8 W _ZN11LPC24XX_VIC21RemoveForcedInterruptEj
a000902c W _ZN12HAL_CALLBACK10InitializeEPFvPvES0_
a00011c4 W _ZN12SREC_Handler4htoiEPKcjRj
a0001bb4 W _ZN12SREC_Handler7ProcessEc
a0001364 W _ZN12SREC_Handler9ParseLineEPKc
a0009754 T _ZN12SmartPtr_IRQ11WasDisabledEv
a00098b8 T _ZN12SmartPtr_IRQ12ForceEnabledEPv
a00098e8 T _ZN12SmartPtr_IRQ13ForceDisabledEPv
a0009948 T _ZN12SmartPtr_IRQ5ProbeEv
a000982c T _ZN12SmartPtr_IRQ7AcquireEv
a00097f8 T _ZN12SmartPtr_IRQ7DisableEv
a000998c T _ZN12SmartPtr_IRQ7ReleaseEv
a0009780 T _ZN12SmartPtr_IRQ7RestoreEv
a0009918 T _ZN12SmartPtr_IRQ8GetStateEPv
a0009874 T _ZN12SmartPtr_IRQC1EPv
a00097c4 T _ZN12SmartPtr_IRQD1Ev
a000c368 T _ZN12USART_Driver10InitializeEiiiiii
a000b244 T _ZN12USART_Driver17AddCharToRxBufferEic
a000b06c T _ZN12USART_Driver22RemoveCharFromTxBufferEiRc
a000bb20 T _ZN12USART_Driver4ReadEiPcj
a000b5a4 T _ZN12USART_Driver5FlushEi
a000bed0 T _ZN12USART_Driver5WriteEiPKcj
a000ae48 T _ZN12USART_Driver7SendXONEij
a000af5c T _ZN12USART_Driver8SendXOFFEij
a000ad1c T _ZN12USART_Driver8SetEventEij
a0001e34 W _ZN12XREC_Handler7ProcessEh
a0007324 W _ZN13LPC24XX_TIMER8getIntNoEi
a0007f90 W _ZN13LPC24XX_USART8getIntNoEi
a000dfc4 T _ZN14HAL_COMPLETION14DequeueAndExecEv
a000d7e8 T _ZN14HAL_COMPLETION14InitializeListEv
a00053e0 W _ZN14HAL_COMPLETION16InitializeForISREPFvPvES0_
a000ddd4 T _ZN14HAL_COMPLETION17WaitForInterruptsEyjy
a000dcb0 T _ZN14HAL_COMPLETION5AbortEv
a000dc00 T _ZN14HAL_COMPLETION7ExecuteEv
a00096dc T _ZN14LPC24XX_Driver10InitializeEv
a0009658 T _ZN14LPC24XX_Driver4HaltEv
a0009590 T _ZN14LPC24XX_Driver5PauseEv
a0009594 T _ZN14LPC24XX_Driver5SleepEv
a00095ac T _ZN14LPC24XX_Driver8ShutdownEv
a0009598 T _ZN14LPC24XX_Driver9HibernateEv
a0003a2c T _ZN16BlockStorageList10InitializeEv
a001c73c B _ZN16BlockStorageList12s_deviceListE
a001c74c B _ZN16BlockStorageList13s_InitializedE
a0003918 T _ZN16BlockStorageList14GetFirstDeviceEv
a001c748 B _ZN16BlockStorageList15s_primaryDeviceE
a00049fc T _ZN16BlockStorageList17InitializeDevicesEv
a0003674 T _ZN16BlockStorageList28FindDeviceForPhysicalAddressEPP18BlockStorageDevicejRj
a0004900 T _ZN16BlockStorageList9AddDeviceEP18BlockStorageDeviceP19IBlockStorageDevicePvj
a000e1f8 T _ZN16HAL_CONFIG_BLOCK11ApplyConfigEPKcPvj
a000e1d4 T _ZN16HAL_CONFIG_BLOCK11ApplyConfigEPKcPvjPS2_
a000d7c4 T _ZN16HAL_CONTINUATION14InitializeListEv
a000d684 T _ZN16HAL_CONTINUATION18InitializeCallbackEPFvPvES0_
a000db10 T _ZN16HAL_CONTINUATION19Dequeue_And_ExecuteEv
a000da7c T _ZN16HAL_CONTINUATION7EnqueueEv
a000d760 W _ZN17HAL_DblLinkedListI16HAL_CONTINUATIONE10InitializeEv
a000d968 W _ZN17HAL_DblLinkedListI16HAL_CONTINUATIONE10LinkAtBackEPS0_
a000da1c W _ZN17HAL_DblLinkedListI16HAL_CONTINUATIONE16ExtractFirstNodeEv
a000d8cc W _ZN17HAL_DblLinkedListI16HAL_CONTINUATIONE16InsertBeforeNodeEPS0_S2_
a000d864 W _ZN17HAL_DblLinkedListI16HAL_CONTINUATIONE6InsertEPS0_S2_S2_
a00039c8 W _ZN17HAL_DblLinkedListI18BlockStorageDeviceE10InitializeEv
a0003bb0 W _ZN17HAL_DblLinkedListI18BlockStorageDeviceE10LinkAtBackEPS0_
a0003b14 W _ZN17HAL_DblLinkedListI18BlockStorageDeviceE16InsertBeforeNodeEPS0_S2_
a0003ac8 W _ZN17HAL_DblLinkedListI18BlockStorageDeviceE6InsertEPS0_S2_S2_
a000537c W _ZN17HAL_DblLinkedNodeI16HAL_CONTINUATIONE10InitializeEv
a000d80c W _ZN17HAL_DblLinkedNodeI16HAL_CONTINUATIONE14RemoveFromListEv
a000d614 W _ZN17HAL_DblLinkedNodeI16HAL_CONTINUATIONE6UnlinkEv
a000388c W _ZN17HAL_DblLinkedNodeI18BlockStorageDeviceE10InitializeEv
a0003a70 W _ZN17HAL_DblLinkedNodeI18BlockStorageDeviceE14RemoveFromListEv
a0000cc8 W _ZN18BlockStorageDevice13GetDeviceInfoEv
a0000d68 W _ZN18BlockStorageDevice13IsBlockErasedEjj
a0003148 W _ZN18BlockStorageDevice16InitializeDeviceEv
a000355c W _ZN18BlockStorageDevice17FindForBlockUsageEjRjS0_S0_
a00035cc W _ZN18BlockStorageDevice18FindNextUsageBlockEjRjS0_S0_
a00012fc W _ZN18BlockStorageDevice21FindRegionFromAddressEjRjS0_
a0003188 W _ZN18BlockStorageDevice4ReadEjjPh
a0000d08 W _ZN18BlockStorageDevice5WriteEjjPhj
a00048c0 T _ZN18BlockStorageStream10InitializeEj
a0004788 T _ZN18BlockStorageStream10InitializeEjP18BlockStorageDevice
a0003c00 T _ZN18BlockStorageStream10NextStreamEv
a0004210 T _ZN18BlockStorageStream10PrevStreamEv
a00031e0 T _ZN18BlockStorageStream14CurrentAddressEv
a0003fa4 T _ZN18BlockStorageStream4ReadEPPhj
a0004578 T _ZN18BlockStorageStream4SeekEiNS_10SeekOriginE
a000589c W _ZN18GPIO_BUTTON_CONFIG13GetDriverNameEv
a0005ef4 T _ZN18GPIO_BUTTON_Driver10InitializeEv
a0005aec T _ZN18GPIO_BUTTON_Driver14CurrentHWStateEv
a00058ac T _ZN18GPIO_BUTTON_Driver16HW_To_Hal_ButtonEj
a0005bd0 T _ZN18GPIO_BUTTON_Driver18GetNextStateChangeERjS0_
a0005cc4 T _ZN18GPIO_BUTTON_Driver19RegisterStateChangeEjj
a0005e7c T _ZN18GPIO_BUTTON_Driver3ISREjjPv
a000e3b8 T _ZN18LPC24XX_SPI_Driver10InitializeEv
a00090dc T _ZN18LPC24XX_VIC_Driver10InitializeEv
a001ba20 D _ZN18LPC24XX_VIC_Driver10s_IsrTableE
a0009494 T _ZN18LPC24XX_VIC_Driver11IRQ_HandlerEv
a000918c T _ZN18LPC24XX_VIC_Driver14IRQToIRQVectorEj
a00091f8 T _ZN18LPC24XX_VIC_Driver14STUB_ISRVectorEPv
a0009314 T _ZN18LPC24XX_VIC_Driver17ActivateInterruptEjjPFvPvES0_
a0009290 T _ZN18LPC24XX_VIC_Driver20InterruptEnableStateEj
a001a99c T _ZN19AT49BV_16_BS_Driver10EraseBlockEPvj
a001a5f4 T _ZN19AT49BV_16_BS_Driver12ChipReadOnlyEPvjj
a001a2fc T _ZN19AT49BV_16_BS_Driver13Action_ReadIDEPvRjS1_
a0019f3c T _ZN19AT49BV_16_BS_Driver13GetDeviceInfoEPv
a001a42c T _ZN19AT49BV_16_BS_Driver13IsBlockErasedEPvjj
a001af54 T _ZN19AT49BV_16_BS_Driver13ReadProductIDEPvRjS1_
a0019f98 T _ZN19AT49BV_16_BS_Driver13SetPowerStateEPvj
a001afb0 T _ZN19AT49BV_16_BS_Driver14ChipInitializeEPv
a0019ffc T _ZN19AT49BV_16_BS_Driver16Action_UnprotectEPvPVt
a001a010 T _ZN19AT49BV_16_BS_Driver16Action_WriteWordEPvPVtt
a0019f24 T _ZN19AT49BV_16_BS_Driver16ChipUnInitializeEPv
a0019f58 T _ZN19AT49BV_16_BS_Driver17GetSectorMetadataEPvjP14SectorMetadata
a0019f78 T _ZN19AT49BV_16_BS_Driver17SetSectorMetadataEPvjP14SectorMetadata
a001a178 T _ZN19AT49BV_16_BS_Driver18Action_EraseSectorEPvPVt
a0019fd4 T _ZN19AT49BV_16_BS_Driver18MaxBlockErase_uSecEPv
a0019fac T _ZN19AT49BV_16_BS_Driver19MaxSectorWrite_uSecEPv
a001a4e8 T _ZN19AT49BV_16_BS_Driver4ReadEPvjjPh
a001aad8 T _ZN19AT49BV_16_BS_Driver5WriteEPvjjPhj
a001a918 T _ZN19AT49BV_16_BS_Driver6MemsetEPvjhj
a001a710 T _ZN19AT49BV_16_BS_Driver6WriteXEPvjjPhjj
a0005968 W _ZN19Hal_Queue_KnownSizeIN18GPIO_BUTTON_Driver19BUTTON_STATE_CHANGEELj64EE10InitializeEv
a0005a44 W _ZN19Hal_Queue_KnownSizeIN18GPIO_BUTTON_Driver19BUTTON_STATE_CHANGEELj64EE3PopEv
a000599c W _ZN19Hal_Queue_KnownSizeIN18GPIO_BUTTON_Driver19BUTTON_STATE_CHANGEELj64EE4PushEv
a0006b30 T _ZN19LPC24XX_GPIO_Driver10DisablePinEj13GPIO_RESISTORj13GPIO_ALT_MODE
a0007138 T _ZN19LPC24XX_GPIO_Driver10InitializeEv
a00067d0 T _ZN19LPC24XX_GPIO_Driver11GetPinStateEj
a0006aac W _ZN19LPC24XX_GPIO_Driver11PinToPCBRegEj
a0006640 T _ZN19LPC24XX_GPIO_Driver11SetPinStateEjj
a0006cc4 T _ZN19LPC24XX_GPIO_Driver14EnableInputPinEjjPFvjjPvES0_13GPIO_INT_EDGE13GPIO_RESISTOR
a0006aec W _ZN19LPC24XX_GPIO_Driver14PinToPCBRegBitEj
a0006580 T _ZN19LPC24XX_GPIO_Driver14STUB_ISRVectorEjjPv
a00068b4 T _ZN19LPC24XX_GPIO_Driver15EnableOutputPinEjj
a0006094 T _ZN19LPC24XX_GPIO_Driver18PIN_ISR_DESCRIPTOR4FireEPv
a00060ec T _ZN19LPC24XX_GPIO_Driver8GPIO_ISREPv
a0006600 W _ZN19LPC24XX_GPIO_Driver8PinToBitEj
a00065c0 W _ZN19LPC24XX_GPIO_Driver9PinToPortEj
a0007cbc T _ZN19LPC24XX_TIME_Driver10InitializeEv
a0019d54 T _ZN19LPC24XX_TIME_Driver10Sleep_uSecEj
a0007580 T _ZN19LPC24XX_TIME_Driver11CurrentTimeEv
a00074c8 T _ZN19LPC24XX_TIME_Driver12CounterValueEv
a00078f0 T _ZN19LPC24XX_TIME_Driver15SetCompareValueEy
a0019d08 T _ZN19LPC24XX_TIME_Driver15Sleep_uSec_LoopEj
a0007b24 T _ZN19LPC24XX_TIME_Driver3ISREPv
a000e26c T _ZN20FileSystemVolumeList10InitializeEv
a000e270 T _ZN20FileSystemVolumeList17InitializeVolumesEv
a0007da0 T _ZN20LPC24XX_TIMER_Driver10InitializeEjPFvPvES0_
a0007810 W _ZN20LPC24XX_TIMER_Driver10SetCompareEjj
a0019e28 T _ZN20LPC24XX_TIMER_Driver11ReadCounterEj
a0007748 W _ZN20LPC24XX_TIMER_Driver13DidCompareHitEj
a0007874 W _ZN20LPC24XX_TIMER_Driver14ForceInterruptEj
a00077b0 W _ZN20LPC24XX_TIMER_Driver15ResetCompareHitEj
a0007c54 W _ZN20LPC24XX_TIMER_Driver22EnableCompareInterruptEj
a0008c30 T _ZN20LPC24XX_USART_Driver10InitializeEiiiiii
a0008784 T _ZN20LPC24XX_USART_Driver11ProtectPinsEij
a0008320 T _ZN20LPC24XX_USART_Driver13TxBufferEmptyEi
a0008000 T _ZN20LPC24XX_USART_Driver14IsValidPortNumEi
a0008a24 T _ZN20LPC24XX_USART_Driver15UART_IntHandlerEPv
a00083cc T _ZN20LPC24XX_USART_Driver19WriteCharToTxBufferEih
a0008240 T _ZN20LPC24XX_USART_Driver20TxShiftRegisterEmptyEi
a0008044 T _ZN20LPC24XX_USART_Driver23TxHandshakeEnabledStateEi
a00084f4 T _ZN20LPC24XX_USART_Driver27RxBufferFullInterruptEnableEij
a000814c T _ZN20LPC24XX_USART_Driver27TxBufferEmptyInterruptStateEi
a0008608 T _ZN20LPC24XX_USART_Driver28TxBufferEmptyInterruptEnableEij
a000a848 W _ZN21Hal_Queue_UnknownSizeIhE10InitializeEPhj
a000ab88 W _ZN21Hal_Queue_UnknownSizeIhE16NumberOfElementsEv
a000aa00 W _ZN21Hal_Queue_UnknownSizeIhE3PopERj
a000a798 W _ZN21Hal_Queue_UnknownSizeIhE3PopEv
a000a89c W _ZN21Hal_Queue_UnknownSizeIhE4PushERj
a000ac6c W _ZN21Hal_Queue_UnknownSizeIhE4PushEv
a000ac18 W _ZN21Hal_Queue_UnknownSizeIhE7IsEmptyEv
a000e454 T _ZN23LPC24XX_WATCHDOG_Driver7DisableEv
a0000f24 W _ZN5State10InitializeEv
a000e4a0 W _ZN7LPC24XX3EMCEv
a0006074 W _ZN7LPC24XX3PCBEv
a0007394 W _ZN7LPC24XX3VICEv
a0006050 W _ZN7LPC24XX4GPIOEv
a0008090 W _ZN7LPC24XX4UARTEi
a000e448 W _ZN7LPC24XX4WTDGEv
a000768c W _ZN7LPC24XX5TIMEREi
a0006084 W _ZN7LPC24XX6SYSCONEv
a0006060 W _ZN7LPC24XX7GPIOIRQEv
a00030c8 W _ZNK10BlockRange13GetBlockCountEv
a00030f4 W _ZNK10BlockRange13GetBlockUsageEv
a000d550 W _ZNK12HAL_CALLBACK13GetEntryPointEv
a000905c W _ZNK12HAL_CALLBACK7ExecuteEv
a00034e4 T _ZNK15BlockDeviceInfo17FindForBlockUsageEjRjS0_S0_
a000338c T _ZNK15BlockDeviceInfo18FindNextUsageBlockEjRjS0_S0_
a0003208 T _ZNK15BlockDeviceInfo21FindRegionFromAddressEjRjS0_
a0003114 W _ZNK15BlockRegionInfo12BlockAddressEj
a000e544 W _ZNK15BlockRegionInfo4SizeEv
a000d56c W _ZNK16HAL_CONTINUATION13GetEntryPointEv
a000d5a8 W _ZNK16HAL_CONTINUATION7ExecuteEv
a000d9b8 W _ZNK17HAL_DblLinkedListI16HAL_CONTINUATIONE14FirstValidNodeEv
a000d748 W _ZNK17HAL_DblLinkedListI16HAL_CONTINUATIONE4HeadEv
a000d6e0 W _ZNK17HAL_DblLinkedListI16HAL_CONTINUATIONE4TailEv
a000d700 W _ZNK17HAL_DblLinkedListI16HAL_CONTINUATIONE7IsEmptyEv
a000d5dc W _ZNK17HAL_DblLinkedListI16HAL_CONTINUATIONE9FirstNodeEv
a00038b4 W _ZNK17HAL_DblLinkedListI18BlockStorageDeviceE14FirstValidNodeEv
a00039b0 W _ZNK17HAL_DblLinkedListI18BlockStorageDeviceE4HeadEv
a0003990 W _ZNK17HAL_DblLinkedListI18BlockStorageDeviceE4TailEv
a000363c W _ZNK17HAL_DblLinkedListI18BlockStorageDeviceE9FirstNodeEv
a000d5f8 W _ZNK17HAL_DblLinkedNodeI16HAL_CONTINUATIONE4NextEv
a000d8b0 W _ZNK17HAL_DblLinkedNodeI16HAL_CONTINUATIONE4PrevEv
a0003658 W _ZNK17HAL_DblLinkedNodeI18BlockStorageDeviceE4NextEv
a0003974 W _ZNK17HAL_DblLinkedNodeI18BlockStorageDeviceE4PrevEv
a0000db8 W _ZNK18BlockStorageDevice10EraseBlockEj
a0025c64 b _ZZN10TimeDriver16DateTimeToStringERKxE8rgBuffer
a0025ce4 b _ZZN10TimeDriver16TimeSpanToStringERKxE8rgBuffer
a001bbec d _ZZN20LPC24XX_USART_Driver11ProtectPinsEijE18COM1_PinsProtected
a001bbe8 d _ZZN20LPC24XX_USART_Driver11ProtectPinsEijE18COM2_PinsProtected
a001bbe4 d _ZZN20LPC24XX_USART_Driver11ProtectPinsEijE18COM3_PinsProtected
a001bbe0 d _ZZN20LPC24XX_USART_Driver11ProtectPinsEijE18COM4_PinsProtected
a00183b0 T ___Unwind_ForcedUnwind
a0018344 T ___Unwind_RaiseException
a0018368 T ___Unwind_Resume
a001838c T ___Unwind_Resume_or_Rethrow
a0015d80 T __adddf3
a00166dc T __aeabi_cdcmpeq
a00166dc T __aeabi_cdcmple
a00166c0 T __aeabi_cdrcmple
a001676c T __aeabi_d2iz
a0015d80 T __aeabi_dadd
a00166f4 T __aeabi_dcmpeq
a001673c T __aeabi_dcmpge
a0016754 T __aeabi_dcmpgt
a0016724 T __aeabi_dcmple
a001670c T __aeabi_dcmplt
a0016420 T __aeabi_ddiv
a0016190 T __aeabi_dmul
a0015d74 T __aeabi_drsub
a0015d7c T __aeabi_dsub
a00160dc T __aeabi_f2d
a00160b4 T __aeabi_i2d
a0015d70 T __aeabi_idiv0
a0016130 T __aeabi_l2d
a0015d70 T __aeabi_ldiv0
a0016090 T __aeabi_ui2d
a0015c5c T __aeabi_uidiv
a0015d58 T __aeabi_uidivmod
a001611c T __aeabi_ul2d
a00167c8 T __aeabi_uldivmod
a0017964 T __aeabi_unwind_cpp_pr0
a0017950 W __aeabi_unwind_cpp_pr1
a001793c W __aeabi_unwind_cpp_pr2
a0014814 T __any_on
a001460c T __b2d
a0019b98 T __clz_tab
a001663c T __cmpdf2
a00147b8 T __copybits
         w __cxa_begin_cleanup
         w __cxa_call_unexpected
         w __cxa_type_match
a0014948 T __d2b
a0015d70 T __div0
a0016420 T __divdf3
a0016874 T __divdi3
a001663c T __eqdf2
a0025d9c B __exidx_end
a0025d9c B __exidx_start
a00160dc T __extendsfdf2
a001676c T __fixdfsi
a0016130 T __floatdidf
a00160b4 T __floatsidf
a001611c T __floatundidf
a0016090 T __floatunsidf
a0012dc8 t __fp_lock
a0012dfc T __fp_lock_all
a0012dd0 t __fp_unlock
a0012dd8 T __fp_unlock_all
a001662c T __gedf2
         w __gnu_Unwind_Find_exidx
a0017c20 T __gnu_Unwind_ForcedUnwind
a0017d90 T __gnu_Unwind_RaiseException
a0018264 T __gnu_Unwind_Restore_VFP
a0018274 T __gnu_Unwind_Restore_VFP_D
a0018284 T __gnu_Unwind_Restore_VFP_D_16_to_31
a001831c T __gnu_Unwind_Restore_WMMXC
a0018294 T __gnu_Unwind_Restore_WMMXD
a0017ca4 T __gnu_Unwind_Resume
a0017e3c T __gnu_Unwind_Resume_or_Rethrow
a001826c T __gnu_Unwind_Save_VFP
a001827c T __gnu_Unwind_Save_VFP_D
a001828c T __gnu_Unwind_Save_VFP_D_16_to_31
a0018330 T __gnu_Unwind_Save_WMMXC
a00182d8 T __gnu_Unwind_Save_WMMXD
a001682c T __gnu_ldivmod_helper
a00167e4 T __gnu_uldivmod_helper
a00184b0 T __gnu_unwind_execute
a00188bc T __gnu_unwind_frame
a0017504 t __gnu_unwind_pr_common
a001662c T __gtdf2
a0014458 T __hi0bits
a0014ea4 T __i2b
a0015738 T __isinfd
a0015774 T __isnand
a001c0ac D __lc_ctype
a0016634 T __ledf2
a00144b0 T __lo0bits
a0013884 T __locale_charset
a0014bc0 T __lshift
a0016634 T __ltdf2
a001c0b8 D __malloc_av_
a0025d6c B __malloc_current_mallinfo
a0014434 T __malloc_lock
a0025d94 B __malloc_max_sbrked_mem
a0025d98 B __malloc_max_total_mem
a001c4c0 D __malloc_sbrk_base
a0025d68 B __malloc_top_pad
a001c4c4 D __malloc_trim_threshold
a0014438 T __malloc_unlock
a001c0a8 D __mb_cur_max
a0014544 T __mcmp
a0014a7c T __mdiff
a0019b48 T __mprec_bigtens
a0019a70 T __mprec_tens
a0019b70 T __mprec_tinytens
a0016190 T __muldf3
a0014ec8 T __multadd
a0014ccc T __multiply
a001663c T __nedf2
a0014fa0 T __pow5mult
a00146c8 T __ratio
a0018248 T __restore_core_regs
a0015098 T __s2b
a00157e4 T __sclose
a0012e48 T __sfmoreglue
a0012e9c T __sfp
a0012d34 T __sfp_lock_acquire
a0012d38 T __sfp_lock_release
a0013334 T __sfvwrite_r
a0018a00 T __sigtramp
a001897c T __sigtramp_r
a0012d44 T __sinit
a0012d3c T __sinit_lock_acquire
a0012d40 T __sinit_lock_release
a001392c T __smakebuf
a000ea1c t __sprint_r
a00158b4 T __sread
a0015804 T __sseek
a0015d7c T __subdf3
a0015850 T __swrite
a001132c T __swsetup
a0016df8 T __udivdi3
a0015c5c T __udivsi3
a00145ac T __ulp
00000000 A __use_no_semihosting_swi
a00159a8 T _calloc_r
a0012e38 T _cleanup
a0012e20 T _cleanup_r
a001ba1c T _close
a0015a48 T _close_r
a0011660 T _dtoa_r
a001ba1c T _exit
a0015a84 T _fclose_r
a0013074 T _free_r
a001ba1c T _fstat
a0015b94 T _fstat_r
a00137fc T _fwalk
a0013770 T _fwalk_reent
a001ba1c T _getpid
a0018b48 T _getpid_r
a0019974 T _global_impure_ptr
a001bca0 D _impure_ptr
a001896c T _init_signal
a0018914 T _init_signal_r
a001ba1c T _kill
a0018b58 T _kill_r
a0013894 T _localeconv_r
a001ba1c T _lseek
a0015bd4 T _lseek_r
a0013aa8 T _malloc_r
a0012f78 T _malloc_trim_r
a001474c T _mprec_log10
a0018a14 T _raise_r
a001ba1c T _read
a0015c18 T _read_r
a001517c T _realloc_r
a001ba1c T _sbrk
a00157a4 T _sbrk_r
a00138b0 T _setlocale_r
a0018ad4 T _signal_r
         U _start
a000ea54 T _vfprintf_r
a000e920 T _vsnprintf_r
a0010d0c T _wcrtomb_r
a0010d84 T _wcsrtombs_r
a0010f0c T _wctomb_r
a001ba1c T _write
a0015964 T _write_r
a0018904 T abort
a001997a t blanks.3531
a0019574 t c_CRCTable
a0019a30 t charset
a000a1c4 T debug_printf
a0025d9c B errno
a0015b80 T fclose
a0012b20 T fflush
a0025c24 B g_AT49BV642DT_16_BS
a001bc34 D g_AT49BV642DT_16_BS_Config
a0019398 t g_AT49BV642DT_16_BlkRegion
a00193ac t g_AT49BV642DT_16_BlockRange
a001bc18 D g_AT49BV642DT_16_DeviceInfo
a001bc68 D g_AT49BV_16_BS_DeviceTable
a0021eec b g_Boot_RAMConstants_CRC
a001b110 T g_ConfigurationSector
a001c754 B g_Event_Callback
a001c758 B g_Event_Callback_Arg
a001c760 B g_Events_BoolTimerCompletion
a001bbac D g_GPIO_BUTTON_Config
a001c788 B g_GPIO_BUTTON_Driver
a0025bfc B g_HAL_Completion_List
a0025c08 B g_HAL_Continuation_List
a0025c14 B g_I2C_Driver
a001c998 B g_LPC24XX_GPIO_Driver
a001f420 B g_LPC24XX_PINSEL_Driver
a0021eb8 B g_LPC24XX_TIMER_Driver
a0021ea8 B g_LPC24XX_TIME_Driver
a001c514 B g_SREC
a001c4d0 B g_State
a0025c38 B g_TimeDriver
a001c624 B g_XREC
a0017978 t get_eit_entry
a001bca8 d impure_data
a001ba1c T isatty
a0009f48 T lcd_printf
a0019a34 t lconv
a00138a0 T localeconv
a000008c t loop
a001422c T memchr
a000e708 T memcpy
a0014340 T memmove
a000e7ac T memset
a00183d4 t next_unwind_byte
a0019b38 t p05.2718
a0000890 T platform_prestackinit
a0000e18 T private_free
a0000e00 T private_malloc
a0011440 t quorem
a0018ac0 T raise
a0018248 T restore_core_regs
a0017d0c t restore_non_core_regs
a0017438 t search_EIT_table
a001741c t selfrel_offset31
a0013910 T setlocale
a0018b2c T signal
a0012cd8 t std
a000e838 T strcmp
a00158fc T strlen
a0018470 t unwind_UCB_from_context
a0017c48 t unwind_phase2
a0017ac4 t unwind_phase2_forced
a0010ce0 T vfprintf
a000e998 T vsnprintf
a0010d58 T wcrtomb
a0010ec8 T wcsrtombs
a001998a t zeroes.3532
