a0009fe8 T ABORTD_Handler
a0009900 t ABORTD_Handler_Ptr
a00098c0 T ABORTD_SubHandler
a0000028 t ABORTD_SubHandler_Trampoline
a000a058 T ABORTP_Handler
a00098bc t ABORTP_Handler_Ptr
a000987c T ABORTP_SubHandler
a0000024 t ABORTP_SubHandler_Trampoline
a0021d70 B ABORT_recursion_counter
a0000000 T ARM_Vectors
00000000 a BUILD_RTM
00000000 a BUILD_RTM
00000000 a BUILD_RTM
00000000 a BUILD_RTM
a00084f0 T BootEntry
a00000a0 t BootEntryPointer
00000001 a COMPILE_ARM
00000001 a COMPILE_ARM
00000001 a COMPILE_ARM
00000001 a COMPILE_ARM
a0000074 t ClearZI_ER_RAM
a0007db8 T Crypto_AbortRSAOperation
a0007da8 T Crypto_StartRSAOperationWithKey
a0007db0 T Crypto_StepRSAOperation
a0000000 T EntryPoint
00000001 a HAL_REDUCESIZE
00000001 a HAL_REDUCESIZE
00000001 a HAL_REDUCESIZE
a00066a4 T HAL_Time_CurrentTicks
a0009904 T HARD_Breakpoint
a0009f44 T HARD_Breakpoint_Handler
a0009928 t HARD_Breakpoint_Handler_Ptr
a0015778 T HalName
a00176e0 D HalSystemConfig
a001e068 B Hal_Usart_State
a0100000 R HeapBegin
a0200000 R HeapEnd
a001623c T IDelayLoop
a0016248 T IDelayLoop2
a001623c t IDelayLoop__Fi_b
a0007870 T IRQ_Handler
a001621c T IRQ_LOCK_Disable_asm
a00161ec T IRQ_LOCK_ForceDisabled_asm
a0016204 T IRQ_LOCK_ForceEnabled_asm
a00161dc T IRQ_LOCK_GetState_asm
a00161c8 T IRQ_LOCK_Probe_asm
a00161b8 T IRQ_LOCK_Release_asm
a001622c T IRQ_LOCK_Restore_asm
a000002c T IRQ_SubHandler_Trampoline
00017510 A Image$$ER_FLASH$$Length
40000000 N Image$$ER_IRAM$$Base
00000000 A Image$$ER_IRAM$$Length
40000040 N Image$$ER_IRAM_TC$$Base
00000000 A Image$$ER_IRAM_TC$$Length
a0000000 T Image$$ER_RAM_RO$$Base
00017510 A Image$$ER_RAM_RO$$Length
a0017510 D Image$$ER_RAM_RW$$Base
00000aa8 A Image$$ER_RAM_RW$$Length
a0017fc0 B Image$$ER_RAM_RW$$ZI$$Base
00009f48 A Image$$ER_RAM_RW$$ZI$$Length
a001e060 B LOAD_IMAGE_CalcCRC
a001e05c B LOAD_IMAGE_Length
a001e058 B LOAD_IMAGE_Start
a0000000 T Load$$ER_FLASH$$Base
a0021f08 A Load$$ER_IRAM$$Base
40000040 A Load$$ER_IRAM_TC$$Base
a0000000 A Load$$ER_RAM_RO$$Base
a0017510 A Load$$ER_RAM_RW$$Base
a001e03c b LoggingCallback
a0000080 t NoClearZI_ER_RAM
00000001 a PLATFORM_ARM_LPC24XX
00000001 a PLATFORM_ARM_LPC24XX
00000001 a PLATFORM_ARM_LPC24XX
00000001 a PLATFORM_ARM_LPC24XX
00000001 a PLATFORM_ARM_plak1a_LPC2478
00000001 a PLATFORM_ARM_plak1a_LPC2478
00000001 a PLATFORM_ARM_plak1a_LPC2478
00000001 a PLATFORM_ARM_plak1a_LPC2478
000000d7 a PSR_MODE_ABORT
000000d7 a PSR_MODE_ABORT
000000d1 a PSR_MODE_FIQ
000000d1 a PSR_MODE_FIQ
000000d2 a PSR_MODE_IRQ
000000d2 a PSR_MODE_IRQ
000000d3 a PSR_MODE_SUPERVISOR
000000d3 a PSR_MODE_SUPERVISOR
000000df a PSR_MODE_SYSTEM
000000df a PSR_MODE_SYSTEM
000000db a PSR_MODE_UNDEF
000000db a PSR_MODE_UNDEF
000000d0 a PSR_MODE_USER
000000d0 a PSR_MODE_USER
a001ed70 B RxBuffer_Com
00000010 a STACK_MODE_ABORT
00000800 a STACK_MODE_IRQ
00000010 a STACK_MODE_UNDEF
a02ffff8 R StackBottom
a0300000 R StackTop
a00192c8 B SystemEvents
a0008020 T SystemState_ClearNoLock
a0008038 T SystemState_QueryNoLock
a0008008 T SystemState_SetNoLock
a001e040 B SystemStates
00000001 a TARGETLOCATION_FLASH
00000001 a TARGETLOCATION_FLASH
00000001 a TARGETLOCATION_FLASH
00000001 a TARGETLOCATION_FLASH
a00066c0 T Time_CurrentTicks
a001e170 B TxBuffer_Com
a000a0c8 T UNDEF_Handler
a0009878 t UNDEF_Handler_Ptr
a0009838 T UNDEF_SubHandler
a0000020 t UNDEF_SubHandler_Trampoline
a0000030 t VectorAreaSkip
a0010cf0 T _Balloc
a0010878 T _Bfree
a0013918 T _Unwind_Complete
a001391c T _Unwind_DeleteException
a00147ec T _Unwind_ForcedUnwind
a0013910 T _Unwind_GetCFA
a0014874 T _Unwind_GetDataRelBase
a001487c t _Unwind_GetGR
a00137ac t _Unwind_GetGR
a00148b4 T _Unwind_GetLanguageSpecificData
a00148d8 T _Unwind_GetRegionStart
a001486c T _Unwind_GetTextRelBase
a0014780 T _Unwind_RaiseException
a00147a4 T _Unwind_Resume
a00147c8 T _Unwind_Resume_or_Rethrow
a0013828 t _Unwind_SetGR
a0013760 T _Unwind_VRS_Get
a00142a8 T _Unwind_VRS_Pop
a00137dc T _Unwind_VRS_Set
a001374c t _Unwind_decode_target2
a0005730 T _Z10Events_Setj
a000930c T _Z10USART_ReadiPcj
a0007fd4 T _Z10hal_printfPKcz
a00090c4 T _Z11USART_Flushi
a0009598 T _Z11USART_WriteiPKcj
a0007f6c T _Z11hal_fprintfiPKcz
a0007fa0 T _Z11hal_vprintfPKcPv
a0000c04 t _Z12AccessMemoryjjPhi
a00056dc T _Z12Events_Clearj
a000788c T _Z12HAL_AssertExv
a0005bd8 T _Z12HeapLocationRPhRj
a0007d98 T _Z12SOCKETS_ReadiPcj
a0007dd0 T _Z12hal_strlen_sPKc
a0007e74 T _Z12hal_vfprintfiPKcPv
a000a7a0 T _Z13FS_AddVolumesv
a000a7a4 T _Z13FS_Initializev
a0007da0 T _Z13SOCKETS_Flushi
a0007d90 T _Z13SOCKETS_WriteiPKcj
a0009800 T _Z13USB_ConfigureiPK25USB_DYNAMIC_CONFIGURATION
a0007dec T _Z13hal_strncpy_sPcjPKcj
a0007e58 T _Z13hal_vsnprintfPcjPKcPv
a00079ac T _Z14CPU_Initializev
a0008318 T _Z14HAL_Initializev
a000a7bc T _Z14I2C_Initializev
a000a7c4 T _Z14Ink_Initializev
a0005798 T _Z14LCD_Initializev
a00097f8 T _Z14USB_Initializei
a0009810 T _Z14USB_OpenStreamiii
a0000148 T _Z15Bootstrap_Delayi
a0003b04 T _Z15LZ77_DecompressPhiS_i
a000a8d8 T _Z15Time_Initializev
a0009818 T _Z15USB_CloseStreami
a00057a0 T _Z16LCD_Uninitializev
a000a8c4 T _Z16Piezo_Initializev
a00097cc T _Z16USART_Initializeiiiiii
a0009808 T _Z16USB_Uninitializei
a000a85c T _Z16Watchdog_Disablev
a0007dc0 T _Z17CPU_DisableCachesv
a000520c T _Z17DebuggerPort_ReadiPcj
a0005520 T _Z17Events_Initializev
a00054fc T _Z17Events_MaskedReadj
a0000524 T _Z17Initialize_SyncOnv
a000a798 T _Z18Battery_Initializev
a00002d8 T _Z18BootstrapCode_Pinsv
a0005bbc T _Z18Buttons_Initializev
a000a82c T _Z18CPU_SPI_Initializev
a00065f0 T _Z18CPU_TicksPerSecondv
a000a790 T _Z18Charger_Initializev
a000a8c8 T _Z18CustomHeapLocationRPhRj
a00051a0 T _Z18DebuggerPort_Flushi
a0005278 T _Z18DebuggerPort_WriteiPKcj
a000a7b4 T _Z18Gesture_Initializev
a0007d80 T _Z18SOCKETS_Initializei
a0003ac0 T _Z18SUPPORT_ComputeCRCPKvij
a0007b04 T _Z18SimpleHeap_ReleasePv
a0009650 T _Z18USART_Uninitializei
a00000b4 T _Z19BootstrapCode_Dummyv
a0005f64 T _Z19CPU_GPIO_DisablePinj13GPIO_RESISTORj13GPIO_ALT_MODE
a0006560 T _Z19CPU_GPIO_Initializev
a0007604 T _Z19CPU_INTC_Initializev
a0007dc8 T _Z19CPU_USB_ProtectPinsij
a0006b18 T _Z19HAL_Time_Initializev
a0006a2c T _Z19HAL_Time_SetComparey
a000a8bc T _Z19PalEvent_Initializev
a0007a20 T _Z19SimpleHeap_Allocatej
a00080d4 T _Z19Verify_RAMConstantsPv
a00099cc T _Z20ABORT_HandlerDisplayPjjjjPKcj
a000a788 T _Z20BackLight_Initializev
a00001b0 T _Z20BootstrapCode_Clocksv
a0006114 T _Z20CPU_GPIO_GetPinStatej
a0006090 T _Z20CPU_GPIO_SetPinStatejj
a000740c T _Z20CPU_USART_Initializeiiiiii
a000081c W _Z20Events_WaitForEventsjj
a0005578 T _Z20Events_WaitForEventsjjj
a00082d0 W _Z20HAL_Init_Custom_Heapv
a0006b34 T _Z20HAL_Time_TicksToTimey
a0007d88 T _Z20SOCKETS_Uninitializei
a0009944 T _Z20monitor_debug_printfPKcz
a000371c T _Z21ApplicationEntryPointv
a00071c4 T _Z21CPU_USART_ProtectPinsij
a0008054 T _Z21Checksum_RAMConstantsv
a00079e8 T _Z21SimpleHeap_InitializePvj
a0000294 T _Z22BootstrapCode_Ext_SRAMv
a00058f8 T _Z22Buttons_CurrentHWStatev
a00071a8 T _Z22CPU_USART_Uninitializei
a00057ac T _Z22LCD_WriteFormattedCharh
a000a8fc T _Z22TimeService_Initializev
a000992c T _Z22Watchdog_GetSetEnabledjj
a0009934 T _Z22Watchdog_GetSetTimeoutij
a000a748 T _Z23BlockStorage_AddDevicesv
a0000298 T _Z23BootstrapCode_Ext_Flashv
a0000334 T _Z23BootstrapCode_Ext_SDRAMv
a0006460 T _Z23CPU_GPIO_EnableInputPinjjPFvjjPvE13GPIO_INT_EDGE13GPIO_RESISTOR
a00160c0 T _Z23CPU_MicrosecondsToTicksj
a00160a0 T _Z23CPU_MicrosecondsToTicksy
a00065fc T _Z23CPU_MillisecondsToTicksj
a0006e08 T _Z23CPU_USART_TxBufferEmptyi
a0005408 T _Z23DebuggerPort_Initializei
a0008d9c T _Z23USART_AddCharToRxBufferic
a0000844 T _Z23WaitForTinyBooterUploadRi
a000993c T _Z23Watchdog_GetSetBehavior17Watchdog_Behaviorj
a00057e8 T _Z24Buttons_HW_To_Hal_Buttonj
a000a914 T _Z24CPU_EBIU_Memory_ReadOnlyRK17CPU_MEMORY_CONFIGj
a0006234 T _Z24CPU_GPIO_EnableOutputPinjj
a0007dc4 T _Z24CPU_GetUncachableAddressj
a00000b8 T _Z24PrepareImageRegions_IRAMv
a0000644 T _Z24TinyBooter_OnStateChange16_TinyBooterStatePvPS0_
a0005380 T _Z25DebuggerPort_Uninitializei
a0000594 T _Z25TinyBooter_GetReleaseInfoR13MfReleaseInfo
a000598c T _Z26Buttons_GetNextStateChangeRjS_
a000a910 T _Z26CPU_EBIU_ConfigMemoryBlockRK17CPU_MEMORY_CONFIG
a00077ac T _Z26CPU_INTC_ActivateInterruptjPFvPvES_
a0005a90 T _Z27Buttons_RegisterStateChangejj
a00065cc T _Z27HAL_Time_GetDriftParametersPiS_Px
a00066dc T _Z27HAL_Time_Sleep_MicroSecondsj
a0000100 T _Z27PrepareImageRegions_IRAM_TCv
a0000574 T _Z27Tinybooter_ProgramWordCheckv
a0000580 T _Z28Tinybooter_ImageIsCompressedv
a0008ba4 T _Z28USART_RemoveCharFromTxBufferiRc
a00076e4 T _Z29CPU_INTC_InterruptEnableStatej
a0005138 T _Z29CPU_ProtectCommunicationGPIOsj
a0006dec T _Z29CPU_USART_WriteCharToTxBufferih
a0006d60 T _Z30CPU_USART_TxShiftRegisterEmptyi
a0000588 T _Z31Tinybooter_CompressedImageStartRK22CompressedImage_Header
a0007438 T _Z33CPU_USART_TxHandshakeEnabledStatei
a0006e90 T _Z37CPU_USART_RxBufferFullInterruptEnableij
a0006d1c T _Z37CPU_USART_TxBufferEmptyInterruptStatei
a00071e0 T _Z38CPU_USART_TxBufferEmptyInterruptEnableij
a0000590 T _Z39Tinybooter_PrepareForDecompressedLaunchv
a0006620 T _Z44HAL_Time_Sleep_MicroSeconds_InterruptEnabledj
a0000460 T _Z7delayMsjj
a0007940 T _Z8CPU_Haltv
a00004d0 T _Z8GetFpclkj
a0000154 T _Z8GetFsclkv
a0009828 T _Z8USB_ReadiPcj
a00078d8 T _Z9CPU_Resetv
a00079c8 T _Z9CPU_Sleep11SLEEP_LEVELy
a00057a8 T _Z9LCD_Clearv
a0009830 T _Z9USB_Flushi
a0009820 T _Z9USB_WriteiPKcj
a000a91c T _ZN10TimeDriver10InitializeEv
a0021da0 B _ZN10TimeDriver13m_initializedE
a0003cb0 T _ZN10WP_Message10InitializeEP13WP_Controller
a0003e0c T _ZN10WP_Message12PrepareReplyERK9WP_PacketjjPh
a0003dc4 T _ZN10WP_Message12VerifyHeaderEv
a0003d74 T _ZN10WP_Message13VerifyPayloadEv
a0003ed0 T _ZN10WP_Message14PrepareRequestEjjjPh
a0004008 T _ZN10WP_Message14ReplyBadPacketEj
a0003c40 T _ZN10WP_Message16PrepareReceptionEv
a0004084 T _ZN10WP_Message7ProcessEv
a0003c4c T _ZN10WP_Message7ReleaseEv
a0003444 T _ZN11CryptoState15VerifySignatureEj
a0003410 T _ZN11CryptoStateC1EjjPhjj
a00036f4 T _ZN11CryptoStateD1Ev
a000657c W _ZN11LPC24XX_VIC14ForceInterruptEj
a0007688 W _ZN11LPC24XX_VIC18IsInterruptEnabledEj
a000759c W _ZN11LPC24XX_VIC21RemoveForcedInterruptEj
a0007574 W _ZN12HAL_CALLBACK10InitializeEPFvPvES0_
a0007c10 T _ZN12SmartPtr_IRQ11WasDisabledEv
a0007cd8 T _ZN12SmartPtr_IRQ12ForceEnabledEPv
a0007cf4 T _ZN12SmartPtr_IRQ13ForceDisabledEPv
a0007d2c T _ZN12SmartPtr_IRQ5ProbeEv
a0007c8c T _ZN12SmartPtr_IRQ7AcquireEv
a0007c68 T _ZN12SmartPtr_IRQ7DisableEv
a0007d50 T _ZN12SmartPtr_IRQ7ReleaseEv
a0007c20 T _ZN12SmartPtr_IRQ7RestoreEv
a0007d10 T _ZN12SmartPtr_IRQ8GetStateEPv
a0007cb0 T _ZN12SmartPtr_IRQC1EPv
a0007c44 T _ZN12SmartPtr_IRQD1Ev
a000966c T _ZN12USART_Driver10InitializeEiiiiii
a00095b4 T _ZN12USART_Driver12UninitializeEi
a0008bc0 T _ZN12USART_Driver17AddCharToRxBufferEic
a0008abc T _ZN12USART_Driver22RemoveCharFromTxBufferEiRc
a00090e0 T _ZN12USART_Driver4ReadEiPcj
a0008db8 T _ZN12USART_Driver5FlushEi
a0009328 T _ZN12USART_Driver5WriteEiPKcj
a00089f8 T _ZN12USART_Driver7SendXONEij
a0008a58 T _ZN12USART_Driver8SendXOFFEij
a0008940 T _ZN12USART_Driver8SetEventEij
a0006590 W _ZN13LPC24XX_TIMER8getIntNoEi
a0006c4c W _ZN13LPC24XX_USART8getIntNoEi
a0002d4c T _ZN13Loader_Engine10InitializeEi
a0000a8c T _ZN13Loader_Engine11App_ReleaseEPvP10WP_Message
a000165c T _ZN13Loader_Engine12Monitor_PingEP10WP_Message
a0001860 T _ZN13Loader_Engine14Monitor_RebootEP10WP_Message
a00018c4 T _ZN13Loader_Engine14ProcessPayloadEP10WP_Message
a00016a8 T _ZN13Loader_Engine14ReplyToCommandEP10WP_Messagebb
a00012e8 T _ZN13Loader_Engine14ReplyToCommandEP10WP_MessagebbPvi
a0002468 T _ZN13Loader_Engine15Monitor_ExecuteEP10WP_Message
a00015e4 T _ZN13Loader_Engine15Monitor_OemInfoEP10WP_Message
a0001cec T _ZN13Loader_Engine15ProcessCommandsEv
a0000a38 T _ZN13Loader_Engine15SignedDataState10CheckDirtyEv
a00028e4 T _ZN13Loader_Engine15SignedDataState15VerifySignatureEPhjj
a0002328 T _ZN13Loader_Engine15SignedDataState19EraseMemoryAndResetEv
a0002000 T _ZN13Loader_Engine15SignedDataState20VerifyContiguousDataEjj
a0000a58 T _ZN13Loader_Engine15SignedDataState5ResetEv
a00019d8 T _ZN13Loader_Engine15TransmitMessageEPK10WP_Messageb
a0002df8 T _ZN13Loader_Engine16Phy_ReceiveBytesEPvRPhRj
a0002e58 T _ZN13Loader_Engine17App_ProcessHeaderEPvP10WP_Message
a00023a0 T _ZN13Loader_Engine17Monitor_MemoryMapEP10WP_Message
a0001998 T _ZN13Loader_Engine18App_ProcessPayloadEPvP10WP_Message
a0001bb0 T _ZN13Loader_Engine18EnumerateAndLaunchEv
a0002824 T _ZN13Loader_Engine18Monitor_ReadMemoryEP10WP_Message
a00026b0 T _ZN13Loader_Engine19Monitor_CheckMemoryEP10WP_Message
a00025f4 T _ZN13Loader_Engine19Monitor_EraseMemoryEP10WP_Message
a0002764 T _ZN13Loader_Engine19Monitor_WriteMemoryEP10WP_Message
a0001a64 T _ZN13Loader_Engine19Phy_TransmitMessageEPvPK10WP_Message
a0002aa8 T _ZN13Loader_Engine22Monitor_CheckSignatureEP10WP_Message
a00013a4 T _ZN13Loader_Engine22Monitor_FlashSectorMapEP10WP_Message
a00016d0 T _ZN13Loader_Engine26Monitor_SignatureKeyUpdateEP10WP_Message
a0001a84 T _ZN13Loader_Engine6LaunchEPFvvE
a000127c T _ZN13MfReleaseInfo4InitERS_ttttPKcj
a0003d00 T _ZN13WP_Controller10InitializeEPKcPK16WP_PhysicalLayerPK19WP_ApplicationLayerPv
a00043ac T _ZN13WP_Controller12AdvanceStateEv
a0003c8c T _ZN13WP_Controller19SendProtocolMessageERK10WP_Message
a0003f88 T _ZN13WP_Controller19SendProtocolMessageEjjjPh
a000a650 T _ZN14HAL_COMPLETION14DequeueAndExecEv
a000a260 T _ZN14HAL_COMPLETION14InitializeListEv
a0005554 W _ZN14HAL_COMPLETION16InitializeForISREPFvPvES0_
a000a594 T _ZN14HAL_COMPLETION17WaitForInterruptsEyjy
a000a4ec T _ZN14HAL_COMPLETION5AbortEv
a000a404 T _ZN14HAL_COMPLETION7ExecuteEv
a000795c T _ZN14LPC24XX_Driver10InitializeEv
a00078f4 T _ZN14LPC24XX_Driver4HaltEv
a00078bc T _ZN14LPC24XX_Driver5ResetEv
a000789c T _ZN14LPC24XX_Driver8ShutdownEv
a0002128 W _ZN15BitFieldManager17SetDirtySectorBitEj
a0000a18 W _ZN15BitFieldManager20ResetBitFieldManagerEv
a00022c8 W _ZN15BitFieldManager24InvalidateSectorBitFieldEv
a0000ab4 W _ZN15BitFieldManager24ResetSignatureCheckArrayEv
a0002b3c W _ZN15BitFieldManager25EraseOnSignatureCheckFailEv
a0001d0c W _ZN15BitFieldManager27GetNextSectorSignatureCheckEP18BlockStorageDeviceR16SECTOR_BIT_FIELD
a000470c T _ZN16BlockStorageList10InitializeEv
a00192b4 B _ZN16BlockStorageList12s_deviceListE
a0004f34 T _ZN16BlockStorageList13GetNextDeviceER18BlockStorageDevice
a00192b0 B _ZN16BlockStorageList13s_InitializedE
a0004690 T _ZN16BlockStorageList14GetFirstDeviceEv
a00192c0 B _ZN16BlockStorageList15s_primaryDeviceE
a0004f68 T _ZN16BlockStorageList17InitializeDevicesEv
a000505c T _ZN16BlockStorageList28FindDeviceForPhysicalAddressEPP18BlockStorageDevicejRj
a0004e98 T _ZN16BlockStorageList9AddDeviceEP18BlockStorageDeviceP19IBlockStorageDevicePvj
a000a780 T _ZN16HAL_CONFIG_BLOCK11ApplyConfigEPKcPvj
a000a23c T _ZN16HAL_CONTINUATION14InitializeListEv
a000a180 T _ZN16HAL_CONTINUATION18InitializeCallbackEPFvPvES0_
a000a430 T _ZN16HAL_CONTINUATION19Dequeue_And_ExecuteEv
a000a39c T _ZN16HAL_CONTINUATION7EnqueueEv
a000a1fc W _ZN17HAL_DblLinkedListI16HAL_CONTINUATIONE10InitializeEv
a000a310 W _ZN17HAL_DblLinkedListI16HAL_CONTINUATIONE10LinkAtBackEPS0_
a000a368 W _ZN17HAL_DblLinkedListI16HAL_CONTINUATIONE16ExtractFirstNodeEv
a000a2b0 W _ZN17HAL_DblLinkedListI16HAL_CONTINUATIONE16InsertBeforeNodeEPS0_S2_
a000a29c W _ZN17HAL_DblLinkedListI16HAL_CONTINUATIONE6InsertEPS0_S2_S2_
a00046cc W _ZN17HAL_DblLinkedListI18BlockStorageDeviceE10InitializeEv
a00047d0 W _ZN17HAL_DblLinkedListI18BlockStorageDeviceE10LinkAtBackEPS0_
a0004770 W _ZN17HAL_DblLinkedListI18BlockStorageDeviceE16InsertBeforeNodeEPS0_S2_
a000475c W _ZN17HAL_DblLinkedListI18BlockStorageDeviceE6InsertEPS0_S2_S2_
a0005510 W _ZN17HAL_DblLinkedNodeI16HAL_CONTINUATIONE10InitializeEv
a000a284 W _ZN17HAL_DblLinkedNodeI16HAL_CONTINUATIONE14RemoveFromListEv
a000a158 W _ZN17HAL_DblLinkedNodeI16HAL_CONTINUATIONE6UnlinkEv
a0004668 W _ZN17HAL_DblLinkedNodeI18BlockStorageDeviceE10InitializeEv
a0004744 W _ZN17HAL_DblLinkedNodeI18BlockStorageDeviceE14RemoveFromListEv
a0000550 W _ZN18BlockStorageDevice13GetDeviceInfoEv
a00009d0 W _ZN18BlockStorageDevice13IsBlockErasedEjj
a00043d4 W _ZN18BlockStorageDevice16InitializeDeviceEv
a00045d0 W _ZN18BlockStorageDevice17FindForBlockUsageEjRjS0_S0_
a000461c W _ZN18BlockStorageDevice18FindNextUsageBlockEjRjS0_S0_
a0000600 W _ZN18BlockStorageDevice21FindRegionFromAddressEjRjS0_
a0000980 W _ZN18BlockStorageDevice4ReadEjjPh
a00009a4 W _ZN18BlockStorageDevice5WriteEjjPhj
a0004e78 T _ZN18BlockStorageStream10InitializeEj
a0004dd4 T _ZN18BlockStorageStream10InitializeEjP18BlockStorageDevice
a0004810 T _ZN18BlockStorageStream10NextStreamEv
a0004b24 T _ZN18BlockStorageStream10PrevStreamEv
a00043f8 T _ZN18BlockStorageStream14CurrentAddressEv
a00049f4 T _ZN18BlockStorageStream4ReadEPPhj
a0004ce4 T _ZN18BlockStorageStream4SeekEiNS_10SeekOriginE
a0005aec T _ZN18GPIO_BUTTON_Driver10InitializeEv
a000589c T _ZN18GPIO_BUTTON_Driver14CurrentHWStateEv
a00057b0 T _ZN18GPIO_BUTTON_Driver16HW_To_Hal_ButtonEj
a0005914 T _ZN18GPIO_BUTTON_Driver18GetNextStateChangeERjS0_
a00059a8 T _ZN18GPIO_BUTTON_Driver19RegisterStateChangeEjj
a0005aac T _ZN18GPIO_BUTTON_Driver3ISREjjPv
a000a7cc T _ZN18LPC24XX_SPI_Driver10InitializeEv
a00075b0 T _ZN18LPC24XX_VIC_Driver10InitializeEv
a0017510 D _ZN18LPC24XX_VIC_Driver10s_IsrTableE
a00077d4 T _ZN18LPC24XX_VIC_Driver11IRQ_HandlerEv
a0007620 T _ZN18LPC24XX_VIC_Driver14IRQToIRQVectorEj
a0007650 T _ZN18LPC24XX_VIC_Driver14STUB_ISRVectorEPv
a0007700 T _ZN18LPC24XX_VIC_Driver17ActivateInterruptEjjPFvPvES0_
a00076bc T _ZN18LPC24XX_VIC_Driver20InterruptEnableStateEj
a0016748 T _ZN19AT49BV_16_BS_Driver10EraseBlockEPvj
a001655c T _ZN19AT49BV_16_BS_Driver12ChipReadOnlyEPvjj
a001641c T _ZN19AT49BV_16_BS_Driver13Action_ReadIDEPvRjS1_
a001625c T _ZN19AT49BV_16_BS_Driver13GetDeviceInfoEPv
a0016508 T _ZN19AT49BV_16_BS_Driver13IsBlockErasedEPvjj
a0016ab4 T _ZN19AT49BV_16_BS_Driver13ReadProductIDEPvRjS1_
a0016274 T _ZN19AT49BV_16_BS_Driver13SetPowerStateEPvj
a0016b04 T _ZN19AT49BV_16_BS_Driver14ChipInitializeEPv
a0016290 T _ZN19AT49BV_16_BS_Driver16Action_UnprotectEPvPVt
a0016294 T _ZN19AT49BV_16_BS_Driver16Action_WriteWordEPvPVtt
a0016254 T _ZN19AT49BV_16_BS_Driver16ChipUnInitializeEPv
a0016264 T _ZN19AT49BV_16_BS_Driver17GetSectorMetadataEPvjP14SectorMetadata
a001626c T _ZN19AT49BV_16_BS_Driver17SetSectorMetadataEPvjP14SectorMetadata
a0016350 T _ZN19AT49BV_16_BS_Driver18Action_EraseSectorEPvPVt
a0016284 T _ZN19AT49BV_16_BS_Driver18MaxBlockErase_uSecEPv
a0016278 T _ZN19AT49BV_16_BS_Driver19MaxSectorWrite_uSecEPv
a00164b8 T _ZN19AT49BV_16_BS_Driver4ReadEPvjjPh
a00167fc T _ZN19AT49BV_16_BS_Driver5WriteEPvjjPhj
a0016714 T _ZN19AT49BV_16_BS_Driver6MemsetEPvjhj
a00165f0 T _ZN19AT49BV_16_BS_Driver6WriteXEPvjjPhjj
a0005804 W _ZN19Hal_Queue_KnownSizeIN18GPIO_BUTTON_Driver19BUTTON_STATE_CHANGEELj64EE10InitializeEv
a0005858 W _ZN19Hal_Queue_KnownSizeIN18GPIO_BUTTON_Driver19BUTTON_STATE_CHANGEELj64EE3PopEv
a0005818 W _ZN19Hal_Queue_KnownSizeIN18GPIO_BUTTON_Driver19BUTTON_STATE_CHANGEELj64EE4PushEv
a0005eb0 T _ZN19LPC24XX_GPIO_Driver10DisablePinEj13GPIO_RESISTORj13GPIO_ALT_MODE
a0006488 T _ZN19LPC24XX_GPIO_Driver10InitializeEv
a00060ac T _ZN19LPC24XX_GPIO_Driver11GetPinStateEj
a0005e88 W _ZN19LPC24XX_GPIO_Driver11PinToPCBRegEj
a0005fd0 T _ZN19LPC24XX_GPIO_Driver11SetPinStateEjj
a0006250 T _ZN19LPC24XX_GPIO_Driver14EnableInputPinEjjPFvjjPvES0_13GPIO_INT_EDGE13GPIO_RESISTOR
a0005e5c W _ZN19LPC24XX_GPIO_Driver14PinToPCBRegBitEj
a0005e34 T _ZN19LPC24XX_GPIO_Driver14STUB_ISRVectorEjjPv
a0006130 T _ZN19LPC24XX_GPIO_Driver15EnableOutputPinEjj
a0005bf8 T _ZN19LPC24XX_GPIO_Driver18PIN_ISR_DESCRIPTOR4FireEPv
a0005c20 T _ZN19LPC24XX_GPIO_Driver8GPIO_ISREPv
a0005f80 W _ZN19LPC24XX_GPIO_Driver8PinToBitEj
a0005fa8 W _ZN19LPC24XX_GPIO_Driver9PinToPortEj
a0006a8c T _ZN19LPC24XX_TIME_Driver10InitializeEv
a00160f4 T _ZN19LPC24XX_TIME_Driver10Sleep_uSecEj
a000663c T _ZN19LPC24XX_TIME_Driver12CounterValueEv
a000686c T _ZN19LPC24XX_TIME_Driver15SetCompareValueEy
a00160cc T _ZN19LPC24XX_TIME_Driver15Sleep_uSec_LoopEj
a0006990 T _ZN19LPC24XX_TIME_Driver3ISREPv
a000a7a8 T _ZN20FileSystemVolumeList10InitializeEv
a000a7ac T _ZN20FileSystemVolumeList17InitializeVolumesEv
a0006b38 T _ZN20LPC24XX_TIMER_Driver10InitializeEjPFvPvES0_
a000682c W _ZN20LPC24XX_TIMER_Driver10SetCompareEjj
a001617c T _ZN20LPC24XX_TIMER_Driver11ReadCounterEj
a00067ec W _ZN20LPC24XX_TIMER_Driver13DidCompareHitEj
a00066f8 W _ZN20LPC24XX_TIMER_Driver14ForceInterruptEj
a00067ac W _ZN20LPC24XX_TIMER_Driver15ResetCompareHitEj
a0006a48 W _ZN20LPC24XX_TIMER_Driver22EnableCompareInterruptEj
a00071fc T _ZN20LPC24XX_USART_Driver10InitializeEiiiiii
a0006f90 T _ZN20LPC24XX_USART_Driver11ProtectPinsEij
a000711c T _ZN20LPC24XX_USART_Driver12UninitializeEi
a0006d7c T _ZN20LPC24XX_USART_Driver13TxBufferEmptyEi
a0007440 T _ZN20LPC24XX_USART_Driver15UART_IntHandlerEPv
a0006da4 T _ZN20LPC24XX_USART_Driver19WriteCharToTxBufferEih
a0006d38 T _ZN20LPC24XX_USART_Driver20TxShiftRegisterEmptyEi
a0006e24 T _ZN20LPC24XX_USART_Driver27RxBufferFullInterruptEnableEij
a0006ce8 T _ZN20LPC24XX_USART_Driver27TxBufferEmptyInterruptStateEi
a0006eac T _ZN20LPC24XX_USART_Driver28TxBufferEmptyInterruptEnableEij
a0008788 W _ZN21Hal_Queue_UnknownSizeIhE10InitializeEPhj
a00088b0 W _ZN21Hal_Queue_UnknownSizeIhE16NumberOfElementsEv
a0008824 W _ZN21Hal_Queue_UnknownSizeIhE3PopERj
a000873c W _ZN21Hal_Queue_UnknownSizeIhE3PopEv
a00087a4 W _ZN21Hal_Queue_UnknownSizeIhE4PushERj
a00088fc W _ZN21Hal_Queue_UnknownSizeIhE4PushEv
a00088dc W _ZN21Hal_Queue_UnknownSizeIhE7IsEmptyEv
a000a848 T _ZN23LPC24XX_WATCHDOG_Driver7DisableEv
a000a878 T _ZN23LPC24XX_WATCHDOG_Driver8ResetCpuEv
a0002fd4 T _ZN26ConfigurationSectorManager17GetDeploymentKeysEj
a0002f6c T _ZN26ConfigurationSectorManager17LoadConfigurationEv
a0003278 T _ZN26ConfigurationSectorManager18UpdateSignatureKeyEjPh
a00030e8 T _ZN26ConfigurationSectorManager18WriteConfigurationEjPhjj
a00032a8 T _ZN26ConfigurationSectorManager19CleanBootLoaderFlagEv
a000301c T _ZN26ConfigurationSectorManager19VerifiySignatureKeyEjPh
a0002f54 T _ZN26ConfigurationSectorManager20GetTinyBooterVersionEv
a0002e94 T _ZN26ConfigurationSectorManager20IsBootLoaderRequiredERi
a000307c T _ZN26ConfigurationSectorManager21EraseWriteConfigBlockEPhj
a0002f14 T _ZN26ConfigurationSectorManager22CheckSignatureKeyEmptyEj
a00032e8 T _ZN26ConfigurationSectorManager25LocateConfigurationSectorEj
a0006c88 W _ZN7LPC24XX4UARTEi
a000674c W _ZN7LPC24XX5TIMEREi
a00008cc W _ZN7Version4InitERS_tttt
a0000904 W _ZNK10BlockRange13GetBlockCountEv
a00043cc W _ZNK10BlockRange13GetBlockUsageEv
a00008e4 W _ZNK10BlockRange8IsConfigEv
a000757c W _ZNK12HAL_CALLBACK7ExecuteEv
a000459c T _ZNK15BlockDeviceInfo17FindForBlockUsageEjRjS0_S0_
a00044dc T _ZNK15BlockDeviceInfo18FindNextUsageBlockEjRjS0_S0_
a0004404 T _ZNK15BlockDeviceInfo21FindRegionFromAddressEjRjS0_
a0000914 W _ZNK15BlockRegionInfo12BlockAddressEj
a0000924 W _ZNK15BlockRegionInfo15OffsetFromBlockEj
a0000954 W _ZNK15BlockRegionInfo21BlockIndexFromAddressEj
a000a904 W _ZNK15BlockRegionInfo4SizeEv
a000a138 W _ZNK16HAL_CONTINUATION7ExecuteEv
a000a350 W _ZNK17HAL_DblLinkedListI16HAL_CONTINUATIONE14FirstValidNodeEv
a000a1f8 W _ZNK17HAL_DblLinkedListI16HAL_CONTINUATIONE4HeadEv
a000a1c4 W _ZNK17HAL_DblLinkedListI16HAL_CONTINUATIONE4TailEv
a000a1cc W _ZNK17HAL_DblLinkedListI16HAL_CONTINUATIONE7IsEmptyEv
a0004678 W _ZNK17HAL_DblLinkedListI18BlockStorageDeviceE14FirstValidNodeEv
a00046c8 W _ZNK17HAL_DblLinkedListI18BlockStorageDeviceE4HeadEv
a00046c0 W _ZNK17HAL_DblLinkedListI18BlockStorageDeviceE4TailEv
a00009f4 W _ZNK18BlockStorageDevice10EraseBlockEj
a0021da4 b _ZZN10TimeDriver16DateTimeToStringERKxE8rgBuffer
a0021e24 b _ZZN10TimeDriver16TimeSpanToStringERKxE8rgBuffer
a00176d8 d _ZZN20LPC24XX_USART_Driver11ProtectPinsEijE18COM1_PinsProtected
a00176dc d _ZZN20LPC24XX_USART_Driver11ProtectPinsEijE18COM2_PinsProtected
a00176d0 d _ZZN20LPC24XX_USART_Driver11ProtectPinsEijE18COM3_PinsProtected
a00176d4 d _ZZN20LPC24XX_USART_Driver11ProtectPinsEijE18COM4_PinsProtected
a00147ec T ___Unwind_ForcedUnwind
a0014780 T ___Unwind_RaiseException
a00147a4 T ___Unwind_Resume
a00147c8 T ___Unwind_Resume_or_Rethrow
a00121bc T __adddf3
a0012b18 T __aeabi_cdcmpeq
a0012b18 T __aeabi_cdcmple
a0012afc T __aeabi_cdrcmple
a0012ba8 T __aeabi_d2iz
a00121bc T __aeabi_dadd
a0012b30 T __aeabi_dcmpeq
a0012b78 T __aeabi_dcmpge
a0012b90 T __aeabi_dcmpgt
a0012b60 T __aeabi_dcmple
a0012b48 T __aeabi_dcmplt
a001285c T __aeabi_ddiv
a00125cc T __aeabi_dmul
a00121b0 T __aeabi_drsub
a00121b8 T __aeabi_dsub
a0012518 T __aeabi_f2d
a00124f0 T __aeabi_i2d
a00121ac T __aeabi_idiv0
a001256c T __aeabi_l2d
a00121ac T __aeabi_ldiv0
a00124cc T __aeabi_ui2d
a0012098 T __aeabi_uidiv
a0012194 T __aeabi_uidivmod
a0012558 T __aeabi_ul2d
a0012c04 T __aeabi_uldivmod
a0013da0 T __aeabi_unwind_cpp_pr0
a0013d8c W __aeabi_unwind_cpp_pr1
a0013d78 W __aeabi_unwind_cpp_pr2
a0010c50 T __any_on
a0010a48 T __b2d
a0015fa0 T __clz_tab
a0012a78 T __cmpdf2
a0010bf4 T __copybits
         w __cxa_begin_cleanup
         w __cxa_call_unexpected
         w __cxa_type_match
a0010d84 T __d2b
a00121ac T __div0
a001285c T __divdf3
a0012cb0 T __divdi3
a0012a78 T __eqdf2
a0021f04 B __exidx_end
a0021f04 B __exidx_start
a0012518 T __extendsfdf2
a0012ba8 T __fixdfsi
a001256c T __floatdidf
a00124f0 T __floatsidf
a0012558 T __floatundidf
a00124cc T __floatunsidf
a000f2f8 t __fp_lock
a000f32c T __fp_lock_all
a000f300 t __fp_unlock
a000f308 T __fp_unlock_all
a0012a68 T __gedf2
         w __gnu_Unwind_Find_exidx
a001405c T __gnu_Unwind_ForcedUnwind
a00141cc T __gnu_Unwind_RaiseException
a00146a0 T __gnu_Unwind_Restore_VFP
a00146b0 T __gnu_Unwind_Restore_VFP_D
a00146c0 T __gnu_Unwind_Restore_VFP_D_16_to_31
a0014758 T __gnu_Unwind_Restore_WMMXC
a00146d0 T __gnu_Unwind_Restore_WMMXD
a00140e0 T __gnu_Unwind_Resume
a0014278 T __gnu_Unwind_Resume_or_Rethrow
a00146a8 T __gnu_Unwind_Save_VFP
a00146b8 T __gnu_Unwind_Save_VFP_D
a00146c8 T __gnu_Unwind_Save_VFP_D_16_to_31
a001476c T __gnu_Unwind_Save_WMMXC
a0014714 T __gnu_Unwind_Save_WMMXD
a0012c68 T __gnu_ldivmod_helper
a0012c20 T __gnu_uldivmod_helper
a00148ec T __gnu_unwind_execute
a0014cf8 T __gnu_unwind_frame
a0013940 t __gnu_unwind_pr_common
a0012a68 T __gtdf2
a0010894 T __hi0bits
a00112e0 T __i2b
a0011b74 T __isinfd
a0011bb0 T __isnand
a0017b9c D __lc_ctype
a0012a70 T __ledf2
a00108ec T __lo0bits
a000fdb4 T __locale_charset
a0010ffc T __lshift
a0012a70 T __ltdf2
a0017ba8 D __malloc_av_
a0021ed4 B __malloc_current_mallinfo
a0010870 T __malloc_lock
a0021efc B __malloc_max_sbrked_mem
a0021f00 B __malloc_max_total_mem
a0017fb0 D __malloc_sbrk_base
a0021ed0 B __malloc_top_pad
a0017fb4 D __malloc_trim_threshold
a0010874 T __malloc_unlock
a0017b98 D __mb_cur_max
a0010980 T __mcmp
a0010eb8 T __mdiff
a0015f50 T __mprec_bigtens
a0015e78 T __mprec_tens
a0015f78 T __mprec_tinytens
a00125cc T __muldf3
a0011304 T __multadd
a0011108 T __multiply
a0012a78 T __nedf2
a00113dc T __pow5mult
a0010b04 T __ratio
a0014684 T __restore_core_regs
a00114d4 T __s2b
a0011c20 T __sclose
a000f378 T __sfmoreglue
a000f3cc T __sfp
a000f264 T __sfp_lock_acquire
a000f268 T __sfp_lock_release
a000f864 T __sfvwrite_r
a0014e3c T __sigtramp
a0014db8 T __sigtramp_r
a000f274 T __sinit
a000f26c T __sinit_lock_acquire
a000f270 T __sinit_lock_release
a000fe5c T __smakebuf
a000af4c t __sprint_r
a0011cf0 T __sread
a0011c40 T __sseek
a00121b8 T __subdf3
a0011c8c T __swrite
a000d85c T __swsetup
a0013234 T __udivdi3
a0012098 T __udivsi3
a00109e8 T __ulp
00000000 A __use_no_semihosting_swi
a0011de4 T _calloc_r
a000f368 T _cleanup
a000f350 T _cleanup_r
a001750c T _close
a0011e84 T _close_r
a000db90 T _dtoa_r
a001750c T _exit
a0011ec0 T _fclose_r
a000f5a4 T _free_r
a001750c T _fstat
a0011fd0 T _fstat_r
a000fd2c T _fwalk
a000fca0 T _fwalk_reent
a001750c T _getpid
a0014f84 T _getpid_r
a0015d78 T _global_impure_ptr
a0017790 D _impure_ptr
a0014da8 T _init_signal
a0014d50 T _init_signal_r
a001750c T _kill
a0014f94 T _kill_r
a000fdc4 T _localeconv_r
a001750c T _lseek
a0012010 T _lseek_r
a000ffd8 T _malloc_r
a000f4a8 T _malloc_trim_r
a0010b88 T _mprec_log10
a0014e50 T _raise_r
a001750c T _read
a0012054 T _read_r
a00115b8 T _realloc_r
a001750c T _sbrk
a0011be0 T _sbrk_r
a000fde0 T _setlocale_r
a0014f10 T _signal_r
         U _start
a000af84 T _vfprintf_r
a000ae50 T _vsnprintf_r
a000d23c T _wcrtomb_r
a000d2b4 T _wcsrtombs_r
a000d43c T _wctomb_r
a001750c T _write
a0011da0 T _write_r
a0014d40 T abort
a0015d7e t blanks.3531
a00152fc t c_CRCTable
a001515c t c_Debugger_app
a0015154 t c_Debugger_phy
a00150b8 t c_Lookup_Reply
a00150c4 t c_Lookup_Request
a0015e34 t charset
a0008240 T debug_printf
a0021f04 B errno
a0011fbc T fclose
a000f050 T fflush
a0021d8c B g_AT49BV642DT_16_BS
a0017724 D g_AT49BV642DT_16_BS_Config
a0015ba4 t g_AT49BV642DT_16_BlkRegion
a0015bb8 t g_AT49BV642DT_16_BlockRange
a0017708 D g_AT49BV642DT_16_DeviceInfo
a0017758 D g_AT49BV_16_BS_DeviceTable
a0017fc0 B g_BitFieldManager
a001e054 b g_Boot_RAMConstants_CRC
a0017ffc B g_ConfigBuffer
a0018000 B g_ConfigBufferLength
a0016c00 T g_ConfigurationSector
a00192cc B g_Event_Callback
a00192d0 B g_Event_Callback_Arg
a00192d8 B g_Events_BoolTimerCompletion
a001769c D g_GPIO_BUTTON_Config
a00192f8 B g_GPIO_BUTTON_Driver
a0021d80 B g_HAL_Completion_List
a0021d74 B g_HAL_Continuation_List
a0019508 B g_LPC24XX_GPIO_Driver
a001ba90 B g_LPC24XX_PINSEL_Driver
a001e028 B g_LPC24XX_TIMER_Driver
a001e018 B g_LPC24XX_TIME_Driver
a0018004 B g_PrimaryConfigManager
a0021ea8 B g_TimeDriver
a0018930 B g_eng
a001e038 b g_s_FirstCluster
a0013db4 t get_eit_entry
a0017798 d impure_data
a001750c T isatty
a0008098 T lcd_printf
a0015e38 t lconv
a000fdd0 T localeconv
a000008c t loop
a001075c T memchr
a000a9a4 T memcmp
a000aa3c T memcpy
a000aae0 T memmove
a000abd4 T memset
a0014810 t next_unwind_byte
a0015f40 t p05.2718
a0000538 T platform_prestackinit
a0003a88 T private_free
a0003aa4 T private_malloc
a000d970 t quorem
a0014efc T raise
a0014684 T restore_core_regs
a0014148 t restore_non_core_regs
a0013874 t search_EIT_table
a0013858 t selfrel_offset31
a000fe40 T setlocale
a0014f68 T signal
a000f208 t std
a000ac60 T strcmp
a0011d38 T strlen
a000ad48 T strncpy
a00148ac t unwind_UCB_from_context
a0014084 t unwind_phase2
a0013f00 t unwind_phase2_forced
a000d210 T vfprintf
a000aec8 T vsnprintf
a000d288 T wcrtomb
a000d3f8 T wcsrtombs
a0015d8e t zeroes.3532
a0009fe8 T ABORTD_Handler
a0009900 t ABORTD_Handler_Ptr
a00098c0 T ABORTD_SubHandler
a0000028 t ABORTD_SubHandler_Trampoline
a000a058 T ABORTP_Handler
a00098bc t ABORTP_Handler_Ptr
a000987c T ABORTP_SubHandler
a0000024 t ABORTP_SubHandler_Trampoline
a0021d70 B ABORT_recursion_counter
a0000000 T ARM_Vectors
00000000 a BUILD_RTM
00000000 a BUILD_RTM
00000000 a BUILD_RTM
00000000 a BUILD_RTM
a00084f0 T BootEntry
a00000a0 t BootEntryPointer
00000001 a COMPILE_ARM
00000001 a COMPILE_ARM
00000001 a COMPILE_ARM
00000001 a COMPILE_ARM
a0000074 t ClearZI_ER_RAM
a0007db8 T Crypto_AbortRSAOperation
a0007da8 T Crypto_StartRSAOperationWithKey
a0007db0 T Crypto_StepRSAOperation
a0000000 T EntryPoint
00000001 a HAL_REDUCESIZE
00000001 a HAL_REDUCESIZE
00000001 a HAL_REDUCESIZE
a00066a4 T HAL_Time_CurrentTicks
a0009904 T HARD_Breakpoint
a0009f44 T HARD_Breakpoint_Handler
a0009928 t HARD_Breakpoint_Handler_Ptr
a0015778 T HalName
a00176e0 D HalSystemConfig
a001e068 B Hal_Usart_State
a0100000 R HeapBegin
a0200000 R HeapEnd
a001623c T IDelayLoop
a0016248 T IDelayLoop2
a001623c t IDelayLoop__Fi_b
a0007870 T IRQ_Handler
a001621c T IRQ_LOCK_Disable_asm
a00161ec T IRQ_LOCK_ForceDisabled_asm
a0016204 T IRQ_LOCK_ForceEnabled_asm
a00161dc T IRQ_LOCK_GetState_asm
a00161c8 T IRQ_LOCK_Probe_asm
a00161b8 T IRQ_LOCK_Release_asm
a001622c T IRQ_LOCK_Restore_asm
a000002c T IRQ_SubHandler_Trampoline
00017510 A Image$$ER_FLASH$$Length
40000000 N Image$$ER_IRAM$$Base
00000000 A Image$$ER_IRAM$$Length
40000040 N Image$$ER_IRAM_TC$$Base
00000000 A Image$$ER_IRAM_TC$$Length
a0000000 T Image$$ER_RAM_RO$$Base
00017510 A Image$$ER_RAM_RO$$Length
a0017510 D Image$$ER_RAM_RW$$Base
00000aa8 A Image$$ER_RAM_RW$$Length
a0017fc0 B Image$$ER_RAM_RW$$ZI$$Base
00009f48 A Image$$ER_RAM_RW$$ZI$$Length
a001e060 B LOAD_IMAGE_CalcCRC
a001e05c B LOAD_IMAGE_Length
a001e058 B LOAD_IMAGE_Start
a0000000 T Load$$ER_FLASH$$Base
a0021f08 A Load$$ER_IRAM$$Base
40000040 A Load$$ER_IRAM_TC$$Base
a0000000 A Load$$ER_RAM_RO$$Base
a0017510 A Load$$ER_RAM_RW$$Base
a001e03c b LoggingCallback
a0000080 t NoClearZI_ER_RAM
00000001 a PLATFORM_ARM_LPC24XX
00000001 a PLATFORM_ARM_LPC24XX
00000001 a PLATFORM_ARM_LPC24XX
00000001 a PLATFORM_ARM_LPC24XX
00000001 a PLATFORM_ARM_plak1a_LPC2478
00000001 a PLATFORM_ARM_plak1a_LPC2478
00000001 a PLATFORM_ARM_plak1a_LPC2478
00000001 a PLATFORM_ARM_plak1a_LPC2478
000000d7 a PSR_MODE_ABORT
000000d7 a PSR_MODE_ABORT
000000d1 a PSR_MODE_FIQ
000000d1 a PSR_MODE_FIQ
000000d2 a PSR_MODE_IRQ
000000d2 a PSR_MODE_IRQ
000000d3 a PSR_MODE_SUPERVISOR
000000d3 a PSR_MODE_SUPERVISOR
000000df a PSR_MODE_SYSTEM
000000df a PSR_MODE_SYSTEM
000000db a PSR_MODE_UNDEF
000000db a PSR_MODE_UNDEF
000000d0 a PSR_MODE_USER
000000d0 a PSR_MODE_USER
a001ed70 B RxBuffer_Com
00000010 a STACK_MODE_ABORT
00000800 a STACK_MODE_IRQ
00000010 a STACK_MODE_UNDEF
a02ffff8 R StackBottom
a0300000 R StackTop
a00192c8 B SystemEvents
a0008020 T SystemState_ClearNoLock
a0008038 T SystemState_QueryNoLock
a0008008 T SystemState_SetNoLock
a001e040 B SystemStates
00000001 a TARGETLOCATION_FLASH
00000001 a TARGETLOCATION_FLASH
00000001 a TARGETLOCATION_FLASH
00000001 a TARGETLOCATION_FLASH
a00066c0 T Time_CurrentTicks
a001e170 B TxBuffer_Com
a000a0c8 T UNDEF_Handler
a0009878 t UNDEF_Handler_Ptr
a0009838 T UNDEF_SubHandler
a0000020 t UNDEF_SubHandler_Trampoline
a0000030 t VectorAreaSkip
a0010cf0 T _Balloc
a0010878 T _Bfree
a0013918 T _Unwind_Complete
a001391c T _Unwind_DeleteException
a00147ec T _Unwind_ForcedUnwind
a0013910 T _Unwind_GetCFA
a0014874 T _Unwind_GetDataRelBase
a001487c t _Unwind_GetGR
a00137ac t _Unwind_GetGR
a00148b4 T _Unwind_GetLanguageSpecificData
a00148d8 T _Unwind_GetRegionStart
a001486c T _Unwind_GetTextRelBase
a0014780 T _Unwind_RaiseException
a00147a4 T _Unwind_Resume
a00147c8 T _Unwind_Resume_or_Rethrow
a0013828 t _Unwind_SetGR
a0013760 T _Unwind_VRS_Get
a00142a8 T _Unwind_VRS_Pop
a00137dc T _Unwind_VRS_Set
a001374c t _Unwind_decode_target2
a0005730 T _Z10Events_Setj
a000930c T _Z10USART_ReadiPcj
a0007fd4 T _Z10hal_printfPKcz
a00090c4 T _Z11USART_Flushi
a0009598 T _Z11USART_WriteiPKcj
a0007f6c T _Z11hal_fprintfiPKcz
a0007fa0 T _Z11hal_vprintfPKcPv
a0000c04 t _Z12AccessMemoryjjPhi
a00056dc T _Z12Events_Clearj
a000788c T _Z12HAL_AssertExv
a0005bd8 T _Z12HeapLocationRPhRj
a0007d98 T _Z12SOCKETS_ReadiPcj
a0007dd0 T _Z12hal_strlen_sPKc
a0007e74 T _Z12hal_vfprintfiPKcPv
a000a7a0 T _Z13FS_AddVolumesv
a000a7a4 T _Z13FS_Initializev
a0007da0 T _Z13SOCKETS_Flushi
a0007d90 T _Z13SOCKETS_WriteiPKcj
a0009800 T _Z13USB_ConfigureiPK25USB_DYNAMIC_CONFIGURATION
a0007dec T _Z13hal_strncpy_sPcjPKcj
a0007e58 T _Z13hal_vsnprintfPcjPKcPv
a00079ac T _Z14CPU_Initializev
a0008318 T _Z14HAL_Initializev
a000a7bc T _Z14I2C_Initializev
a000a7c4 T _Z14Ink_Initializev
a0005798 T _Z14LCD_Initializev
a00097f8 T _Z14USB_Initializei
a0009810 T _Z14USB_OpenStreamiii
a0000148 T _Z15Bootstrap_Delayi
a0003b04 T _Z15LZ77_DecompressPhiS_i
a000a8d8 T _Z15Time_Initializev
a0009818 T _Z15USB_CloseStreami
a00057a0 T _Z16LCD_Uninitializev
a000a8c4 T _Z16Piezo_Initializev
a00097cc T _Z16USART_Initializeiiiiii
a0009808 T _Z16USB_Uninitializei
a000a85c T _Z16Watchdog_Disablev
a0007dc0 T _Z17CPU_DisableCachesv
a000520c T _Z17DebuggerPort_ReadiPcj
a0005520 T _Z17Events_Initializev
a00054fc T _Z17Events_MaskedReadj
a0000524 T _Z17Initialize_SyncOnv
a000a798 T _Z18Battery_Initializev
a00002d8 T _Z18BootstrapCode_Pinsv
a0005bbc T _Z18Buttons_Initializev
a000a82c T _Z18CPU_SPI_Initializev
a00065f0 T _Z18CPU_TicksPerSecondv
a000a790 T _Z18Charger_Initializev
a000a8c8 T _Z18CustomHeapLocationRPhRj
a00051a0 T _Z18DebuggerPort_Flushi
a0005278 T _Z18DebuggerPort_WriteiPKcj
a000a7b4 T _Z18Gesture_Initializev
a0007d80 T _Z18SOCKETS_Initializei
a0003ac0 T _Z18SUPPORT_ComputeCRCPKvij
a0007b04 T _Z18SimpleHeap_ReleasePv
a0009650 T _Z18USART_Uninitializei
a00000b4 T _Z19BootstrapCode_Dummyv
a0005f64 T _Z19CPU_GPIO_DisablePinj13GPIO_RESISTORj13GPIO_ALT_MODE
a0006560 T _Z19CPU_GPIO_Initializev
a0007604 T _Z19CPU_INTC_Initializev
a0007dc8 T _Z19CPU_USB_ProtectPinsij
a0006b18 T _Z19HAL_Time_Initializev
a0006a2c T _Z19HAL_Time_SetComparey
a000a8bc T _Z19PalEvent_Initializev
a0007a20 T _Z19SimpleHeap_Allocatej
a00080d4 T _Z19Verify_RAMConstantsPv
a00099cc T _Z20ABORT_HandlerDisplayPjjjjPKcj
a000a788 T _Z20BackLight_Initializev
a00001b0 T _Z20BootstrapCode_Clocksv
a0006114 T _Z20CPU_GPIO_GetPinStatej
a0006090 T _Z20CPU_GPIO_SetPinStatejj
a000740c T _Z20CPU_USART_Initializeiiiiii
a000081c W _Z20Events_WaitForEventsjj
a0005578 T _Z20Events_WaitForEventsjjj
a00082d0 W _Z20HAL_Init_Custom_Heapv
a0006b34 T _Z20HAL_Time_TicksToTimey
a0007d88 T _Z20SOCKETS_Uninitializei
a0009944 T _Z20monitor_debug_printfPKcz
a000371c T _Z21ApplicationEntryPointv
a00071c4 T _Z21CPU_USART_ProtectPinsij
a0008054 T _Z21Checksum_RAMConstantsv
a00079e8 T _Z21SimpleHeap_InitializePvj
a0000294 T _Z22BootstrapCode_Ext_SRAMv
a00058f8 T _Z22Buttons_CurrentHWStatev
a00071a8 T _Z22CPU_USART_Uninitializei
a00057ac T _Z22LCD_WriteFormattedCharh
a000a8fc T _Z22TimeService_Initializev
a000992c T _Z22Watchdog_GetSetEnabledjj
a0009934 T _Z22Watchdog_GetSetTimeoutij
a000a748 T _Z23BlockStorage_AddDevicesv
a0000298 T _Z23BootstrapCode_Ext_Flashv
a0000334 T _Z23BootstrapCode_Ext_SDRAMv
a0006460 T _Z23CPU_GPIO_EnableInputPinjjPFvjjPvE13GPIO_INT_EDGE13GPIO_RESISTOR
a00160c0 T _Z23CPU_MicrosecondsToTicksj
a00160a0 T _Z23CPU_MicrosecondsToTicksy
a00065fc T _Z23CPU_MillisecondsToTicksj
a0006e08 T _Z23CPU_USART_TxBufferEmptyi
a0005408 T _Z23DebuggerPort_Initializei
a0008d9c T _Z23USART_AddCharToRxBufferic
a0000844 T _Z23WaitForTinyBooterUploadRi
a000993c T _Z23Watchdog_GetSetBehavior17Watchdog_Behaviorj
a00057e8 T _Z24Buttons_HW_To_Hal_Buttonj
a000a914 T _Z24CPU_EBIU_Memory_ReadOnlyRK17CPU_MEMORY_CONFIGj
a0006234 T _Z24CPU_GPIO_EnableOutputPinjj
a0007dc4 T _Z24CPU_GetUncachableAddressj
a00000b8 T _Z24PrepareImageRegions_IRAMv
a0000644 T _Z24TinyBooter_OnStateChange16_TinyBooterStatePvPS0_
a0005380 T _Z25DebuggerPort_Uninitializei
a0000594 T _Z25TinyBooter_GetReleaseInfoR13MfReleaseInfo
a000598c T _Z26Buttons_GetNextStateChangeRjS_
a000a910 T _Z26CPU_EBIU_ConfigMemoryBlockRK17CPU_MEMORY_CONFIG
a00077ac T _Z26CPU_INTC_ActivateInterruptjPFvPvES_
a0005a90 T _Z27Buttons_RegisterStateChangejj
a00065cc T _Z27HAL_Time_GetDriftParametersPiS_Px
a00066dc T _Z27HAL_Time_Sleep_MicroSecondsj
a0000100 T _Z27PrepareImageRegions_IRAM_TCv
a0000574 T _Z27Tinybooter_ProgramWordCheckv
a0000580 T _Z28Tinybooter_ImageIsCompressedv
a0008ba4 T _Z28USART_RemoveCharFromTxBufferiRc
a00076e4 T _Z29CPU_INTC_InterruptEnableStatej
a0005138 T _Z29CPU_ProtectCommunicationGPIOsj
a0006dec T _Z29CPU_USART_WriteCharToTxBufferih
a0006d60 T _Z30CPU_USART_TxShiftRegisterEmptyi
a0000588 T _Z31Tinybooter_CompressedImageStartRK22CompressedImage_Header
a0007438 T _Z33CPU_USART_TxHandshakeEnabledStatei
a0006e90 T _Z37CPU_USART_RxBufferFullInterruptEnableij
a0006d1c T _Z37CPU_USART_TxBufferEmptyInterruptStatei
a00071e0 T _Z38CPU_USART_TxBufferEmptyInterruptEnableij
a0000590 T _Z39Tinybooter_PrepareForDecompressedLaunchv
a0006620 T _Z44HAL_Time_Sleep_MicroSeconds_InterruptEnabledj
a0000460 T _Z7delayMsjj
a0007940 T _Z8CPU_Haltv
a00004d0 T _Z8GetFpclkj
a0000154 T _Z8GetFsclkv
a0009828 T _Z8USB_ReadiPcj
a00078d8 T _Z9CPU_Resetv
a00079c8 T _Z9CPU_Sleep11SLEEP_LEVELy
a00057a8 T _Z9LCD_Clearv
a0009830 T _Z9USB_Flushi
a0009820 T _Z9USB_WriteiPKcj
a000a91c T _ZN10TimeDriver10InitializeEv
a0021da0 B _ZN10TimeDriver13m_initializedE
a0003cb0 T _ZN10WP_Message10InitializeEP13WP_Controller
a0003e0c T _ZN10WP_Message12PrepareReplyERK9WP_PacketjjPh
a0003dc4 T _ZN10WP_Message12VerifyHeaderEv
a0003d74 T _ZN10WP_Message13VerifyPayloadEv
a0003ed0 T _ZN10WP_Message14PrepareRequestEjjjPh
a0004008 T _ZN10WP_Message14ReplyBadPacketEj
a0003c40 T _ZN10WP_Message16PrepareReceptionEv
a0004084 T _ZN10WP_Message7ProcessEv
a0003c4c T _ZN10WP_Message7ReleaseEv
a0003444 T _ZN11CryptoState15VerifySignatureEj
a0003410 T _ZN11CryptoStateC1EjjPhjj
a00036f4 T _ZN11CryptoStateD1Ev
a000657c W _ZN11LPC24XX_VIC14ForceInterruptEj
a0007688 W _ZN11LPC24XX_VIC18IsInterruptEnabledEj
a000759c W _ZN11LPC24XX_VIC21RemoveForcedInterruptEj
a0007574 W _ZN12HAL_CALLBACK10InitializeEPFvPvES0_
a0007c10 T _ZN12SmartPtr_IRQ11WasDisabledEv
a0007cd8 T _ZN12SmartPtr_IRQ12ForceEnabledEPv
a0007cf4 T _ZN12SmartPtr_IRQ13ForceDisabledEPv
a0007d2c T _ZN12SmartPtr_IRQ5ProbeEv
a0007c8c T _ZN12SmartPtr_IRQ7AcquireEv
a0007c68 T _ZN12SmartPtr_IRQ7DisableEv
a0007d50 T _ZN12SmartPtr_IRQ7ReleaseEv
a0007c20 T _ZN12SmartPtr_IRQ7RestoreEv
a0007d10 T _ZN12SmartPtr_IRQ8GetStateEPv
a0007cb0 T _ZN12SmartPtr_IRQC1EPv
a0007c44 T _ZN12SmartPtr_IRQD1Ev
a000966c T _ZN12USART_Driver10InitializeEiiiiii
a00095b4 T _ZN12USART_Driver12UninitializeEi
a0008bc0 T _ZN12USART_Driver17AddCharToRxBufferEic
a0008abc T _ZN12USART_Driver22RemoveCharFromTxBufferEiRc
a00090e0 T _ZN12USART_Driver4ReadEiPcj
a0008db8 T _ZN12USART_Driver5FlushEi
a0009328 T _ZN12USART_Driver5WriteEiPKcj
a00089f8 T _ZN12USART_Driver7SendXONEij
a0008a58 T _ZN12USART_Driver8SendXOFFEij
a0008940 T _ZN12USART_Driver8SetEventEij
a0006590 W _ZN13LPC24XX_TIMER8getIntNoEi
a0006c4c W _ZN13LPC24XX_USART8getIntNoEi
a0002d4c T _ZN13Loader_Engine10InitializeEi
a0000a8c T _ZN13Loader_Engine11App_ReleaseEPvP10WP_Message
a000165c T _ZN13Loader_Engine12Monitor_PingEP10WP_Message
a0001860 T _ZN13Loader_Engine14Monitor_RebootEP10WP_Message
a00018c4 T _ZN13Loader_Engine14ProcessPayloadEP10WP_Message
a00016a8 T _ZN13Loader_Engine14ReplyToCommandEP10WP_Messagebb
a00012e8 T _ZN13Loader_Engine14ReplyToCommandEP10WP_MessagebbPvi
a0002468 T _ZN13Loader_Engine15Monitor_ExecuteEP10WP_Message
a00015e4 T _ZN13Loader_Engine15Monitor_OemInfoEP10WP_Message
a0001cec T _ZN13Loader_Engine15ProcessCommandsEv
a0000a38 T _ZN13Loader_Engine15SignedDataState10CheckDirtyEv
a00028e4 T _ZN13Loader_Engine15SignedDataState15VerifySignatureEPhjj
a0002328 T _ZN13Loader_Engine15SignedDataState19EraseMemoryAndResetEv
a0002000 T _ZN13Loader_Engine15SignedDataState20VerifyContiguousDataEjj
a0000a58 T _ZN13Loader_Engine15SignedDataState5ResetEv
a00019d8 T _ZN13Loader_Engine15TransmitMessageEPK10WP_Messageb
a0002df8 T _ZN13Loader_Engine16Phy_ReceiveBytesEPvRPhRj
a0002e58 T _ZN13Loader_Engine17App_ProcessHeaderEPvP10WP_Message
a00023a0 T _ZN13Loader_Engine17Monitor_MemoryMapEP10WP_Message
a0001998 T _ZN13Loader_Engine18App_ProcessPayloadEPvP10WP_Message
a0001bb0 T _ZN13Loader_Engine18EnumerateAndLaunchEv
a0002824 T _ZN13Loader_Engine18Monitor_ReadMemoryEP10WP_Message
a00026b0 T _ZN13Loader_Engine19Monitor_CheckMemoryEP10WP_Message
a00025f4 T _ZN13Loader_Engine19Monitor_EraseMemoryEP10WP_Message
a0002764 T _ZN13Loader_Engine19Monitor_WriteMemoryEP10WP_Message
a0001a64 T _ZN13Loader_Engine19Phy_TransmitMessageEPvPK10WP_Message
a0002aa8 T _ZN13Loader_Engine22Monitor_CheckSignatureEP10WP_Message
a00013a4 T _ZN13Loader_Engine22Monitor_FlashSectorMapEP10WP_Message
a00016d0 T _ZN13Loader_Engine26Monitor_SignatureKeyUpdateEP10WP_Message
a0001a84 T _ZN13Loader_Engine6LaunchEPFvvE
a000127c T _ZN13MfReleaseInfo4InitERS_ttttPKcj
a0003d00 T _ZN13WP_Controller10InitializeEPKcPK16WP_PhysicalLayerPK19WP_ApplicationLayerPv
a00043ac T _ZN13WP_Controller12AdvanceStateEv
a0003c8c T _ZN13WP_Controller19SendProtocolMessageERK10WP_Message
a0003f88 T _ZN13WP_Controller19SendProtocolMessageEjjjPh
a000a650 T _ZN14HAL_COMPLETION14DequeueAndExecEv
a000a260 T _ZN14HAL_COMPLETION14InitializeListEv
a0005554 W _ZN14HAL_COMPLETION16InitializeForISREPFvPvES0_
a000a594 T _ZN14HAL_COMPLETION17WaitForInterruptsEyjy
a000a4ec T _ZN14HAL_COMPLETION5AbortEv
a000a404 T _ZN14HAL_COMPLETION7ExecuteEv
a000795c T _ZN14LPC24XX_Driver10InitializeEv
a00078f4 T _ZN14LPC24XX_Driver4HaltEv
a00078bc T _ZN14LPC24XX_Driver5ResetEv
a000789c T _ZN14LPC24XX_Driver8ShutdownEv
a0002128 W _ZN15BitFieldManager17SetDirtySectorBitEj
a0000a18 W _ZN15BitFieldManager20ResetBitFieldManagerEv
a00022c8 W _ZN15BitFieldManager24InvalidateSectorBitFieldEv
a0000ab4 W _ZN15BitFieldManager24ResetSignatureCheckArrayEv
a0002b3c W _ZN15BitFieldManager25EraseOnSignatureCheckFailEv
a0001d0c W _ZN15BitFieldManager27GetNextSectorSignatureCheckEP18BlockStorageDeviceR16SECTOR_BIT_FIELD
a000470c T _ZN16BlockStorageList10InitializeEv
a00192b4 B _ZN16BlockStorageList12s_deviceListE
a0004f34 T _ZN16BlockStorageList13GetNextDeviceER18BlockStorageDevice
a00192b0 B _ZN16BlockStorageList13s_InitializedE
a0004690 T _ZN16BlockStorageList14GetFirstDeviceEv
a00192c0 B _ZN16BlockStorageList15s_primaryDeviceE
a0004f68 T _ZN16BlockStorageList17InitializeDevicesEv
a000505c T _ZN16BlockStorageList28FindDeviceForPhysicalAddressEPP18BlockStorageDevicejRj
a0004e98 T _ZN16BlockStorageList9AddDeviceEP18BlockStorageDeviceP19IBlockStorageDevicePvj
a000a780 T _ZN16HAL_CONFIG_BLOCK11ApplyConfigEPKcPvj
a000a23c T _ZN16HAL_CONTINUATION14InitializeListEv
a000a180 T _ZN16HAL_CONTINUATION18InitializeCallbackEPFvPvES0_
a000a430 T _ZN16HAL_CONTINUATION19Dequeue_And_ExecuteEv
a000a39c T _ZN16HAL_CONTINUATION7EnqueueEv
a000a1fc W _ZN17HAL_DblLinkedListI16HAL_CONTINUATIONE10InitializeEv
a000a310 W _ZN17HAL_DblLinkedListI16HAL_CONTINUATIONE10LinkAtBackEPS0_
a000a368 W _ZN17HAL_DblLinkedListI16HAL_CONTINUATIONE16ExtractFirstNodeEv
a000a2b0 W _ZN17HAL_DblLinkedListI16HAL_CONTINUATIONE16InsertBeforeNodeEPS0_S2_
a000a29c W _ZN17HAL_DblLinkedListI16HAL_CONTINUATIONE6InsertEPS0_S2_S2_
a00046cc W _ZN17HAL_DblLinkedListI18BlockStorageDeviceE10InitializeEv
a00047d0 W _ZN17HAL_DblLinkedListI18BlockStorageDeviceE10LinkAtBackEPS0_
a0004770 W _ZN17HAL_DblLinkedListI18BlockStorageDeviceE16InsertBeforeNodeEPS0_S2_
a000475c W _ZN17HAL_DblLinkedListI18BlockStorageDeviceE6InsertEPS0_S2_S2_
a0005510 W _ZN17HAL_DblLinkedNodeI16HAL_CONTINUATIONE10InitializeEv
a000a284 W _ZN17HAL_DblLinkedNodeI16HAL_CONTINUATIONE14RemoveFromListEv
a000a158 W _ZN17HAL_DblLinkedNodeI16HAL_CONTINUATIONE6UnlinkEv
a0004668 W _ZN17HAL_DblLinkedNodeI18BlockStorageDeviceE10InitializeEv
a0004744 W _ZN17HAL_DblLinkedNodeI18BlockStorageDeviceE14RemoveFromListEv
a0000550 W _ZN18BlockStorageDevice13GetDeviceInfoEv
a00009d0 W _ZN18BlockStorageDevice13IsBlockErasedEjj
a00043d4 W _ZN18BlockStorageDevice16InitializeDeviceEv
a00045d0 W _ZN18BlockStorageDevice17FindForBlockUsageEjRjS0_S0_
a000461c W _ZN18BlockStorageDevice18FindNextUsageBlockEjRjS0_S0_
a0000600 W _ZN18BlockStorageDevice21FindRegionFromAddressEjRjS0_
a0000980 W _ZN18BlockStorageDevice4ReadEjjPh
a00009a4 W _ZN18BlockStorageDevice5WriteEjjPhj
a0004e78 T _ZN18BlockStorageStream10InitializeEj
a0004dd4 T _ZN18BlockStorageStream10InitializeEjP18BlockStorageDevice
a0004810 T _ZN18BlockStorageStream10NextStreamEv
a0004b24 T _ZN18BlockStorageStream10PrevStreamEv
a00043f8 T _ZN18BlockStorageStream14CurrentAddressEv
a00049f4 T _ZN18BlockStorageStream4ReadEPPhj
a0004ce4 T _ZN18BlockStorageStream4SeekEiNS_10SeekOriginE
a0005aec T _ZN18GPIO_BUTTON_Driver10InitializeEv
a000589c T _ZN18GPIO_BUTTON_Driver14CurrentHWStateEv
a00057b0 T _ZN18GPIO_BUTTON_Driver16HW_To_Hal_ButtonEj
a0005914 T _ZN18GPIO_BUTTON_Driver18GetNextStateChangeERjS0_
a00059a8 T _ZN18GPIO_BUTTON_Driver19RegisterStateChangeEjj
a0005aac T _ZN18GPIO_BUTTON_Driver3ISREjjPv
a000a7cc T _ZN18LPC24XX_SPI_Driver10InitializeEv
a00075b0 T _ZN18LPC24XX_VIC_Driver10InitializeEv
a0017510 D _ZN18LPC24XX_VIC_Driver10s_IsrTableE
a00077d4 T _ZN18LPC24XX_VIC_Driver11IRQ_HandlerEv
a0007620 T _ZN18LPC24XX_VIC_Driver14IRQToIRQVectorEj
a0007650 T _ZN18LPC24XX_VIC_Driver14STUB_ISRVectorEPv
a0007700 T _ZN18LPC24XX_VIC_Driver17ActivateInterruptEjjPFvPvES0_
a00076bc T _ZN18LPC24XX_VIC_Driver20InterruptEnableStateEj
a0016748 T _ZN19AT49BV_16_BS_Driver10EraseBlockEPvj
a001655c T _ZN19AT49BV_16_BS_Driver12ChipReadOnlyEPvjj
a001641c T _ZN19AT49BV_16_BS_Driver13Action_ReadIDEPvRjS1_
a001625c T _ZN19AT49BV_16_BS_Driver13GetDeviceInfoEPv
a0016508 T _ZN19AT49BV_16_BS_Driver13IsBlockErasedEPvjj
a0016ab4 T _ZN19AT49BV_16_BS_Driver13ReadProductIDEPvRjS1_
a0016274 T _ZN19AT49BV_16_BS_Driver13SetPowerStateEPvj
a0016b04 T _ZN19AT49BV_16_BS_Driver14ChipInitializeEPv
a0016290 T _ZN19AT49BV_16_BS_Driver16Action_UnprotectEPvPVt
a0016294 T _ZN19AT49BV_16_BS_Driver16Action_WriteWordEPvPVtt
a0016254 T _ZN19AT49BV_16_BS_Driver16ChipUnInitializeEPv
a0016264 T _ZN19AT49BV_16_BS_Driver17GetSectorMetadataEPvjP14SectorMetadata
a001626c T _ZN19AT49BV_16_BS_Driver17SetSectorMetadataEPvjP14SectorMetadata
a0016350 T _ZN19AT49BV_16_BS_Driver18Action_EraseSectorEPvPVt
a0016284 T _ZN19AT49BV_16_BS_Driver18MaxBlockErase_uSecEPv
a0016278 T _ZN19AT49BV_16_BS_Driver19MaxSectorWrite_uSecEPv
a00164b8 T _ZN19AT49BV_16_BS_Driver4ReadEPvjjPh
a00167fc T _ZN19AT49BV_16_BS_Driver5WriteEPvjjPhj
a0016714 T _ZN19AT49BV_16_BS_Driver6MemsetEPvjhj
a00165f0 T _ZN19AT49BV_16_BS_Driver6WriteXEPvjjPhjj
a0005804 W _ZN19Hal_Queue_KnownSizeIN18GPIO_BUTTON_Driver19BUTTON_STATE_CHANGEELj64EE10InitializeEv
a0005858 W _ZN19Hal_Queue_KnownSizeIN18GPIO_BUTTON_Driver19BUTTON_STATE_CHANGEELj64EE3PopEv
a0005818 W _ZN19Hal_Queue_KnownSizeIN18GPIO_BUTTON_Driver19BUTTON_STATE_CHANGEELj64EE4PushEv
a0005eb0 T _ZN19LPC24XX_GPIO_Driver10DisablePinEj13GPIO_RESISTORj13GPIO_ALT_MODE
a0006488 T _ZN19LPC24XX_GPIO_Driver10InitializeEv
a00060ac T _ZN19LPC24XX_GPIO_Driver11GetPinStateEj
a0005e88 W _ZN19LPC24XX_GPIO_Driver11PinToPCBRegEj
a0005fd0 T _ZN19LPC24XX_GPIO_Driver11SetPinStateEjj
a0006250 T _ZN19LPC24XX_GPIO_Driver14EnableInputPinEjjPFvjjPvES0_13GPIO_INT_EDGE13GPIO_RESISTOR
a0005e5c W _ZN19LPC24XX_GPIO_Driver14PinToPCBRegBitEj
a0005e34 T _ZN19LPC24XX_GPIO_Driver14STUB_ISRVectorEjjPv
a0006130 T _ZN19LPC24XX_GPIO_Driver15EnableOutputPinEjj
a0005bf8 T _ZN19LPC24XX_GPIO_Driver18PIN_ISR_DESCRIPTOR4FireEPv
a0005c20 T _ZN19LPC24XX_GPIO_Driver8GPIO_ISREPv
a0005f80 W _ZN19LPC24XX_GPIO_Driver8PinToBitEj
a0005fa8 W _ZN19LPC24XX_GPIO_Driver9PinToPortEj
a0006a8c T _ZN19LPC24XX_TIME_Driver10InitializeEv
a00160f4 T _ZN19LPC24XX_TIME_Driver10Sleep_uSecEj
a000663c T _ZN19LPC24XX_TIME_Driver12CounterValueEv
a000686c T _ZN19LPC24XX_TIME_Driver15SetCompareValueEy
a00160cc T _ZN19LPC24XX_TIME_Driver15Sleep_uSec_LoopEj
a0006990 T _ZN19LPC24XX_TIME_Driver3ISREPv
a000a7a8 T _ZN20FileSystemVolumeList10InitializeEv
a000a7ac T _ZN20FileSystemVolumeList17InitializeVolumesEv
a0006b38 T _ZN20LPC24XX_TIMER_Driver10InitializeEjPFvPvES0_
a000682c W _ZN20LPC24XX_TIMER_Driver10SetCompareEjj
a001617c T _ZN20LPC24XX_TIMER_Driver11ReadCounterEj
a00067ec W _ZN20LPC24XX_TIMER_Driver13DidCompareHitEj
a00066f8 W _ZN20LPC24XX_TIMER_Driver14ForceInterruptEj
a00067ac W _ZN20LPC24XX_TIMER_Driver15ResetCompareHitEj
a0006a48 W _ZN20LPC24XX_TIMER_Driver22EnableCompareInterruptEj
a00071fc T _ZN20LPC24XX_USART_Driver10InitializeEiiiiii
a0006f90 T _ZN20LPC24XX_USART_Driver11ProtectPinsEij
a000711c T _ZN20LPC24XX_USART_Driver12UninitializeEi
a0006d7c T _ZN20LPC24XX_USART_Driver13TxBufferEmptyEi
a0007440 T _ZN20LPC24XX_USART_Driver15UART_IntHandlerEPv
a0006da4 T _ZN20LPC24XX_USART_Driver19WriteCharToTxBufferEih
a0006d38 T _ZN20LPC24XX_USART_Driver20TxShiftRegisterEmptyEi
a0006e24 T _ZN20LPC24XX_USART_Driver27RxBufferFullInterruptEnableEij
a0006ce8 T _ZN20LPC24XX_USART_Driver27TxBufferEmptyInterruptStateEi
a0006eac T _ZN20LPC24XX_USART_Driver28TxBufferEmptyInterruptEnableEij
a0008788 W _ZN21Hal_Queue_UnknownSizeIhE10InitializeEPhj
a00088b0 W _ZN21Hal_Queue_UnknownSizeIhE16NumberOfElementsEv
a0008824 W _ZN21Hal_Queue_UnknownSizeIhE3PopERj
a000873c W _ZN21Hal_Queue_UnknownSizeIhE3PopEv
a00087a4 W _ZN21Hal_Queue_UnknownSizeIhE4PushERj
a00088fc W _ZN21Hal_Queue_UnknownSizeIhE4PushEv
a00088dc W _ZN21Hal_Queue_UnknownSizeIhE7IsEmptyEv
a000a848 T _ZN23LPC24XX_WATCHDOG_Driver7DisableEv
a000a878 T _ZN23LPC24XX_WATCHDOG_Driver8ResetCpuEv
a0002fd4 T _ZN26ConfigurationSectorManager17GetDeploymentKeysEj
a0002f6c T _ZN26ConfigurationSectorManager17LoadConfigurationEv
a0003278 T _ZN26ConfigurationSectorManager18UpdateSignatureKeyEjPh
a00030e8 T _ZN26ConfigurationSectorManager18WriteConfigurationEjPhjj
a00032a8 T _ZN26ConfigurationSectorManager19CleanBootLoaderFlagEv
a000301c T _ZN26ConfigurationSectorManager19VerifiySignatureKeyEjPh
a0002f54 T _ZN26ConfigurationSectorManager20GetTinyBooterVersionEv
a0002e94 T _ZN26ConfigurationSectorManager20IsBootLoaderRequiredERi
a000307c T _ZN26ConfigurationSectorManager21EraseWriteConfigBlockEPhj
a0002f14 T _ZN26ConfigurationSectorManager22CheckSignatureKeyEmptyEj
a00032e8 T _ZN26ConfigurationSectorManager25LocateConfigurationSectorEj
a0006c88 W _ZN7LPC24XX4UARTEi
a000674c W _ZN7LPC24XX5TIMEREi
a00008cc W _ZN7Version4InitERS_tttt
a0000904 W _ZNK10BlockRange13GetBlockCountEv
a00043cc W _ZNK10BlockRange13GetBlockUsageEv
a00008e4 W _ZNK10BlockRange8IsConfigEv
a000757c W _ZNK12HAL_CALLBACK7ExecuteEv
a000459c T _ZNK15BlockDeviceInfo17FindForBlockUsageEjRjS0_S0_
a00044dc T _ZNK15BlockDeviceInfo18FindNextUsageBlockEjRjS0_S0_
a0004404 T _ZNK15BlockDeviceInfo21FindRegionFromAddressEjRjS0_
a0000914 W _ZNK15BlockRegionInfo12BlockAddressEj
a0000924 W _ZNK15BlockRegionInfo15OffsetFromBlockEj
a0000954 W _ZNK15BlockRegionInfo21BlockIndexFromAddressEj
a000a904 W _ZNK15BlockRegionInfo4SizeEv
a000a138 W _ZNK16HAL_CONTINUATION7ExecuteEv
a000a350 W _ZNK17HAL_DblLinkedListI16HAL_CONTINUATIONE14FirstValidNodeEv
a000a1f8 W _ZNK17HAL_DblLinkedListI16HAL_CONTINUATIONE4HeadEv
a000a1c4 W _ZNK17HAL_DblLinkedListI16HAL_CONTINUATIONE4TailEv
a000a1cc W _ZNK17HAL_DblLinkedListI16HAL_CONTINUATIONE7IsEmptyEv
a0004678 W _ZNK17HAL_DblLinkedListI18BlockStorageDeviceE14FirstValidNodeEv
a00046c8 W _ZNK17HAL_DblLinkedListI18BlockStorageDeviceE4HeadEv
a00046c0 W _ZNK17HAL_DblLinkedListI18BlockStorageDeviceE4TailEv
a00009f4 W _ZNK18BlockStorageDevice10EraseBlockEj
a0021da4 b _ZZN10TimeDriver16DateTimeToStringERKxE8rgBuffer
a0021e24 b _ZZN10TimeDriver16TimeSpanToStringERKxE8rgBuffer
a00176d8 d _ZZN20LPC24XX_USART_Driver11ProtectPinsEijE18COM1_PinsProtected
a00176dc d _ZZN20LPC24XX_USART_Driver11ProtectPinsEijE18COM2_PinsProtected
a00176d0 d _ZZN20LPC24XX_USART_Driver11ProtectPinsEijE18COM3_PinsProtected
a00176d4 d _ZZN20LPC24XX_USART_Driver11ProtectPinsEijE18COM4_PinsProtected
a00147ec T ___Unwind_ForcedUnwind
a0014780 T ___Unwind_RaiseException
a00147a4 T ___Unwind_Resume
a00147c8 T ___Unwind_Resume_or_Rethrow
a00121bc T __adddf3
a0012b18 T __aeabi_cdcmpeq
a0012b18 T __aeabi_cdcmple
a0012afc T __aeabi_cdrcmple
a0012ba8 T __aeabi_d2iz
a00121bc T __aeabi_dadd
a0012b30 T __aeabi_dcmpeq
a0012b78 T __aeabi_dcmpge
a0012b90 T __aeabi_dcmpgt
a0012b60 T __aeabi_dcmple
a0012b48 T __aeabi_dcmplt
a001285c T __aeabi_ddiv
a00125cc T __aeabi_dmul
a00121b0 T __aeabi_drsub
a00121b8 T __aeabi_dsub
a0012518 T __aeabi_f2d
a00124f0 T __aeabi_i2d
a00121ac T __aeabi_idiv0
a001256c T __aeabi_l2d
a00121ac T __aeabi_ldiv0
a00124cc T __aeabi_ui2d
a0012098 T __aeabi_uidiv
a0012194 T __aeabi_uidivmod
a0012558 T __aeabi_ul2d
a0012c04 T __aeabi_uldivmod
a0013da0 T __aeabi_unwind_cpp_pr0
a0013d8c W __aeabi_unwind_cpp_pr1
a0013d78 W __aeabi_unwind_cpp_pr2
a0010c50 T __any_on
a0010a48 T __b2d
a0015fa0 T __clz_tab
a0012a78 T __cmpdf2
a0010bf4 T __copybits
         w __cxa_begin_cleanup
         w __cxa_call_unexpected
         w __cxa_type_match
a0010d84 T __d2b
a00121ac T __div0
a001285c T __divdf3
a0012cb0 T __divdi3
a0012a78 T __eqdf2
a0021f04 B __exidx_end
a0021f04 B __exidx_start
a0012518 T __extendsfdf2
a0012ba8 T __fixdfsi
a001256c T __floatdidf
a00124f0 T __floatsidf
a0012558 T __floatundidf
a00124cc T __floatunsidf
a000f2f8 t __fp_lock
a000f32c T __fp_lock_all
a000f300 t __fp_unlock
a000f308 T __fp_unlock_all
a0012a68 T __gedf2
         w __gnu_Unwind_Find_exidx
a001405c T __gnu_Unwind_ForcedUnwind
a00141cc T __gnu_Unwind_RaiseException
a00146a0 T __gnu_Unwind_Restore_VFP
a00146b0 T __gnu_Unwind_Restore_VFP_D
a00146c0 T __gnu_Unwind_Restore_VFP_D_16_to_31
a0014758 T __gnu_Unwind_Restore_WMMXC
a00146d0 T __gnu_Unwind_Restore_WMMXD
a00140e0 T __gnu_Unwind_Resume
a0014278 T __gnu_Unwind_Resume_or_Rethrow
a00146a8 T __gnu_Unwind_Save_VFP
a00146b8 T __gnu_Unwind_Save_VFP_D
a00146c8 T __gnu_Unwind_Save_VFP_D_16_to_31
a001476c T __gnu_Unwind_Save_WMMXC
a0014714 T __gnu_Unwind_Save_WMMXD
a0012c68 T __gnu_ldivmod_helper
a0012c20 T __gnu_uldivmod_helper
a00148ec T __gnu_unwind_execute
a0014cf8 T __gnu_unwind_frame
a0013940 t __gnu_unwind_pr_common
a0012a68 T __gtdf2
a0010894 T __hi0bits
a00112e0 T __i2b
a0011b74 T __isinfd
a0011bb0 T __isnand
a0017b9c D __lc_ctype
a0012a70 T __ledf2
a00108ec T __lo0bits
a000fdb4 T __locale_charset
a0010ffc T __lshift
a0012a70 T __ltdf2
a0017ba8 D __malloc_av_
a0021ed4 B __malloc_current_mallinfo
a0010870 T __malloc_lock
a0021efc B __malloc_max_sbrked_mem
a0021f00 B __malloc_max_total_mem
a0017fb0 D __malloc_sbrk_base
a0021ed0 B __malloc_top_pad
a0017fb4 D __malloc_trim_threshold
a0010874 T __malloc_unlock
a0017b98 D __mb_cur_max
a0010980 T __mcmp
a0010eb8 T __mdiff
a0015f50 T __mprec_bigtens
a0015e78 T __mprec_tens
a0015f78 T __mprec_tinytens
a00125cc T __muldf3
a0011304 T __multadd
a0011108 T __multiply
a0012a78 T __nedf2
a00113dc T __pow5mult
a0010b04 T __ratio
a0014684 T __restore_core_regs
a00114d4 T __s2b
a0011c20 T __sclose
a000f378 T __sfmoreglue
a000f3cc T __sfp
a000f264 T __sfp_lock_acquire
a000f268 T __sfp_lock_release
a000f864 T __sfvwrite_r
a0014e3c T __sigtramp
a0014db8 T __sigtramp_r
a000f274 T __sinit
a000f26c T __sinit_lock_acquire
a000f270 T __sinit_lock_release
a000fe5c T __smakebuf
a000af4c t __sprint_r
a0011cf0 T __sread
a0011c40 T __sseek
a00121b8 T __subdf3
a0011c8c T __swrite
a000d85c T __swsetup
a0013234 T __udivdi3
a0012098 T __udivsi3
a00109e8 T __ulp
00000000 A __use_no_semihosting_swi
a0011de4 T _calloc_r
a000f368 T _cleanup
a000f350 T _cleanup_r
a001750c T _close
a0011e84 T _close_r
a000db90 T _dtoa_r
a001750c T _exit
a0011ec0 T _fclose_r
a000f5a4 T _free_r
a001750c T _fstat
a0011fd0 T _fstat_r
a000fd2c T _fwalk
a000fca0 T _fwalk_reent
a001750c T _getpid
a0014f84 T _getpid_r
a0015d78 T _global_impure_ptr
a0017790 D _impure_ptr
a0014da8 T _init_signal
a0014d50 T _init_signal_r
a001750c T _kill
a0014f94 T _kill_r
a000fdc4 T _localeconv_r
a001750c T _lseek
a0012010 T _lseek_r
a000ffd8 T _malloc_r
a000f4a8 T _malloc_trim_r
a0010b88 T _mprec_log10
a0014e50 T _raise_r
a001750c T _read
a0012054 T _read_r
a00115b8 T _realloc_r
a001750c T _sbrk
a0011be0 T _sbrk_r
a000fde0 T _setlocale_r
a0014f10 T _signal_r
         U _start
a000af84 T _vfprintf_r
a000ae50 T _vsnprintf_r
a000d23c T _wcrtomb_r
a000d2b4 T _wcsrtombs_r
a000d43c T _wctomb_r
a001750c T _write
a0011da0 T _write_r
a0014d40 T abort
a0015d7e t blanks.3531
a00152fc t c_CRCTable
a001515c t c_Debugger_app
a0015154 t c_Debugger_phy
a00150b8 t c_Lookup_Reply
a00150c4 t c_Lookup_Request
a0015e34 t charset
a0008240 T debug_printf
a0021f04 B errno
a0011fbc T fclose
a000f050 T fflush
a0021d8c B g_AT49BV642DT_16_BS
a0017724 D g_AT49BV642DT_16_BS_Config
a0015ba4 t g_AT49BV642DT_16_BlkRegion
a0015bb8 t g_AT49BV642DT_16_BlockRange
a0017708 D g_AT49BV642DT_16_DeviceInfo
a0017758 D g_AT49BV_16_BS_DeviceTable
a0017fc0 B g_BitFieldManager
a001e054 b g_Boot_RAMConstants_CRC
a0017ffc B g_ConfigBuffer
a0018000 B g_ConfigBufferLength
a0016c00 T g_ConfigurationSector
a00192cc B g_Event_Callback
a00192d0 B g_Event_Callback_Arg
a00192d8 B g_Events_BoolTimerCompletion
a001769c D g_GPIO_BUTTON_Config
a00192f8 B g_GPIO_BUTTON_Driver
a0021d80 B g_HAL_Completion_List
a0021d74 B g_HAL_Continuation_List
a0019508 B g_LPC24XX_GPIO_Driver
a001ba90 B g_LPC24XX_PINSEL_Driver
a001e028 B g_LPC24XX_TIMER_Driver
a001e018 B g_LPC24XX_TIME_Driver
a0018004 B g_PrimaryConfigManager
a0021ea8 B g_TimeDriver
a0018930 B g_eng
a001e038 b g_s_FirstCluster
a0013db4 t get_eit_entry
a0017798 d impure_data
a001750c T isatty
a0008098 T lcd_printf
a0015e38 t lconv
a000fdd0 T localeconv
a000008c t loop
a001075c T memchr
a000a9a4 T memcmp
a000aa3c T memcpy
a000aae0 T memmove
a000abd4 T memset
a0014810 t next_unwind_byte
a0015f40 t p05.2718
a0000538 T platform_prestackinit
a0003a88 T private_free
a0003aa4 T private_malloc
a000d970 t quorem
a0014efc T raise
a0014684 T restore_core_regs
a0014148 t restore_non_core_regs
a0013874 t search_EIT_table
a0013858 t selfrel_offset31
a000fe40 T setlocale
a0014f68 T signal
a000f208 t std
a000ac60 T strcmp
a0011d38 T strlen
a000ad48 T strncpy
a00148ac t unwind_UCB_from_context
a0014084 t unwind_phase2
a0013f00 t unwind_phase2_forced
a000d210 T vfprintf
a000aec8 T vsnprintf
a000d288 T wcrtomb
a000d3f8 T wcsrtombs
a0015d8e t zeroes.3532
a000a008 T ABORTD_Handler
a0009920 t ABORTD_Handler_Ptr
a00098e0 T ABORTD_SubHandler
a0000028 t ABORTD_SubHandler_Trampoline
a000a078 T ABORTP_Handler
a00098dc t ABORTP_Handler_Ptr
a000989c T ABORTP_SubHandler
a0000024 t ABORTP_SubHandler_Trampoline
a0021d90 B ABORT_recursion_counter
a0000000 T ARM_Vectors
00000000 a BUILD_RTM
00000000 a BUILD_RTM
00000000 a BUILD_RTM
00000000 a BUILD_RTM
a0008510 T BootEntry
a00000a0 t BootEntryPointer
00000001 a COMPILE_ARM
00000001 a COMPILE_ARM
00000001 a COMPILE_ARM
00000001 a COMPILE_ARM
a0000074 t ClearZI_ER_RAM
a0007dd8 T Crypto_AbortRSAOperation
a0007dc8 T Crypto_StartRSAOperationWithKey
a0007dd0 T Crypto_StepRSAOperation
a0000000 T EntryPoint
00000001 a HAL_REDUCESIZE
00000001 a HAL_REDUCESIZE
00000001 a HAL_REDUCESIZE
a00066c4 T HAL_Time_CurrentTicks
a0009924 T HARD_Breakpoint
a0009f64 T HARD_Breakpoint_Handler
a0009948 t HARD_Breakpoint_Handler_Ptr
a0015798 T HalName
a0017700 D HalSystemConfig
a001e088 B Hal_Usart_State
a0100000 R HeapBegin
a0200000 R HeapEnd
a001625c T IDelayLoop
a0016268 T IDelayLoop2
a001625c t IDelayLoop__Fi_b
a0007890 T IRQ_Handler
a001623c T IRQ_LOCK_Disable_asm
a001620c T IRQ_LOCK_ForceDisabled_asm
a0016224 T IRQ_LOCK_ForceEnabled_asm
a00161fc T IRQ_LOCK_GetState_asm
a00161e8 T IRQ_LOCK_Probe_asm
a00161d8 T IRQ_LOCK_Release_asm
a001624c T IRQ_LOCK_Restore_asm
a000002c T IRQ_SubHandler_Trampoline
00017530 A Image$$ER_FLASH$$Length
40000000 N Image$$ER_IRAM$$Base
00000000 A Image$$ER_IRAM$$Length
40000040 N Image$$ER_IRAM_TC$$Base
00000000 A Image$$ER_IRAM_TC$$Length
a0000000 T Image$$ER_RAM_RO$$Base
00017530 A Image$$ER_RAM_RO$$Length
a0017530 D Image$$ER_RAM_RW$$Base
00000aa8 A Image$$ER_RAM_RW$$Length
a0017fe0 B Image$$ER_RAM_RW$$ZI$$Base
00009f48 A Image$$ER_RAM_RW$$ZI$$Length
a001e080 B LOAD_IMAGE_CalcCRC
a001e07c B LOAD_IMAGE_Length
a001e078 B LOAD_IMAGE_Start
a0000000 T Load$$ER_FLASH$$Base
a0021f28 A Load$$ER_IRAM$$Base
40000040 A Load$$ER_IRAM_TC$$Base
a0000000 A Load$$ER_RAM_RO$$Base
a0017530 A Load$$ER_RAM_RW$$Base
a001e05c b LoggingCallback
a0000080 t NoClearZI_ER_RAM
00000001 a PLATFORM_ARM_LPC24XX
00000001 a PLATFORM_ARM_LPC24XX
00000001 a PLATFORM_ARM_LPC24XX
00000001 a PLATFORM_ARM_LPC24XX
00000001 a PLATFORM_ARM_plak1a_LPC2478
00000001 a PLATFORM_ARM_plak1a_LPC2478
00000001 a PLATFORM_ARM_plak1a_LPC2478
00000001 a PLATFORM_ARM_plak1a_LPC2478
000000d7 a PSR_MODE_ABORT
000000d7 a PSR_MODE_ABORT
000000d1 a PSR_MODE_FIQ
000000d1 a PSR_MODE_FIQ
000000d2 a PSR_MODE_IRQ
000000d2 a PSR_MODE_IRQ
000000d3 a PSR_MODE_SUPERVISOR
000000d3 a PSR_MODE_SUPERVISOR
000000df a PSR_MODE_SYSTEM
000000df a PSR_MODE_SYSTEM
000000db a PSR_MODE_UNDEF
000000db a PSR_MODE_UNDEF
000000d0 a PSR_MODE_USER
000000d0 a PSR_MODE_USER
a001ed90 B RxBuffer_Com
00000010 a STACK_MODE_ABORT
00000800 a STACK_MODE_IRQ
00000010 a STACK_MODE_UNDEF
a02ffff8 R StackBottom
a0300000 R StackTop
a00192e8 B SystemEvents
a0008040 T SystemState_ClearNoLock
a0008058 T SystemState_QueryNoLock
a0008028 T SystemState_SetNoLock
a001e060 B SystemStates
00000001 a TARGETLOCATION_FLASH
00000001 a TARGETLOCATION_FLASH
00000001 a TARGETLOCATION_FLASH
00000001 a TARGETLOCATION_FLASH
a00066e0 T Time_CurrentTicks
a001e190 B TxBuffer_Com
a000a0e8 T UNDEF_Handler
a0009898 t UNDEF_Handler_Ptr
a0009858 T UNDEF_SubHandler
a0000020 t UNDEF_SubHandler_Trampoline
a0000030 t VectorAreaSkip
a0010d10 T _Balloc
a0010898 T _Bfree
a0013938 T _Unwind_Complete
a001393c T _Unwind_DeleteException
a001480c T _Unwind_ForcedUnwind
a0013930 T _Unwind_GetCFA
a0014894 T _Unwind_GetDataRelBase
a001489c t _Unwind_GetGR
a00137cc t _Unwind_GetGR
a00148d4 T _Unwind_GetLanguageSpecificData
a00148f8 T _Unwind_GetRegionStart
a001488c T _Unwind_GetTextRelBase
a00147a0 T _Unwind_RaiseException
a00147c4 T _Unwind_Resume
a00147e8 T _Unwind_Resume_or_Rethrow
a0013848 t _Unwind_SetGR
a0013780 T _Unwind_VRS_Get
a00142c8 T _Unwind_VRS_Pop
a00137fc T _Unwind_VRS_Set
a001376c t _Unwind_decode_target2
a0005730 T _Z10Events_Setj
a000932c T _Z10USART_ReadiPcj
a0007ff4 T _Z10hal_printfPKcz
a00090e4 T _Z11USART_Flushi
a00095b8 T _Z11USART_WriteiPKcj
a0007f8c T _Z11hal_fprintfiPKcz
a0007fc0 T _Z11hal_vprintfPKcPv
a0000c04 t _Z12AccessMemoryjjPhi
a00056dc T _Z12Events_Clearj
a00078ac T _Z12HAL_AssertExv
a0005bd8 T _Z12HeapLocationRPhRj
a0007db8 T _Z12SOCKETS_ReadiPcj
a0007df0 T _Z12hal_strlen_sPKc
a0007e94 T _Z12hal_vfprintfiPKcPv
a000a7c0 T _Z13FS_AddVolumesv
a000a7c4 T _Z13FS_Initializev
a0007dc0 T _Z13SOCKETS_Flushi
a0007db0 T _Z13SOCKETS_WriteiPKcj
a0009820 T _Z13USB_ConfigureiPK25USB_DYNAMIC_CONFIGURATION
a0007e0c T _Z13hal_strncpy_sPcjPKcj
a0007e78 T _Z13hal_vsnprintfPcjPKcPv
a00079cc T _Z14CPU_Initializev
a0008338 T _Z14HAL_Initializev
a000a7dc T _Z14I2C_Initializev
a000a7e4 T _Z14Ink_Initializev
a0005798 T _Z14LCD_Initializev
a0009818 T _Z14USB_Initializei
a0009830 T _Z14USB_OpenStreamiii
a0000148 T _Z15Bootstrap_Delayi
a0003b04 T _Z15LZ77_DecompressPhiS_i
a000a8f8 T _Z15Time_Initializev
a0009838 T _Z15USB_CloseStreami
a00057a0 T _Z16LCD_Uninitializev
a000a8e4 T _Z16Piezo_Initializev
a00097ec T _Z16USART_Initializeiiiiii
a0009828 T _Z16USB_Uninitializei
a000a87c T _Z16Watchdog_Disablev
a0007de0 T _Z17CPU_DisableCachesv
a000520c T _Z17DebuggerPort_ReadiPcj
a0005520 T _Z17Events_Initializev
a00054fc T _Z17Events_MaskedReadj
a0000524 T _Z17Initialize_SyncOnv
a000a7b8 T _Z18Battery_Initializev
a00002d8 T _Z18BootstrapCode_Pinsv
a0005bbc T _Z18Buttons_Initializev
a000a84c T _Z18CPU_SPI_Initializev
a0006610 T _Z18CPU_TicksPerSecondv
a000a7b0 T _Z18Charger_Initializev
a000a8e8 T _Z18CustomHeapLocationRPhRj
a00051a0 T _Z18DebuggerPort_Flushi
a0005278 T _Z18DebuggerPort_WriteiPKcj
a000a7d4 T _Z18Gesture_Initializev
a0007da0 T _Z18SOCKETS_Initializei
a0003ac0 T _Z18SUPPORT_ComputeCRCPKvij
a0007b24 T _Z18SimpleHeap_ReleasePv
a0009670 T _Z18USART_Uninitializei
a00000b4 T _Z19BootstrapCode_Dummyv
a0005f54 T _Z19CPU_GPIO_DisablePinj13GPIO_RESISTORj13GPIO_ALT_MODE
a0006580 T _Z19CPU_GPIO_Initializev
a0007624 T _Z19CPU_INTC_Initializev
a0007de8 T _Z19CPU_USB_ProtectPinsij
a0006b38 T _Z19HAL_Time_Initializev
a0006a4c T _Z19HAL_Time_SetComparey
a000a8dc T _Z19PalEvent_Initializev
a0007a40 T _Z19SimpleHeap_Allocatej
a00080f4 T _Z19Verify_RAMConstantsPv
a00099ec T _Z20ABORT_HandlerDisplayPjjjjPKcj
a000a7a8 T _Z20BackLight_Initializev
a00001b0 T _Z20BootstrapCode_Clocksv
a0006104 T _Z20CPU_GPIO_GetPinStatej
a0006080 T _Z20CPU_GPIO_SetPinStatejj
a000742c T _Z20CPU_USART_Initializeiiiiii
a000081c W _Z20Events_WaitForEventsjj
a0005578 T _Z20Events_WaitForEventsjjj
a00082f0 W _Z20HAL_Init_Custom_Heapv
a0006b54 T _Z20HAL_Time_TicksToTimey
a0007da8 T _Z20SOCKETS_Uninitializei
a0009964 T _Z20monitor_debug_printfPKcz
a000371c T _Z21ApplicationEntryPointv
a00071e4 T _Z21CPU_USART_ProtectPinsij
a0008074 T _Z21Checksum_RAMConstantsv
a0007a08 T _Z21SimpleHeap_InitializePvj
a0000294 T _Z22BootstrapCode_Ext_SRAMv
a00058f8 T _Z22Buttons_CurrentHWStatev
a00071c8 T _Z22CPU_USART_Uninitializei
a00057ac T _Z22LCD_WriteFormattedCharh
a000a91c T _Z22TimeService_Initializev
a000994c T _Z22Watchdog_GetSetEnabledjj
a0009954 T _Z22Watchdog_GetSetTimeoutij
a000a768 T _Z23BlockStorage_AddDevicesv
a0000298 T _Z23BootstrapCode_Ext_Flashv
a0000334 T _Z23BootstrapCode_Ext_SDRAMv
a0006480 T _Z23CPU_GPIO_EnableInputPinjjPFvjjPvE13GPIO_INT_EDGE13GPIO_RESISTOR
a00160e0 T _Z23CPU_MicrosecondsToTicksj
a00160c0 T _Z23CPU_MicrosecondsToTicksy
a000661c T _Z23CPU_MillisecondsToTicksj
a0006e28 T _Z23CPU_USART_TxBufferEmptyi
a0005408 T _Z23DebuggerPort_Initializei
a0008dbc T _Z23USART_AddCharToRxBufferic
a0000844 T _Z23WaitForTinyBooterUploadRi
a000995c T _Z23Watchdog_GetSetBehavior17Watchdog_Behaviorj
a00057e8 T _Z24Buttons_HW_To_Hal_Buttonj
a000a934 T _Z24CPU_EBIU_Memory_ReadOnlyRK17CPU_MEMORY_CONFIGj
a0006224 T _Z24CPU_GPIO_EnableOutputPinjj
a0007de4 T _Z24CPU_GetUncachableAddressj
a00000b8 T _Z24PrepareImageRegions_IRAMv
a0000644 T _Z24TinyBooter_OnStateChange16_TinyBooterStatePvPS0_
a0005380 T _Z25DebuggerPort_Uninitializei
a0000594 T _Z25TinyBooter_GetReleaseInfoR13MfReleaseInfo
a000598c T _Z26Buttons_GetNextStateChangeRjS_
a000a930 T _Z26CPU_EBIU_ConfigMemoryBlockRK17CPU_MEMORY_CONFIG
a00077cc T _Z26CPU_INTC_ActivateInterruptjPFvPvES_
a0005a90 T _Z27Buttons_RegisterStateChangejj
a00065ec T _Z27HAL_Time_GetDriftParametersPiS_Px
a00066fc T _Z27HAL_Time_Sleep_MicroSecondsj
a0000100 T _Z27PrepareImageRegions_IRAM_TCv
a0000574 T _Z27Tinybooter_ProgramWordCheckv
a0000580 T _Z28Tinybooter_ImageIsCompressedv
a0008bc4 T _Z28USART_RemoveCharFromTxBufferiRc
a0007704 T _Z29CPU_INTC_InterruptEnableStatej
a0005138 T _Z29CPU_ProtectCommunicationGPIOsj
a0006e0c T _Z29CPU_USART_WriteCharToTxBufferih
a0006d80 T _Z30CPU_USART_TxShiftRegisterEmptyi
a0000588 T _Z31Tinybooter_CompressedImageStartRK22CompressedImage_Header
a0007458 T _Z33CPU_USART_TxHandshakeEnabledStatei
a0006eb0 T _Z37CPU_USART_RxBufferFullInterruptEnableij
a0006d3c T _Z37CPU_USART_TxBufferEmptyInterruptStatei
a0007200 T _Z38CPU_USART_TxBufferEmptyInterruptEnableij
a0000590 T _Z39Tinybooter_PrepareForDecompressedLaunchv
a0006640 T _Z44HAL_Time_Sleep_MicroSeconds_InterruptEnabledj
a0000460 T _Z7delayMsjj
a0007960 T _Z8CPU_Haltv
a00004d0 T _Z8GetFpclkj
a0000154 T _Z8GetFsclkv
a0009848 T _Z8USB_ReadiPcj
a00078f8 T _Z9CPU_Resetv
a00079e8 T _Z9CPU_Sleep11SLEEP_LEVELy
a00057a8 T _Z9LCD_Clearv
a0009850 T _Z9USB_Flushi
a0009840 T _Z9USB_WriteiPKcj
a000a93c T _ZN10TimeDriver10InitializeEv
a0021dc0 B _ZN10TimeDriver13m_initializedE
a0003cb0 T _ZN10WP_Message10InitializeEP13WP_Controller
a0003e0c T _ZN10WP_Message12PrepareReplyERK9WP_PacketjjPh
a0003dc4 T _ZN10WP_Message12VerifyHeaderEv
a0003d74 T _ZN10WP_Message13VerifyPayloadEv
a0003ed0 T _ZN10WP_Message14PrepareRequestEjjjPh
a0004008 T _ZN10WP_Message14ReplyBadPacketEj
a0003c40 T _ZN10WP_Message16PrepareReceptionEv
a0004084 T _ZN10WP_Message7ProcessEv
a0003c4c T _ZN10WP_Message7ReleaseEv
a0003444 T _ZN11CryptoState15VerifySignatureEj
a0003410 T _ZN11CryptoStateC1EjjPhjj
a00036f4 T _ZN11CryptoStateD1Ev
a000659c W _ZN11LPC24XX_VIC14ForceInterruptEj
a00076a8 W _ZN11LPC24XX_VIC18IsInterruptEnabledEj
a00075bc W _ZN11LPC24XX_VIC21RemoveForcedInterruptEj
a0007594 W _ZN12HAL_CALLBACK10InitializeEPFvPvES0_
a0007c30 T _ZN12SmartPtr_IRQ11WasDisabledEv
a0007cf8 T _ZN12SmartPtr_IRQ12ForceEnabledEPv
a0007d14 T _ZN12SmartPtr_IRQ13ForceDisabledEPv
a0007d4c T _ZN12SmartPtr_IRQ5ProbeEv
a0007cac T _ZN12SmartPtr_IRQ7AcquireEv
a0007c88 T _ZN12SmartPtr_IRQ7DisableEv
a0007d70 T _ZN12SmartPtr_IRQ7ReleaseEv
a0007c40 T _ZN12SmartPtr_IRQ7RestoreEv
a0007d30 T _ZN12SmartPtr_IRQ8GetStateEPv
a0007cd0 T _ZN12SmartPtr_IRQC1EPv
a0007c64 T _ZN12SmartPtr_IRQD1Ev
a000968c T _ZN12USART_Driver10InitializeEiiiiii
a00095d4 T _ZN12USART_Driver12UninitializeEi
a0008be0 T _ZN12USART_Driver17AddCharToRxBufferEic
a0008adc T _ZN12USART_Driver22RemoveCharFromTxBufferEiRc
a0009100 T _ZN12USART_Driver4ReadEiPcj
a0008dd8 T _ZN12USART_Driver5FlushEi
a0009348 T _ZN12USART_Driver5WriteEiPKcj
a0008a18 T _ZN12USART_Driver7SendXONEij
a0008a78 T _ZN12USART_Driver8SendXOFFEij
a0008960 T _ZN12USART_Driver8SetEventEij
a00065b0 W _ZN13LPC24XX_TIMER8getIntNoEi
a0006c6c W _ZN13LPC24XX_USART8getIntNoEi
a0002d4c T _ZN13Loader_Engine10InitializeEi
a0000a8c T _ZN13Loader_Engine11App_ReleaseEPvP10WP_Message
a000165c T _ZN13Loader_Engine12Monitor_PingEP10WP_Message
a0001860 T _ZN13Loader_Engine14Monitor_RebootEP10WP_Message
a00018c4 T _ZN13Loader_Engine14ProcessPayloadEP10WP_Message
a00016a8 T _ZN13Loader_Engine14ReplyToCommandEP10WP_Messagebb
a00012e8 T _ZN13Loader_Engine14ReplyToCommandEP10WP_MessagebbPvi
a0002468 T _ZN13Loader_Engine15Monitor_ExecuteEP10WP_Message
a00015e4 T _ZN13Loader_Engine15Monitor_OemInfoEP10WP_Message
a0001cec T _ZN13Loader_Engine15ProcessCommandsEv
a0000a38 T _ZN13Loader_Engine15SignedDataState10CheckDirtyEv
a00028e4 T _ZN13Loader_Engine15SignedDataState15VerifySignatureEPhjj
a0002328 T _ZN13Loader_Engine15SignedDataState19EraseMemoryAndResetEv
a0002000 T _ZN13Loader_Engine15SignedDataState20VerifyContiguousDataEjj
a0000a58 T _ZN13Loader_Engine15SignedDataState5ResetEv
a00019d8 T _ZN13Loader_Engine15TransmitMessageEPK10WP_Messageb
a0002df8 T _ZN13Loader_Engine16Phy_ReceiveBytesEPvRPhRj
a0002e58 T _ZN13Loader_Engine17App_ProcessHeaderEPvP10WP_Message
a00023a0 T _ZN13Loader_Engine17Monitor_MemoryMapEP10WP_Message
a0001998 T _ZN13Loader_Engine18App_ProcessPayloadEPvP10WP_Message
a0001bb0 T _ZN13Loader_Engine18EnumerateAndLaunchEv
a0002824 T _ZN13Loader_Engine18Monitor_ReadMemoryEP10WP_Message
a00026b0 T _ZN13Loader_Engine19Monitor_CheckMemoryEP10WP_Message
a00025f4 T _ZN13Loader_Engine19Monitor_EraseMemoryEP10WP_Message
a0002764 T _ZN13Loader_Engine19Monitor_WriteMemoryEP10WP_Message
a0001a64 T _ZN13Loader_Engine19Phy_TransmitMessageEPvPK10WP_Message
a0002aa8 T _ZN13Loader_Engine22Monitor_CheckSignatureEP10WP_Message
a00013a4 T _ZN13Loader_Engine22Monitor_FlashSectorMapEP10WP_Message
a00016d0 T _ZN13Loader_Engine26Monitor_SignatureKeyUpdateEP10WP_Message
a0001a84 T _ZN13Loader_Engine6LaunchEPFvvE
a000127c T _ZN13MfReleaseInfo4InitERS_ttttPKcj
a0003d00 T _ZN13WP_Controller10InitializeEPKcPK16WP_PhysicalLayerPK19WP_ApplicationLayerPv
a00043ac T _ZN13WP_Controller12AdvanceStateEv
a0003c8c T _ZN13WP_Controller19SendProtocolMessageERK10WP_Message
a0003f88 T _ZN13WP_Controller19SendProtocolMessageEjjjPh
a000a670 T _ZN14HAL_COMPLETION14DequeueAndExecEv
a000a280 T _ZN14HAL_COMPLETION14InitializeListEv
a0005554 W _ZN14HAL_COMPLETION16InitializeForISREPFvPvES0_
a000a5b4 T _ZN14HAL_COMPLETION17WaitForInterruptsEyjy
a000a50c T _ZN14HAL_COMPLETION5AbortEv
a000a424 T _ZN14HAL_COMPLETION7ExecuteEv
a000797c T _ZN14LPC24XX_Driver10InitializeEv
a0007914 T _ZN14LPC24XX_Driver4HaltEv
a00078dc T _ZN14LPC24XX_Driver5ResetEv
a00078bc T _ZN14LPC24XX_Driver8ShutdownEv
a0002128 W _ZN15BitFieldManager17SetDirtySectorBitEj
a0000a18 W _ZN15BitFieldManager20ResetBitFieldManagerEv
a00022c8 W _ZN15BitFieldManager24InvalidateSectorBitFieldEv
a0000ab4 W _ZN15BitFieldManager24ResetSignatureCheckArrayEv
a0002b3c W _ZN15BitFieldManager25EraseOnSignatureCheckFailEv
a0001d0c W _ZN15BitFieldManager27GetNextSectorSignatureCheckEP18BlockStorageDeviceR16SECTOR_BIT_FIELD
a000470c T _ZN16BlockStorageList10InitializeEv
a00192d4 B _ZN16BlockStorageList12s_deviceListE
a0004f34 T _ZN16BlockStorageList13GetNextDeviceER18BlockStorageDevice
a00192d0 B _ZN16BlockStorageList13s_InitializedE
a0004690 T _ZN16BlockStorageList14GetFirstDeviceEv
a00192e0 B _ZN16BlockStorageList15s_primaryDeviceE
a0004f68 T _ZN16BlockStorageList17InitializeDevicesEv
a000505c T _ZN16BlockStorageList28FindDeviceForPhysicalAddressEPP18BlockStorageDevicejRj
a0004e98 T _ZN16BlockStorageList9AddDeviceEP18BlockStorageDeviceP19IBlockStorageDevicePvj
a000a7a0 T _ZN16HAL_CONFIG_BLOCK11ApplyConfigEPKcPvj
a000a25c T _ZN16HAL_CONTINUATION14InitializeListEv
a000a1a0 T _ZN16HAL_CONTINUATION18InitializeCallbackEPFvPvES0_
a000a450 T _ZN16HAL_CONTINUATION19Dequeue_And_ExecuteEv
a000a3bc T _ZN16HAL_CONTINUATION7EnqueueEv
a000a21c W _ZN17HAL_DblLinkedListI16HAL_CONTINUATIONE10InitializeEv
a000a330 W _ZN17HAL_DblLinkedListI16HAL_CONTINUATIONE10LinkAtBackEPS0_
a000a388 W _ZN17HAL_DblLinkedListI16HAL_CONTINUATIONE16ExtractFirstNodeEv
a000a2d0 W _ZN17HAL_DblLinkedListI16HAL_CONTINUATIONE16InsertBeforeNodeEPS0_S2_
a000a2bc W _ZN17HAL_DblLinkedListI16HAL_CONTINUATIONE6InsertEPS0_S2_S2_
a00046cc W _ZN17HAL_DblLinkedListI18BlockStorageDeviceE10InitializeEv
a00047d0 W _ZN17HAL_DblLinkedListI18BlockStorageDeviceE10LinkAtBackEPS0_
a0004770 W _ZN17HAL_DblLinkedListI18BlockStorageDeviceE16InsertBeforeNodeEPS0_S2_
a000475c W _ZN17HAL_DblLinkedListI18BlockStorageDeviceE6InsertEPS0_S2_S2_
a0005510 W _ZN17HAL_DblLinkedNodeI16HAL_CONTINUATIONE10InitializeEv
a000a2a4 W _ZN17HAL_DblLinkedNodeI16HAL_CONTINUATIONE14RemoveFromListEv
a000a178 W _ZN17HAL_DblLinkedNodeI16HAL_CONTINUATIONE6UnlinkEv
a0004668 W _ZN17HAL_DblLinkedNodeI18BlockStorageDeviceE10InitializeEv
a0004744 W _ZN17HAL_DblLinkedNodeI18BlockStorageDeviceE14RemoveFromListEv
a0000550 W _ZN18BlockStorageDevice13GetDeviceInfoEv
a00009d0 W _ZN18BlockStorageDevice13IsBlockErasedEjj
a00043d4 W _ZN18BlockStorageDevice16InitializeDeviceEv
a00045d0 W _ZN18BlockStorageDevice17FindForBlockUsageEjRjS0_S0_
a000461c W _ZN18BlockStorageDevice18FindNextUsageBlockEjRjS0_S0_
a0000600 W _ZN18BlockStorageDevice21FindRegionFromAddressEjRjS0_
a0000980 W _ZN18BlockStorageDevice4ReadEjjPh
a00009a4 W _ZN18BlockStorageDevice5WriteEjjPhj
a0004e78 T _ZN18BlockStorageStream10InitializeEj
a0004dd4 T _ZN18BlockStorageStream10InitializeEjP18BlockStorageDevice
a0004810 T _ZN18BlockStorageStream10NextStreamEv
a0004b24 T _ZN18BlockStorageStream10PrevStreamEv
a00043f8 T _ZN18BlockStorageStream14CurrentAddressEv
a00049f4 T _ZN18BlockStorageStream4ReadEPPhj
a0004ce4 T _ZN18BlockStorageStream4SeekEiNS_10SeekOriginE
a0005aec T _ZN18GPIO_BUTTON_Driver10InitializeEv
a000589c T _ZN18GPIO_BUTTON_Driver14CurrentHWStateEv
a00057b0 T _ZN18GPIO_BUTTON_Driver16HW_To_Hal_ButtonEj
a0005914 T _ZN18GPIO_BUTTON_Driver18GetNextStateChangeERjS0_
a00059a8 T _ZN18GPIO_BUTTON_Driver19RegisterStateChangeEjj
a0005aac T _ZN18GPIO_BUTTON_Driver3ISREjjPv
a000a7ec T _ZN18LPC24XX_SPI_Driver10InitializeEv
a00075d0 T _ZN18LPC24XX_VIC_Driver10InitializeEv
a0017530 D _ZN18LPC24XX_VIC_Driver10s_IsrTableE
a00077f4 T _ZN18LPC24XX_VIC_Driver11IRQ_HandlerEv
a0007640 T _ZN18LPC24XX_VIC_Driver14IRQToIRQVectorEj
a0007670 T _ZN18LPC24XX_VIC_Driver14STUB_ISRVectorEPv
a0007720 T _ZN18LPC24XX_VIC_Driver17ActivateInterruptEjjPFvPvES0_
a00076dc T _ZN18LPC24XX_VIC_Driver20InterruptEnableStateEj
a0016768 T _ZN19AT49BV_16_BS_Driver10EraseBlockEPvj
a001657c T _ZN19AT49BV_16_BS_Driver12ChipReadOnlyEPvjj
a001643c T _ZN19AT49BV_16_BS_Driver13Action_ReadIDEPvRjS1_
a001627c T _ZN19AT49BV_16_BS_Driver13GetDeviceInfoEPv
a0016528 T _ZN19AT49BV_16_BS_Driver13IsBlockErasedEPvjj
a0016ad4 T _ZN19AT49BV_16_BS_Driver13ReadProductIDEPvRjS1_
a0016294 T _ZN19AT49BV_16_BS_Driver13SetPowerStateEPvj
a0016b24 T _ZN19AT49BV_16_BS_Driver14ChipInitializeEPv
a00162b0 T _ZN19AT49BV_16_BS_Driver16Action_UnprotectEPvPVt
a00162b4 T _ZN19AT49BV_16_BS_Driver16Action_WriteWordEPvPVtt
a0016274 T _ZN19AT49BV_16_BS_Driver16ChipUnInitializeEPv
a0016284 T _ZN19AT49BV_16_BS_Driver17GetSectorMetadataEPvjP14SectorMetadata
a001628c T _ZN19AT49BV_16_BS_Driver17SetSectorMetadataEPvjP14SectorMetadata
a0016370 T _ZN19AT49BV_16_BS_Driver18Action_EraseSectorEPvPVt
a00162a4 T _ZN19AT49BV_16_BS_Driver18MaxBlockErase_uSecEPv
a0016298 T _ZN19AT49BV_16_BS_Driver19MaxSectorWrite_uSecEPv
a00164d8 T _ZN19AT49BV_16_BS_Driver4ReadEPvjjPh
a001681c T _ZN19AT49BV_16_BS_Driver5WriteEPvjjPhj
a0016734 T _ZN19AT49BV_16_BS_Driver6MemsetEPvjhj
a0016610 T _ZN19AT49BV_16_BS_Driver6WriteXEPvjjPhjj
a0005804 W _ZN19Hal_Queue_KnownSizeIN18GPIO_BUTTON_Driver19BUTTON_STATE_CHANGEELj64EE10InitializeEv
a0005858 W _ZN19Hal_Queue_KnownSizeIN18GPIO_BUTTON_Driver19BUTTON_STATE_CHANGEELj64EE3PopEv
a0005818 W _ZN19Hal_Queue_KnownSizeIN18GPIO_BUTTON_Driver19BUTTON_STATE_CHANGEELj64EE4PushEv
a0005ea0 T _ZN19LPC24XX_GPIO_Driver10DisablePinEj13GPIO_RESISTORj13GPIO_ALT_MODE
a00064a8 T _ZN19LPC24XX_GPIO_Driver10InitializeEv
a000609c T _ZN19LPC24XX_GPIO_Driver11GetPinStateEj
a0005e78 W _ZN19LPC24XX_GPIO_Driver11PinToPCBRegEj
a0005fc0 T _ZN19LPC24XX_GPIO_Driver11SetPinStateEjj
a0006240 T _ZN19LPC24XX_GPIO_Driver14EnableInputPinEjjPFvjjPvES0_13GPIO_INT_EDGE13GPIO_RESISTOR
a0005e4c W _ZN19LPC24XX_GPIO_Driver14PinToPCBRegBitEj
a0005e24 T _ZN19LPC24XX_GPIO_Driver14STUB_ISRVectorEjjPv
a0006120 T _ZN19LPC24XX_GPIO_Driver15EnableOutputPinEjj
a0005bf8 T _ZN19LPC24XX_GPIO_Driver18PIN_ISR_DESCRIPTOR4FireEPv
a0005c20 T _ZN19LPC24XX_GPIO_Driver8GPIO_ISREPv
a0005f70 W _ZN19LPC24XX_GPIO_Driver8PinToBitEj
a0005f98 W _ZN19LPC24XX_GPIO_Driver9PinToPortEj
a0006aac T _ZN19LPC24XX_TIME_Driver10InitializeEv
a0016114 T _ZN19LPC24XX_TIME_Driver10Sleep_uSecEj
a000665c T _ZN19LPC24XX_TIME_Driver12CounterValueEv
a000688c T _ZN19LPC24XX_TIME_Driver15SetCompareValueEy
a00160ec T _ZN19LPC24XX_TIME_Driver15Sleep_uSec_LoopEj
a00069b0 T _ZN19LPC24XX_TIME_Driver3ISREPv
a000a7c8 T _ZN20FileSystemVolumeList10InitializeEv
a000a7cc T _ZN20FileSystemVolumeList17InitializeVolumesEv
a0006b58 T _ZN20LPC24XX_TIMER_Driver10InitializeEjPFvPvES0_
a000684c W _ZN20LPC24XX_TIMER_Driver10SetCompareEjj
a001619c T _ZN20LPC24XX_TIMER_Driver11ReadCounterEj
a000680c W _ZN20LPC24XX_TIMER_Driver13DidCompareHitEj
a0006718 W _ZN20LPC24XX_TIMER_Driver14ForceInterruptEj
a00067cc W _ZN20LPC24XX_TIMER_Driver15ResetCompareHitEj
a0006a68 W _ZN20LPC24XX_TIMER_Driver22EnableCompareInterruptEj
a000721c T _ZN20LPC24XX_USART_Driver10InitializeEiiiiii
a0006fb0 T _ZN20LPC24XX_USART_Driver11ProtectPinsEij
a000713c T _ZN20LPC24XX_USART_Driver12UninitializeEi
a0006d9c T _ZN20LPC24XX_USART_Driver13TxBufferEmptyEi
a0007460 T _ZN20LPC24XX_USART_Driver15UART_IntHandlerEPv
a0006dc4 T _ZN20LPC24XX_USART_Driver19WriteCharToTxBufferEih
a0006d58 T _ZN20LPC24XX_USART_Driver20TxShiftRegisterEmptyEi
a0006e44 T _ZN20LPC24XX_USART_Driver27RxBufferFullInterruptEnableEij
a0006d08 T _ZN20LPC24XX_USART_Driver27TxBufferEmptyInterruptStateEi
a0006ecc T _ZN20LPC24XX_USART_Driver28TxBufferEmptyInterruptEnableEij
a00087a8 W _ZN21Hal_Queue_UnknownSizeIhE10InitializeEPhj
a00088d0 W _ZN21Hal_Queue_UnknownSizeIhE16NumberOfElementsEv
a0008844 W _ZN21Hal_Queue_UnknownSizeIhE3PopERj
a000875c W _ZN21Hal_Queue_UnknownSizeIhE3PopEv
a00087c4 W _ZN21Hal_Queue_UnknownSizeIhE4PushERj
a000891c W _ZN21Hal_Queue_UnknownSizeIhE4PushEv
a00088fc W _ZN21Hal_Queue_UnknownSizeIhE7IsEmptyEv
a000a868 T _ZN23LPC24XX_WATCHDOG_Driver7DisableEv
a000a898 T _ZN23LPC24XX_WATCHDOG_Driver8ResetCpuEv
a0002fd4 T _ZN26ConfigurationSectorManager17GetDeploymentKeysEj
a0002f6c T _ZN26ConfigurationSectorManager17LoadConfigurationEv
a0003278 T _ZN26ConfigurationSectorManager18UpdateSignatureKeyEjPh
a00030e8 T _ZN26ConfigurationSectorManager18WriteConfigurationEjPhjj
a00032a8 T _ZN26ConfigurationSectorManager19CleanBootLoaderFlagEv
a000301c T _ZN26ConfigurationSectorManager19VerifiySignatureKeyEjPh
a0002f54 T _ZN26ConfigurationSectorManager20GetTinyBooterVersionEv
a0002e94 T _ZN26ConfigurationSectorManager20IsBootLoaderRequiredERi
a000307c T _ZN26ConfigurationSectorManager21EraseWriteConfigBlockEPhj
a0002f14 T _ZN26ConfigurationSectorManager22CheckSignatureKeyEmptyEj
a00032e8 T _ZN26ConfigurationSectorManager25LocateConfigurationSectorEj
a0006ca8 W _ZN7LPC24XX4UARTEi
a000676c W _ZN7LPC24XX5TIMEREi
a00008cc W _ZN7Version4InitERS_tttt
a0000904 W _ZNK10BlockRange13GetBlockCountEv
a00043cc W _ZNK10BlockRange13GetBlockUsageEv
a00008e4 W _ZNK10BlockRange8IsConfigEv
a000759c W _ZNK12HAL_CALLBACK7ExecuteEv
a000459c T _ZNK15BlockDeviceInfo17FindForBlockUsageEjRjS0_S0_
a00044dc T _ZNK15BlockDeviceInfo18FindNextUsageBlockEjRjS0_S0_
a0004404 T _ZNK15BlockDeviceInfo21FindRegionFromAddressEjRjS0_
a0000914 W _ZNK15BlockRegionInfo12BlockAddressEj
a0000924 W _ZNK15BlockRegionInfo15OffsetFromBlockEj
a0000954 W _ZNK15BlockRegionInfo21BlockIndexFromAddressEj
a000a924 W _ZNK15BlockRegionInfo4SizeEv
a000a158 W _ZNK16HAL_CONTINUATION7ExecuteEv
a000a370 W _ZNK17HAL_DblLinkedListI16HAL_CONTINUATIONE14FirstValidNodeEv
a000a218 W _ZNK17HAL_DblLinkedListI16HAL_CONTINUATIONE4HeadEv
a000a1e4 W _ZNK17HAL_DblLinkedListI16HAL_CONTINUATIONE4TailEv
a000a1ec W _ZNK17HAL_DblLinkedListI16HAL_CONTINUATIONE7IsEmptyEv
a0004678 W _ZNK17HAL_DblLinkedListI18BlockStorageDeviceE14FirstValidNodeEv
a00046c8 W _ZNK17HAL_DblLinkedListI18BlockStorageDeviceE4HeadEv
a00046c0 W _ZNK17HAL_DblLinkedListI18BlockStorageDeviceE4TailEv
a00009f4 W _ZNK18BlockStorageDevice10EraseBlockEj
a0021dc4 b _ZZN10TimeDriver16DateTimeToStringERKxE8rgBuffer
a0021e44 b _ZZN10TimeDriver16TimeSpanToStringERKxE8rgBuffer
a00176f8 d _ZZN20LPC24XX_USART_Driver11ProtectPinsEijE18COM1_PinsProtected
a00176fc d _ZZN20LPC24XX_USART_Driver11ProtectPinsEijE18COM2_PinsProtected
a00176f0 d _ZZN20LPC24XX_USART_Driver11ProtectPinsEijE18COM3_PinsProtected
a00176f4 d _ZZN20LPC24XX_USART_Driver11ProtectPinsEijE18COM4_PinsProtected
a001480c T ___Unwind_ForcedUnwind
a00147a0 T ___Unwind_RaiseException
a00147c4 T ___Unwind_Resume
a00147e8 T ___Unwind_Resume_or_Rethrow
a00121dc T __adddf3
a0012b38 T __aeabi_cdcmpeq
a0012b38 T __aeabi_cdcmple
a0012b1c T __aeabi_cdrcmple
a0012bc8 T __aeabi_d2iz
a00121dc T __aeabi_dadd
a0012b50 T __aeabi_dcmpeq
a0012b98 T __aeabi_dcmpge
a0012bb0 T __aeabi_dcmpgt
a0012b80 T __aeabi_dcmple
a0012b68 T __aeabi_dcmplt
a001287c T __aeabi_ddiv
a00125ec T __aeabi_dmul
a00121d0 T __aeabi_drsub
a00121d8 T __aeabi_dsub
a0012538 T __aeabi_f2d
a0012510 T __aeabi_i2d
a00121cc T __aeabi_idiv0
a001258c T __aeabi_l2d
a00121cc T __aeabi_ldiv0
a00124ec T __aeabi_ui2d
a00120b8 T __aeabi_uidiv
a00121b4 T __aeabi_uidivmod
a0012578 T __aeabi_ul2d
a0012c24 T __aeabi_uldivmod
a0013dc0 T __aeabi_unwind_cpp_pr0
a0013dac W __aeabi_unwind_cpp_pr1
a0013d98 W __aeabi_unwind_cpp_pr2
a0010c70 T __any_on
a0010a68 T __b2d
a0015fc0 T __clz_tab
a0012a98 T __cmpdf2
a0010c14 T __copybits
         w __cxa_begin_cleanup
         w __cxa_call_unexpected
         w __cxa_type_match
a0010da4 T __d2b
a00121cc T __div0
a001287c T __divdf3
a0012cd0 T __divdi3
a0012a98 T __eqdf2
a0021f24 B __exidx_end
a0021f24 B __exidx_start
a0012538 T __extendsfdf2
a0012bc8 T __fixdfsi
a001258c T __floatdidf
a0012510 T __floatsidf
a0012578 T __floatundidf
a00124ec T __floatunsidf
a000f318 t __fp_lock
a000f34c T __fp_lock_all
a000f320 t __fp_unlock
a000f328 T __fp_unlock_all
a0012a88 T __gedf2
         w __gnu_Unwind_Find_exidx
a001407c T __gnu_Unwind_ForcedUnwind
a00141ec T __gnu_Unwind_RaiseException
a00146c0 T __gnu_Unwind_Restore_VFP
a00146d0 T __gnu_Unwind_Restore_VFP_D
a00146e0 T __gnu_Unwind_Restore_VFP_D_16_to_31
a0014778 T __gnu_Unwind_Restore_WMMXC
a00146f0 T __gnu_Unwind_Restore_WMMXD
a0014100 T __gnu_Unwind_Resume
a0014298 T __gnu_Unwind_Resume_or_Rethrow
a00146c8 T __gnu_Unwind_Save_VFP
a00146d8 T __gnu_Unwind_Save_VFP_D
a00146e8 T __gnu_Unwind_Save_VFP_D_16_to_31
a001478c T __gnu_Unwind_Save_WMMXC
a0014734 T __gnu_Unwind_Save_WMMXD
a0012c88 T __gnu_ldivmod_helper
a0012c40 T __gnu_uldivmod_helper
a001490c T __gnu_unwind_execute
a0014d18 T __gnu_unwind_frame
a0013960 t __gnu_unwind_pr_common
a0012a88 T __gtdf2
a00108b4 T __hi0bits
a0011300 T __i2b
a0011b94 T __isinfd
a0011bd0 T __isnand
a0017bbc D __lc_ctype
a0012a90 T __ledf2
a001090c T __lo0bits
a000fdd4 T __locale_charset
a001101c T __lshift
a0012a90 T __ltdf2
a0017bc8 D __malloc_av_
a0021ef4 B __malloc_current_mallinfo
a0010890 T __malloc_lock
a0021f1c B __malloc_max_sbrked_mem
a0021f20 B __malloc_max_total_mem
a0017fd0 D __malloc_sbrk_base
a0021ef0 B __malloc_top_pad
a0017fd4 D __malloc_trim_threshold
a0010894 T __malloc_unlock
a0017bb8 D __mb_cur_max
a00109a0 T __mcmp
a0010ed8 T __mdiff
a0015f70 T __mprec_bigtens
a0015e98 T __mprec_tens
a0015f98 T __mprec_tinytens
a00125ec T __muldf3
a0011324 T __multadd
a0011128 T __multiply
a0012a98 T __nedf2
a00113fc T __pow5mult
a0010b24 T __ratio
a00146a4 T __restore_core_regs
a00114f4 T __s2b
a0011c40 T __sclose
a000f398 T __sfmoreglue
a000f3ec T __sfp
a000f284 T __sfp_lock_acquire
a000f288 T __sfp_lock_release
a000f884 T __sfvwrite_r
a0014e5c T __sigtramp
a0014dd8 T __sigtramp_r
a000f294 T __sinit
a000f28c T __sinit_lock_acquire
a000f290 T __sinit_lock_release
a000fe7c T __smakebuf
a000af6c t __sprint_r
a0011d10 T __sread
a0011c60 T __sseek
a00121d8 T __subdf3
a0011cac T __swrite
a000d87c T __swsetup
a0013254 T __udivdi3
a00120b8 T __udivsi3
a0010a08 T __ulp
00000000 A __use_no_semihosting_swi
a0011e04 T _calloc_r
a000f388 T _cleanup
a000f370 T _cleanup_r
a001752c T _close
a0011ea4 T _close_r
a000dbb0 T _dtoa_r
a001752c T _exit
a0011ee0 T _fclose_r
a000f5c4 T _free_r
a001752c T _fstat
a0011ff0 T _fstat_r
a000fd4c T _fwalk
a000fcc0 T _fwalk_reent
a001752c T _getpid
a0014fa4 T _getpid_r
a0015d98 T _global_impure_ptr
a00177b0 D _impure_ptr
a0014dc8 T _init_signal
a0014d70 T _init_signal_r
a001752c T _kill
a0014fb4 T _kill_r
a000fde4 T _localeconv_r
a001752c T _lseek
a0012030 T _lseek_r
a000fff8 T _malloc_r
a000f4c8 T _malloc_trim_r
a0010ba8 T _mprec_log10
a0014e70 T _raise_r
a001752c T _read
a0012074 T _read_r
a00115d8 T _realloc_r
a001752c T _sbrk
a0011c00 T _sbrk_r
a000fe00 T _setlocale_r
a0014f30 T _signal_r
         U _start
a000afa4 T _vfprintf_r
a000ae70 T _vsnprintf_r
a000d25c T _wcrtomb_r
a000d2d4 T _wcsrtombs_r
a000d45c T _wctomb_r
a001752c T _write
a0011dc0 T _write_r
a0014d60 T abort
a0015d9e t blanks.3531
a001531c t c_CRCTable
a001517c t c_Debugger_app
a0015174 t c_Debugger_phy
a00150d8 t c_Lookup_Reply
a00150e4 t c_Lookup_Request
a0015e54 t charset
a0008260 T debug_printf
a0021f24 B errno
a0011fdc T fclose
a000f070 T fflush
a0021dac B g_AT49BV642DT_16_BS
a0017744 D g_AT49BV642DT_16_BS_Config
a0015bc4 t g_AT49BV642DT_16_BlkRegion
a0015bd8 t g_AT49BV642DT_16_BlockRange
a0017728 D g_AT49BV642DT_16_DeviceInfo
a0017778 D g_AT49BV_16_BS_DeviceTable
a0017fe0 B g_BitFieldManager
a001e074 b g_Boot_RAMConstants_CRC
a001801c B g_ConfigBuffer
a0018020 B g_ConfigBufferLength
a0016c20 T g_ConfigurationSector
a00192ec B g_Event_Callback
a00192f0 B g_Event_Callback_Arg
a00192f8 B g_Events_BoolTimerCompletion
a00176bc D g_GPIO_BUTTON_Config
a0019318 B g_GPIO_BUTTON_Driver
a0021da0 B g_HAL_Completion_List
a0021d94 B g_HAL_Continuation_List
a0019528 B g_LPC24XX_GPIO_Driver
a001bab0 B g_LPC24XX_PINSEL_Driver
a001e048 B g_LPC24XX_TIMER_Driver
a001e038 B g_LPC24XX_TIME_Driver
a0018024 B g_PrimaryConfigManager
a0021ec8 B g_TimeDriver
a0018950 B g_eng
a001e058 b g_s_FirstCluster
a0013dd4 t get_eit_entry
a00177b8 d impure_data
a001752c T isatty
a00080b8 T lcd_printf
a0015e58 t lconv
a000fdf0 T localeconv
a000008c t loop
a001077c T memchr
a000a9c4 T memcmp
a000aa5c T memcpy
a000ab00 T memmove
a000abf4 T memset
a0014830 t next_unwind_byte
a0015f60 t p05.2718
a0000538 T platform_prestackinit
a0003a88 T private_free
a0003aa4 T private_malloc
a000d990 t quorem
a0014f1c T raise
a00146a4 T restore_core_regs
a0014168 t restore_non_core_regs
a0013894 t search_EIT_table
a0013878 t selfrel_offset31
a000fe60 T setlocale
a0014f88 T signal
a000f228 t std
a000ac80 T strcmp
a0011d58 T strlen
a000ad68 T strncpy
a00148cc t unwind_UCB_from_context
a00140a4 t unwind_phase2
a0013f20 t unwind_phase2_forced
a000d230 T vfprintf
a000aee8 T vsnprintf
a000d2a8 T wcrtomb
a000d418 T wcsrtombs
a0015dae t zeroes.3532
a000a008 T ABORTD_Handler
a0009920 t ABORTD_Handler_Ptr
a00098e0 T ABORTD_SubHandler
a0000028 t ABORTD_SubHandler_Trampoline
a000a078 T ABORTP_Handler
a00098dc t ABORTP_Handler_Ptr
a000989c T ABORTP_SubHandler
a0000024 t ABORTP_SubHandler_Trampoline
a0021d90 B ABORT_recursion_counter
a0000000 T ARM_Vectors
00000000 a BUILD_RTM
00000000 a BUILD_RTM
00000000 a BUILD_RTM
00000000 a BUILD_RTM
a0008510 T BootEntry
a00000a0 t BootEntryPointer
00000001 a COMPILE_ARM
00000001 a COMPILE_ARM
00000001 a COMPILE_ARM
00000001 a COMPILE_ARM
a0000074 t ClearZI_ER_RAM
a0007dd8 T Crypto_AbortRSAOperation
a0007dc8 T Crypto_StartRSAOperationWithKey
a0007dd0 T Crypto_StepRSAOperation
a0000000 T EntryPoint
00000001 a HAL_REDUCESIZE
00000001 a HAL_REDUCESIZE
00000001 a HAL_REDUCESIZE
a00066c4 T HAL_Time_CurrentTicks
a0009924 T HARD_Breakpoint
a0009f64 T HARD_Breakpoint_Handler
a0009948 t HARD_Breakpoint_Handler_Ptr
a0015798 T HalName
a0017700 D HalSystemConfig
a001e088 B Hal_Usart_State
a0100000 R HeapBegin
a0200000 R HeapEnd
a001625c T IDelayLoop
a0016268 T IDelayLoop2
a001625c t IDelayLoop__Fi_b
a0007890 T IRQ_Handler
a001623c T IRQ_LOCK_Disable_asm
a001620c T IRQ_LOCK_ForceDisabled_asm
a0016224 T IRQ_LOCK_ForceEnabled_asm
a00161fc T IRQ_LOCK_GetState_asm
a00161e8 T IRQ_LOCK_Probe_asm
a00161d8 T IRQ_LOCK_Release_asm
a001624c T IRQ_LOCK_Restore_asm
a000002c T IRQ_SubHandler_Trampoline
00017530 A Image$$ER_FLASH$$Length
40000000 N Image$$ER_IRAM$$Base
00000000 A Image$$ER_IRAM$$Length
40000040 N Image$$ER_IRAM_TC$$Base
00000000 A Image$$ER_IRAM_TC$$Length
a0000000 T Image$$ER_RAM_RO$$Base
00017530 A Image$$ER_RAM_RO$$Length
a0017530 D Image$$ER_RAM_RW$$Base
00000aa8 A Image$$ER_RAM_RW$$Length
a0017fe0 B Image$$ER_RAM_RW$$ZI$$Base
00009f48 A Image$$ER_RAM_RW$$ZI$$Length
a001e080 B LOAD_IMAGE_CalcCRC
a001e07c B LOAD_IMAGE_Length
a001e078 B LOAD_IMAGE_Start
a0000000 T Load$$ER_FLASH$$Base
a0021f28 A Load$$ER_IRAM$$Base
40000040 A Load$$ER_IRAM_TC$$Base
a0000000 A Load$$ER_RAM_RO$$Base
a0017530 A Load$$ER_RAM_RW$$Base
a001e05c b LoggingCallback
a0000080 t NoClearZI_ER_RAM
00000001 a PLATFORM_ARM_LPC24XX
00000001 a PLATFORM_ARM_LPC24XX
00000001 a PLATFORM_ARM_LPC24XX
00000001 a PLATFORM_ARM_LPC24XX
00000001 a PLATFORM_ARM_plak1a_LPC2478
00000001 a PLATFORM_ARM_plak1a_LPC2478
00000001 a PLATFORM_ARM_plak1a_LPC2478
00000001 a PLATFORM_ARM_plak1a_LPC2478
000000d7 a PSR_MODE_ABORT
000000d7 a PSR_MODE_ABORT
000000d1 a PSR_MODE_FIQ
000000d1 a PSR_MODE_FIQ
000000d2 a PSR_MODE_IRQ
000000d2 a PSR_MODE_IRQ
000000d3 a PSR_MODE_SUPERVISOR
000000d3 a PSR_MODE_SUPERVISOR
000000df a PSR_MODE_SYSTEM
000000df a PSR_MODE_SYSTEM
000000db a PSR_MODE_UNDEF
000000db a PSR_MODE_UNDEF
000000d0 a PSR_MODE_USER
000000d0 a PSR_MODE_USER
a001ed90 B RxBuffer_Com
00000010 a STACK_MODE_ABORT
00000800 a STACK_MODE_IRQ
00000010 a STACK_MODE_UNDEF
a02ffff8 R StackBottom
a0300000 R StackTop
a00192e8 B SystemEvents
a0008040 T SystemState_ClearNoLock
a0008058 T SystemState_QueryNoLock
a0008028 T SystemState_SetNoLock
a001e060 B SystemStates
00000001 a TARGETLOCATION_FLASH
00000001 a TARGETLOCATION_FLASH
00000001 a TARGETLOCATION_FLASH
00000001 a TARGETLOCATION_FLASH
a00066e0 T Time_CurrentTicks
a001e190 B TxBuffer_Com
a000a0e8 T UNDEF_Handler
a0009898 t UNDEF_Handler_Ptr
a0009858 T UNDEF_SubHandler
a0000020 t UNDEF_SubHandler_Trampoline
a0000030 t VectorAreaSkip
a0010d10 T _Balloc
a0010898 T _Bfree
a0013938 T _Unwind_Complete
a001393c T _Unwind_DeleteException
a001480c T _Unwind_ForcedUnwind
a0013930 T _Unwind_GetCFA
a0014894 T _Unwind_GetDataRelBase
a001489c t _Unwind_GetGR
a00137cc t _Unwind_GetGR
a00148d4 T _Unwind_GetLanguageSpecificData
a00148f8 T _Unwind_GetRegionStart
a001488c T _Unwind_GetTextRelBase
a00147a0 T _Unwind_RaiseException
a00147c4 T _Unwind_Resume
a00147e8 T _Unwind_Resume_or_Rethrow
a0013848 t _Unwind_SetGR
a0013780 T _Unwind_VRS_Get
a00142c8 T _Unwind_VRS_Pop
a00137fc T _Unwind_VRS_Set
a001376c t _Unwind_decode_target2
a0005730 T _Z10Events_Setj
a000932c T _Z10USART_ReadiPcj
a0007ff4 T _Z10hal_printfPKcz
a00090e4 T _Z11USART_Flushi
a00095b8 T _Z11USART_WriteiPKcj
a0007f8c T _Z11hal_fprintfiPKcz
a0007fc0 T _Z11hal_vprintfPKcPv
a0000c04 t _Z12AccessMemoryjjPhi
a00056dc T _Z12Events_Clearj
a00078ac T _Z12HAL_AssertExv
a0005bd8 T _Z12HeapLocationRPhRj
a0007db8 T _Z12SOCKETS_ReadiPcj
a0007df0 T _Z12hal_strlen_sPKc
a0007e94 T _Z12hal_vfprintfiPKcPv
a000a7c0 T _Z13FS_AddVolumesv
a000a7c4 T _Z13FS_Initializev
a0007dc0 T _Z13SOCKETS_Flushi
a0007db0 T _Z13SOCKETS_WriteiPKcj
a0009820 T _Z13USB_ConfigureiPK25USB_DYNAMIC_CONFIGURATION
a0007e0c T _Z13hal_strncpy_sPcjPKcj
a0007e78 T _Z13hal_vsnprintfPcjPKcPv
a00079cc T _Z14CPU_Initializev
a0008338 T _Z14HAL_Initializev
a000a7dc T _Z14I2C_Initializev
a000a7e4 T _Z14Ink_Initializev
a0005798 T _Z14LCD_Initializev
a0009818 T _Z14USB_Initializei
a0009830 T _Z14USB_OpenStreamiii
a0000148 T _Z15Bootstrap_Delayi
a0003b04 T _Z15LZ77_DecompressPhiS_i
a000a8f8 T _Z15Time_Initializev
a0009838 T _Z15USB_CloseStreami
a00057a0 T _Z16LCD_Uninitializev
a000a8e4 T _Z16Piezo_Initializev
a00097ec T _Z16USART_Initializeiiiiii
a0009828 T _Z16USB_Uninitializei
a000a87c T _Z16Watchdog_Disablev
a0007de0 T _Z17CPU_DisableCachesv
a000520c T _Z17DebuggerPort_ReadiPcj
a0005520 T _Z17Events_Initializev
a00054fc T _Z17Events_MaskedReadj
a0000524 T _Z17Initialize_SyncOnv
a000a7b8 T _Z18Battery_Initializev
a00002d8 T _Z18BootstrapCode_Pinsv
a0005bbc T _Z18Buttons_Initializev
a000a84c T _Z18CPU_SPI_Initializev
a0006610 T _Z18CPU_TicksPerSecondv
a000a7b0 T _Z18Charger_Initializev
a000a8e8 T _Z18CustomHeapLocationRPhRj
a00051a0 T _Z18DebuggerPort_Flushi
a0005278 T _Z18DebuggerPort_WriteiPKcj
a000a7d4 T _Z18Gesture_Initializev
a0007da0 T _Z18SOCKETS_Initializei
a0003ac0 T _Z18SUPPORT_ComputeCRCPKvij
a0007b24 T _Z18SimpleHeap_ReleasePv
a0009670 T _Z18USART_Uninitializei
a00000b4 T _Z19BootstrapCode_Dummyv
a0005f54 T _Z19CPU_GPIO_DisablePinj13GPIO_RESISTORj13GPIO_ALT_MODE
a0006580 T _Z19CPU_GPIO_Initializev
a0007624 T _Z19CPU_INTC_Initializev
a0007de8 T _Z19CPU_USB_ProtectPinsij
a0006b38 T _Z19HAL_Time_Initializev
a0006a4c T _Z19HAL_Time_SetComparey
a000a8dc T _Z19PalEvent_Initializev
a0007a40 T _Z19SimpleHeap_Allocatej
a00080f4 T _Z19Verify_RAMConstantsPv
a00099ec T _Z20ABORT_HandlerDisplayPjjjjPKcj
a000a7a8 T _Z20BackLight_Initializev
a00001b0 T _Z20BootstrapCode_Clocksv
a0006104 T _Z20CPU_GPIO_GetPinStatej
a0006080 T _Z20CPU_GPIO_SetPinStatejj
a000742c T _Z20CPU_USART_Initializeiiiiii
a000081c W _Z20Events_WaitForEventsjj
a0005578 T _Z20Events_WaitForEventsjjj
a00082f0 W _Z20HAL_Init_Custom_Heapv
a0006b54 T _Z20HAL_Time_TicksToTimey
a0007da8 T _Z20SOCKETS_Uninitializei
a0009964 T _Z20monitor_debug_printfPKcz
a000371c T _Z21ApplicationEntryPointv
a00071e4 T _Z21CPU_USART_ProtectPinsij
a0008074 T _Z21Checksum_RAMConstantsv
a0007a08 T _Z21SimpleHeap_InitializePvj
a0000294 T _Z22BootstrapCode_Ext_SRAMv
a00058f8 T _Z22Buttons_CurrentHWStatev
a00071c8 T _Z22CPU_USART_Uninitializei
a00057ac T _Z22LCD_WriteFormattedCharh
a000a91c T _Z22TimeService_Initializev
a000994c T _Z22Watchdog_GetSetEnabledjj
a0009954 T _Z22Watchdog_GetSetTimeoutij
a000a768 T _Z23BlockStorage_AddDevicesv
a0000298 T _Z23BootstrapCode_Ext_Flashv
a0000334 T _Z23BootstrapCode_Ext_SDRAMv
a0006480 T _Z23CPU_GPIO_EnableInputPinjjPFvjjPvE13GPIO_INT_EDGE13GPIO_RESISTOR
a00160e0 T _Z23CPU_MicrosecondsToTicksj
a00160c0 T _Z23CPU_MicrosecondsToTicksy
a000661c T _Z23CPU_MillisecondsToTicksj
a0006e28 T _Z23CPU_USART_TxBufferEmptyi
a0005408 T _Z23DebuggerPort_Initializei
a0008dbc T _Z23USART_AddCharToRxBufferic
a0000844 T _Z23WaitForTinyBooterUploadRi
a000995c T _Z23Watchdog_GetSetBehavior17Watchdog_Behaviorj
a00057e8 T _Z24Buttons_HW_To_Hal_Buttonj
a000a934 T _Z24CPU_EBIU_Memory_ReadOnlyRK17CPU_MEMORY_CONFIGj
a0006224 T _Z24CPU_GPIO_EnableOutputPinjj
a0007de4 T _Z24CPU_GetUncachableAddressj
a00000b8 T _Z24PrepareImageRegions_IRAMv
a0000644 T _Z24TinyBooter_OnStateChange16_TinyBooterStatePvPS0_
a0005380 T _Z25DebuggerPort_Uninitializei
a0000594 T _Z25TinyBooter_GetReleaseInfoR13MfReleaseInfo
a000598c T _Z26Buttons_GetNextStateChangeRjS_
a000a930 T _Z26CPU_EBIU_ConfigMemoryBlockRK17CPU_MEMORY_CONFIG
a00077cc T _Z26CPU_INTC_ActivateInterruptjPFvPvES_
a0005a90 T _Z27Buttons_RegisterStateChangejj
a00065ec T _Z27HAL_Time_GetDriftParametersPiS_Px
a00066fc T _Z27HAL_Time_Sleep_MicroSecondsj
a0000100 T _Z27PrepareImageRegions_IRAM_TCv
a0000574 T _Z27Tinybooter_ProgramWordCheckv
a0000580 T _Z28Tinybooter_ImageIsCompressedv
a0008bc4 T _Z28USART_RemoveCharFromTxBufferiRc
a0007704 T _Z29CPU_INTC_InterruptEnableStatej
a0005138 T _Z29CPU_ProtectCommunicationGPIOsj
a0006e0c T _Z29CPU_USART_WriteCharToTxBufferih
a0006d80 T _Z30CPU_USART_TxShiftRegisterEmptyi
a0000588 T _Z31Tinybooter_CompressedImageStartRK22CompressedImage_Header
a0007458 T _Z33CPU_USART_TxHandshakeEnabledStatei
a0006eb0 T _Z37CPU_USART_RxBufferFullInterruptEnableij
a0006d3c T _Z37CPU_USART_TxBufferEmptyInterruptStatei
a0007200 T _Z38CPU_USART_TxBufferEmptyInterruptEnableij
a0000590 T _Z39Tinybooter_PrepareForDecompressedLaunchv
a0006640 T _Z44HAL_Time_Sleep_MicroSeconds_InterruptEnabledj
a0000460 T _Z7delayMsjj
a0007960 T _Z8CPU_Haltv
a00004d0 T _Z8GetFpclkj
a0000154 T _Z8GetFsclkv
a0009848 T _Z8USB_ReadiPcj
a00078f8 T _Z9CPU_Resetv
a00079e8 T _Z9CPU_Sleep11SLEEP_LEVELy
a00057a8 T _Z9LCD_Clearv
a0009850 T _Z9USB_Flushi
a0009840 T _Z9USB_WriteiPKcj
a000a93c T _ZN10TimeDriver10InitializeEv
a0021dc0 B _ZN10TimeDriver13m_initializedE
a0003cb0 T _ZN10WP_Message10InitializeEP13WP_Controller
a0003e0c T _ZN10WP_Message12PrepareReplyERK9WP_PacketjjPh
a0003dc4 T _ZN10WP_Message12VerifyHeaderEv
a0003d74 T _ZN10WP_Message13VerifyPayloadEv
a0003ed0 T _ZN10WP_Message14PrepareRequestEjjjPh
a0004008 T _ZN10WP_Message14ReplyBadPacketEj
a0003c40 T _ZN10WP_Message16PrepareReceptionEv
a0004084 T _ZN10WP_Message7ProcessEv
a0003c4c T _ZN10WP_Message7ReleaseEv
a0003444 T _ZN11CryptoState15VerifySignatureEj
a0003410 T _ZN11CryptoStateC1EjjPhjj
a00036f4 T _ZN11CryptoStateD1Ev
a000659c W _ZN11LPC24XX_VIC14ForceInterruptEj
a00076a8 W _ZN11LPC24XX_VIC18IsInterruptEnabledEj
a00075bc W _ZN11LPC24XX_VIC21RemoveForcedInterruptEj
a0007594 W _ZN12HAL_CALLBACK10InitializeEPFvPvES0_
a0007c30 T _ZN12SmartPtr_IRQ11WasDisabledEv
a0007cf8 T _ZN12SmartPtr_IRQ12ForceEnabledEPv
a0007d14 T _ZN12SmartPtr_IRQ13ForceDisabledEPv
a0007d4c T _ZN12SmartPtr_IRQ5ProbeEv
a0007cac T _ZN12SmartPtr_IRQ7AcquireEv
a0007c88 T _ZN12SmartPtr_IRQ7DisableEv
a0007d70 T _ZN12SmartPtr_IRQ7ReleaseEv
a0007c40 T _ZN12SmartPtr_IRQ7RestoreEv
a0007d30 T _ZN12SmartPtr_IRQ8GetStateEPv
a0007cd0 T _ZN12SmartPtr_IRQC1EPv
a0007c64 T _ZN12SmartPtr_IRQD1Ev
a000968c T _ZN12USART_Driver10InitializeEiiiiii
a00095d4 T _ZN12USART_Driver12UninitializeEi
a0008be0 T _ZN12USART_Driver17AddCharToRxBufferEic
a0008adc T _ZN12USART_Driver22RemoveCharFromTxBufferEiRc
a0009100 T _ZN12USART_Driver4ReadEiPcj
a0008dd8 T _ZN12USART_Driver5FlushEi
a0009348 T _ZN12USART_Driver5WriteEiPKcj
a0008a18 T _ZN12USART_Driver7SendXONEij
a0008a78 T _ZN12USART_Driver8SendXOFFEij
a0008960 T _ZN12USART_Driver8SetEventEij
a00065b0 W _ZN13LPC24XX_TIMER8getIntNoEi
a0006c6c W _ZN13LPC24XX_USART8getIntNoEi
a0002d4c T _ZN13Loader_Engine10InitializeEi
a0000a8c T _ZN13Loader_Engine11App_ReleaseEPvP10WP_Message
a000165c T _ZN13Loader_Engine12Monitor_PingEP10WP_Message
a0001860 T _ZN13Loader_Engine14Monitor_RebootEP10WP_Message
a00018c4 T _ZN13Loader_Engine14ProcessPayloadEP10WP_Message
a00016a8 T _ZN13Loader_Engine14ReplyToCommandEP10WP_Messagebb
a00012e8 T _ZN13Loader_Engine14ReplyToCommandEP10WP_MessagebbPvi
a0002468 T _ZN13Loader_Engine15Monitor_ExecuteEP10WP_Message
a00015e4 T _ZN13Loader_Engine15Monitor_OemInfoEP10WP_Message
a0001cec T _ZN13Loader_Engine15ProcessCommandsEv
a0000a38 T _ZN13Loader_Engine15SignedDataState10CheckDirtyEv
a00028e4 T _ZN13Loader_Engine15SignedDataState15VerifySignatureEPhjj
a0002328 T _ZN13Loader_Engine15SignedDataState19EraseMemoryAndResetEv
a0002000 T _ZN13Loader_Engine15SignedDataState20VerifyContiguousDataEjj
a0000a58 T _ZN13Loader_Engine15SignedDataState5ResetEv
a00019d8 T _ZN13Loader_Engine15TransmitMessageEPK10WP_Messageb
a0002df8 T _ZN13Loader_Engine16Phy_ReceiveBytesEPvRPhRj
a0002e58 T _ZN13Loader_Engine17App_ProcessHeaderEPvP10WP_Message
a00023a0 T _ZN13Loader_Engine17Monitor_MemoryMapEP10WP_Message
a0001998 T _ZN13Loader_Engine18App_ProcessPayloadEPvP10WP_Message
a0001bb0 T _ZN13Loader_Engine18EnumerateAndLaunchEv
a0002824 T _ZN13Loader_Engine18Monitor_ReadMemoryEP10WP_Message
a00026b0 T _ZN13Loader_Engine19Monitor_CheckMemoryEP10WP_Message
a00025f4 T _ZN13Loader_Engine19Monitor_EraseMemoryEP10WP_Message
a0002764 T _ZN13Loader_Engine19Monitor_WriteMemoryEP10WP_Message
a0001a64 T _ZN13Loader_Engine19Phy_TransmitMessageEPvPK10WP_Message
a0002aa8 T _ZN13Loader_Engine22Monitor_CheckSignatureEP10WP_Message
a00013a4 T _ZN13Loader_Engine22Monitor_FlashSectorMapEP10WP_Message
a00016d0 T _ZN13Loader_Engine26Monitor_SignatureKeyUpdateEP10WP_Message
a0001a84 T _ZN13Loader_Engine6LaunchEPFvvE
a000127c T _ZN13MfReleaseInfo4InitERS_ttttPKcj
a0003d00 T _ZN13WP_Controller10InitializeEPKcPK16WP_PhysicalLayerPK19WP_ApplicationLayerPv
a00043ac T _ZN13WP_Controller12AdvanceStateEv
a0003c8c T _ZN13WP_Controller19SendProtocolMessageERK10WP_Message
a0003f88 T _ZN13WP_Controller19SendProtocolMessageEjjjPh
a000a670 T _ZN14HAL_COMPLETION14DequeueAndExecEv
a000a280 T _ZN14HAL_COMPLETION14InitializeListEv
a0005554 W _ZN14HAL_COMPLETION16InitializeForISREPFvPvES0_
a000a5b4 T _ZN14HAL_COMPLETION17WaitForInterruptsEyjy
a000a50c T _ZN14HAL_COMPLETION5AbortEv
a000a424 T _ZN14HAL_COMPLETION7ExecuteEv
a000797c T _ZN14LPC24XX_Driver10InitializeEv
a0007914 T _ZN14LPC24XX_Driver4HaltEv
a00078dc T _ZN14LPC24XX_Driver5ResetEv
a00078bc T _ZN14LPC24XX_Driver8ShutdownEv
a0002128 W _ZN15BitFieldManager17SetDirtySectorBitEj
a0000a18 W _ZN15BitFieldManager20ResetBitFieldManagerEv
a00022c8 W _ZN15BitFieldManager24InvalidateSectorBitFieldEv
a0000ab4 W _ZN15BitFieldManager24ResetSignatureCheckArrayEv
a0002b3c W _ZN15BitFieldManager25EraseOnSignatureCheckFailEv
a0001d0c W _ZN15BitFieldManager27GetNextSectorSignatureCheckEP18BlockStorageDeviceR16SECTOR_BIT_FIELD
a000470c T _ZN16BlockStorageList10InitializeEv
a00192d4 B _ZN16BlockStorageList12s_deviceListE
a0004f34 T _ZN16BlockStorageList13GetNextDeviceER18BlockStorageDevice
a00192d0 B _ZN16BlockStorageList13s_InitializedE
a0004690 T _ZN16BlockStorageList14GetFirstDeviceEv
a00192e0 B _ZN16BlockStorageList15s_primaryDeviceE
a0004f68 T _ZN16BlockStorageList17InitializeDevicesEv
a000505c T _ZN16BlockStorageList28FindDeviceForPhysicalAddressEPP18BlockStorageDevicejRj
a0004e98 T _ZN16BlockStorageList9AddDeviceEP18BlockStorageDeviceP19IBlockStorageDevicePvj
a000a7a0 T _ZN16HAL_CONFIG_BLOCK11ApplyConfigEPKcPvj
a000a25c T _ZN16HAL_CONTINUATION14InitializeListEv
a000a1a0 T _ZN16HAL_CONTINUATION18InitializeCallbackEPFvPvES0_
a000a450 T _ZN16HAL_CONTINUATION19Dequeue_And_ExecuteEv
a000a3bc T _ZN16HAL_CONTINUATION7EnqueueEv
a000a21c W _ZN17HAL_DblLinkedListI16HAL_CONTINUATIONE10InitializeEv
a000a330 W _ZN17HAL_DblLinkedListI16HAL_CONTINUATIONE10LinkAtBackEPS0_
a000a388 W _ZN17HAL_DblLinkedListI16HAL_CONTINUATIONE16ExtractFirstNodeEv
a000a2d0 W _ZN17HAL_DblLinkedListI16HAL_CONTINUATIONE16InsertBeforeNodeEPS0_S2_
a000a2bc W _ZN17HAL_DblLinkedListI16HAL_CONTINUATIONE6InsertEPS0_S2_S2_
a00046cc W _ZN17HAL_DblLinkedListI18BlockStorageDeviceE10InitializeEv
a00047d0 W _ZN17HAL_DblLinkedListI18BlockStorageDeviceE10LinkAtBackEPS0_
a0004770 W _ZN17HAL_DblLinkedListI18BlockStorageDeviceE16InsertBeforeNodeEPS0_S2_
a000475c W _ZN17HAL_DblLinkedListI18BlockStorageDeviceE6InsertEPS0_S2_S2_
a0005510 W _ZN17HAL_DblLinkedNodeI16HAL_CONTINUATIONE10InitializeEv
a000a2a4 W _ZN17HAL_DblLinkedNodeI16HAL_CONTINUATIONE14RemoveFromListEv
a000a178 W _ZN17HAL_DblLinkedNodeI16HAL_CONTINUATIONE6UnlinkEv
a0004668 W _ZN17HAL_DblLinkedNodeI18BlockStorageDeviceE10InitializeEv
a0004744 W _ZN17HAL_DblLinkedNodeI18BlockStorageDeviceE14RemoveFromListEv
a0000550 W _ZN18BlockStorageDevice13GetDeviceInfoEv
a00009d0 W _ZN18BlockStorageDevice13IsBlockErasedEjj
a00043d4 W _ZN18BlockStorageDevice16InitializeDeviceEv
a00045d0 W _ZN18BlockStorageDevice17FindForBlockUsageEjRjS0_S0_
a000461c W _ZN18BlockStorageDevice18FindNextUsageBlockEjRjS0_S0_
a0000600 W _ZN18BlockStorageDevice21FindRegionFromAddressEjRjS0_
a0000980 W _ZN18BlockStorageDevice4ReadEjjPh
a00009a4 W _ZN18BlockStorageDevice5WriteEjjPhj
a0004e78 T _ZN18BlockStorageStream10InitializeEj
a0004dd4 T _ZN18BlockStorageStream10InitializeEjP18BlockStorageDevice
a0004810 T _ZN18BlockStorageStream10NextStreamEv
a0004b24 T _ZN18BlockStorageStream10PrevStreamEv
a00043f8 T _ZN18BlockStorageStream14CurrentAddressEv
a00049f4 T _ZN18BlockStorageStream4ReadEPPhj
a0004ce4 T _ZN18BlockStorageStream4SeekEiNS_10SeekOriginE
a0005aec T _ZN18GPIO_BUTTON_Driver10InitializeEv
a000589c T _ZN18GPIO_BUTTON_Driver14CurrentHWStateEv
a00057b0 T _ZN18GPIO_BUTTON_Driver16HW_To_Hal_ButtonEj
a0005914 T _ZN18GPIO_BUTTON_Driver18GetNextStateChangeERjS0_
a00059a8 T _ZN18GPIO_BUTTON_Driver19RegisterStateChangeEjj
a0005aac T _ZN18GPIO_BUTTON_Driver3ISREjjPv
a000a7ec T _ZN18LPC24XX_SPI_Driver10InitializeEv
a00075d0 T _ZN18LPC24XX_VIC_Driver10InitializeEv
a0017530 D _ZN18LPC24XX_VIC_Driver10s_IsrTableE
a00077f4 T _ZN18LPC24XX_VIC_Driver11IRQ_HandlerEv
a0007640 T _ZN18LPC24XX_VIC_Driver14IRQToIRQVectorEj
a0007670 T _ZN18LPC24XX_VIC_Driver14STUB_ISRVectorEPv
a0007720 T _ZN18LPC24XX_VIC_Driver17ActivateInterruptEjjPFvPvES0_
a00076dc T _ZN18LPC24XX_VIC_Driver20InterruptEnableStateEj
a0016768 T _ZN19AT49BV_16_BS_Driver10EraseBlockEPvj
a001657c T _ZN19AT49BV_16_BS_Driver12ChipReadOnlyEPvjj
a001643c T _ZN19AT49BV_16_BS_Driver13Action_ReadIDEPvRjS1_
a001627c T _ZN19AT49BV_16_BS_Driver13GetDeviceInfoEPv
a0016528 T _ZN19AT49BV_16_BS_Driver13IsBlockErasedEPvjj
a0016ad4 T _ZN19AT49BV_16_BS_Driver13ReadProductIDEPvRjS1_
a0016294 T _ZN19AT49BV_16_BS_Driver13SetPowerStateEPvj
a0016b24 T _ZN19AT49BV_16_BS_Driver14ChipInitializeEPv
a00162b0 T _ZN19AT49BV_16_BS_Driver16Action_UnprotectEPvPVt
a00162b4 T _ZN19AT49BV_16_BS_Driver16Action_WriteWordEPvPVtt
a0016274 T _ZN19AT49BV_16_BS_Driver16ChipUnInitializeEPv
a0016284 T _ZN19AT49BV_16_BS_Driver17GetSectorMetadataEPvjP14SectorMetadata
a001628c T _ZN19AT49BV_16_BS_Driver17SetSectorMetadataEPvjP14SectorMetadata
a0016370 T _ZN19AT49BV_16_BS_Driver18Action_EraseSectorEPvPVt
a00162a4 T _ZN19AT49BV_16_BS_Driver18MaxBlockErase_uSecEPv
a0016298 T _ZN19AT49BV_16_BS_Driver19MaxSectorWrite_uSecEPv
a00164d8 T _ZN19AT49BV_16_BS_Driver4ReadEPvjjPh
a001681c T _ZN19AT49BV_16_BS_Driver5WriteEPvjjPhj
a0016734 T _ZN19AT49BV_16_BS_Driver6MemsetEPvjhj
a0016610 T _ZN19AT49BV_16_BS_Driver6WriteXEPvjjPhjj
a0005804 W _ZN19Hal_Queue_KnownSizeIN18GPIO_BUTTON_Driver19BUTTON_STATE_CHANGEELj64EE10InitializeEv
a0005858 W _ZN19Hal_Queue_KnownSizeIN18GPIO_BUTTON_Driver19BUTTON_STATE_CHANGEELj64EE3PopEv
a0005818 W _ZN19Hal_Queue_KnownSizeIN18GPIO_BUTTON_Driver19BUTTON_STATE_CHANGEELj64EE4PushEv
a0005ea0 T _ZN19LPC24XX_GPIO_Driver10DisablePinEj13GPIO_RESISTORj13GPIO_ALT_MODE
a00064a8 T _ZN19LPC24XX_GPIO_Driver10InitializeEv
a000609c T _ZN19LPC24XX_GPIO_Driver11GetPinStateEj
a0005e78 W _ZN19LPC24XX_GPIO_Driver11PinToPCBRegEj
a0005fc0 T _ZN19LPC24XX_GPIO_Driver11SetPinStateEjj
a0006240 T _ZN19LPC24XX_GPIO_Driver14EnableInputPinEjjPFvjjPvES0_13GPIO_INT_EDGE13GPIO_RESISTOR
a0005e4c W _ZN19LPC24XX_GPIO_Driver14PinToPCBRegBitEj
a0005e24 T _ZN19LPC24XX_GPIO_Driver14STUB_ISRVectorEjjPv
a0006120 T _ZN19LPC24XX_GPIO_Driver15EnableOutputPinEjj
a0005bf8 T _ZN19LPC24XX_GPIO_Driver18PIN_ISR_DESCRIPTOR4FireEPv
a0005c20 T _ZN19LPC24XX_GPIO_Driver8GPIO_ISREPv
a0005f70 W _ZN19LPC24XX_GPIO_Driver8PinToBitEj
a0005f98 W _ZN19LPC24XX_GPIO_Driver9PinToPortEj
a0006aac T _ZN19LPC24XX_TIME_Driver10InitializeEv
a0016114 T _ZN19LPC24XX_TIME_Driver10Sleep_uSecEj
a000665c T _ZN19LPC24XX_TIME_Driver12CounterValueEv
a000688c T _ZN19LPC24XX_TIME_Driver15SetCompareValueEy
a00160ec T _ZN19LPC24XX_TIME_Driver15Sleep_uSec_LoopEj
a00069b0 T _ZN19LPC24XX_TIME_Driver3ISREPv
a000a7c8 T _ZN20FileSystemVolumeList10InitializeEv
a000a7cc T _ZN20FileSystemVolumeList17InitializeVolumesEv
a0006b58 T _ZN20LPC24XX_TIMER_Driver10InitializeEjPFvPvES0_
a000684c W _ZN20LPC24XX_TIMER_Driver10SetCompareEjj
a001619c T _ZN20LPC24XX_TIMER_Driver11ReadCounterEj
a000680c W _ZN20LPC24XX_TIMER_Driver13DidCompareHitEj
a0006718 W _ZN20LPC24XX_TIMER_Driver14ForceInterruptEj
a00067cc W _ZN20LPC24XX_TIMER_Driver15ResetCompareHitEj
a0006a68 W _ZN20LPC24XX_TIMER_Driver22EnableCompareInterruptEj
a000721c T _ZN20LPC24XX_USART_Driver10InitializeEiiiiii
a0006fb0 T _ZN20LPC24XX_USART_Driver11ProtectPinsEij
a000713c T _ZN20LPC24XX_USART_Driver12UninitializeEi
a0006d9c T _ZN20LPC24XX_USART_Driver13TxBufferEmptyEi
a0007460 T _ZN20LPC24XX_USART_Driver15UART_IntHandlerEPv
a0006dc4 T _ZN20LPC24XX_USART_Driver19WriteCharToTxBufferEih
a0006d58 T _ZN20LPC24XX_USART_Driver20TxShiftRegisterEmptyEi
a0006e44 T _ZN20LPC24XX_USART_Driver27RxBufferFullInterruptEnableEij
a0006d08 T _ZN20LPC24XX_USART_Driver27TxBufferEmptyInterruptStateEi
a0006ecc T _ZN20LPC24XX_USART_Driver28TxBufferEmptyInterruptEnableEij
a00087a8 W _ZN21Hal_Queue_UnknownSizeIhE10InitializeEPhj
a00088d0 W _ZN21Hal_Queue_UnknownSizeIhE16NumberOfElementsEv
a0008844 W _ZN21Hal_Queue_UnknownSizeIhE3PopERj
a000875c W _ZN21Hal_Queue_UnknownSizeIhE3PopEv
a00087c4 W _ZN21Hal_Queue_UnknownSizeIhE4PushERj
a000891c W _ZN21Hal_Queue_UnknownSizeIhE4PushEv
a00088fc W _ZN21Hal_Queue_UnknownSizeIhE7IsEmptyEv
a000a868 T _ZN23LPC24XX_WATCHDOG_Driver7DisableEv
a000a898 T _ZN23LPC24XX_WATCHDOG_Driver8ResetCpuEv
a0002fd4 T _ZN26ConfigurationSectorManager17GetDeploymentKeysEj
a0002f6c T _ZN26ConfigurationSectorManager17LoadConfigurationEv
a0003278 T _ZN26ConfigurationSectorManager18UpdateSignatureKeyEjPh
a00030e8 T _ZN26ConfigurationSectorManager18WriteConfigurationEjPhjj
a00032a8 T _ZN26ConfigurationSectorManager19CleanBootLoaderFlagEv
a000301c T _ZN26ConfigurationSectorManager19VerifiySignatureKeyEjPh
a0002f54 T _ZN26ConfigurationSectorManager20GetTinyBooterVersionEv
a0002e94 T _ZN26ConfigurationSectorManager20IsBootLoaderRequiredERi
a000307c T _ZN26ConfigurationSectorManager21EraseWriteConfigBlockEPhj
a0002f14 T _ZN26ConfigurationSectorManager22CheckSignatureKeyEmptyEj
a00032e8 T _ZN26ConfigurationSectorManager25LocateConfigurationSectorEj
a0006ca8 W _ZN7LPC24XX4UARTEi
a000676c W _ZN7LPC24XX5TIMEREi
a00008cc W _ZN7Version4InitERS_tttt
a0000904 W _ZNK10BlockRange13GetBlockCountEv
a00043cc W _ZNK10BlockRange13GetBlockUsageEv
a00008e4 W _ZNK10BlockRange8IsConfigEv
a000759c W _ZNK12HAL_CALLBACK7ExecuteEv
a000459c T _ZNK15BlockDeviceInfo17FindForBlockUsageEjRjS0_S0_
a00044dc T _ZNK15BlockDeviceInfo18FindNextUsageBlockEjRjS0_S0_
a0004404 T _ZNK15BlockDeviceInfo21FindRegionFromAddressEjRjS0_
a0000914 W _ZNK15BlockRegionInfo12BlockAddressEj
a0000924 W _ZNK15BlockRegionInfo15OffsetFromBlockEj
a0000954 W _ZNK15BlockRegionInfo21BlockIndexFromAddressEj
a000a924 W _ZNK15BlockRegionInfo4SizeEv
a000a158 W _ZNK16HAL_CONTINUATION7ExecuteEv
a000a370 W _ZNK17HAL_DblLinkedListI16HAL_CONTINUATIONE14FirstValidNodeEv
a000a218 W _ZNK17HAL_DblLinkedListI16HAL_CONTINUATIONE4HeadEv
a000a1e4 W _ZNK17HAL_DblLinkedListI16HAL_CONTINUATIONE4TailEv
a000a1ec W _ZNK17HAL_DblLinkedListI16HAL_CONTINUATIONE7IsEmptyEv
a0004678 W _ZNK17HAL_DblLinkedListI18BlockStorageDeviceE14FirstValidNodeEv
a00046c8 W _ZNK17HAL_DblLinkedListI18BlockStorageDeviceE4HeadEv
a00046c0 W _ZNK17HAL_DblLinkedListI18BlockStorageDeviceE4TailEv
a00009f4 W _ZNK18BlockStorageDevice10EraseBlockEj
a0021dc4 b _ZZN10TimeDriver16DateTimeToStringERKxE8rgBuffer
a0021e44 b _ZZN10TimeDriver16TimeSpanToStringERKxE8rgBuffer
a00176f8 d _ZZN20LPC24XX_USART_Driver11ProtectPinsEijE18COM1_PinsProtected
a00176fc d _ZZN20LPC24XX_USART_Driver11ProtectPinsEijE18COM2_PinsProtected
a00176f0 d _ZZN20LPC24XX_USART_Driver11ProtectPinsEijE18COM3_PinsProtected
a00176f4 d _ZZN20LPC24XX_USART_Driver11ProtectPinsEijE18COM4_PinsProtected
a001480c T ___Unwind_ForcedUnwind
a00147a0 T ___Unwind_RaiseException
a00147c4 T ___Unwind_Resume
a00147e8 T ___Unwind_Resume_or_Rethrow
a00121dc T __adddf3
a0012b38 T __aeabi_cdcmpeq
a0012b38 T __aeabi_cdcmple
a0012b1c T __aeabi_cdrcmple
a0012bc8 T __aeabi_d2iz
a00121dc T __aeabi_dadd
a0012b50 T __aeabi_dcmpeq
a0012b98 T __aeabi_dcmpge
a0012bb0 T __aeabi_dcmpgt
a0012b80 T __aeabi_dcmple
a0012b68 T __aeabi_dcmplt
a001287c T __aeabi_ddiv
a00125ec T __aeabi_dmul
a00121d0 T __aeabi_drsub
a00121d8 T __aeabi_dsub
a0012538 T __aeabi_f2d
a0012510 T __aeabi_i2d
a00121cc T __aeabi_idiv0
a001258c T __aeabi_l2d
a00121cc T __aeabi_ldiv0
a00124ec T __aeabi_ui2d
a00120b8 T __aeabi_uidiv
a00121b4 T __aeabi_uidivmod
a0012578 T __aeabi_ul2d
a0012c24 T __aeabi_uldivmod
a0013dc0 T __aeabi_unwind_cpp_pr0
a0013dac W __aeabi_unwind_cpp_pr1
a0013d98 W __aeabi_unwind_cpp_pr2
a0010c70 T __any_on
a0010a68 T __b2d
a0015fc0 T __clz_tab
a0012a98 T __cmpdf2
a0010c14 T __copybits
         w __cxa_begin_cleanup
         w __cxa_call_unexpected
         w __cxa_type_match
a0010da4 T __d2b
a00121cc T __div0
a001287c T __divdf3
a0012cd0 T __divdi3
a0012a98 T __eqdf2
a0021f24 B __exidx_end
a0021f24 B __exidx_start
a0012538 T __extendsfdf2
a0012bc8 T __fixdfsi
a001258c T __floatdidf
a0012510 T __floatsidf
a0012578 T __floatundidf
a00124ec T __floatunsidf
a000f318 t __fp_lock
a000f34c T __fp_lock_all
a000f320 t __fp_unlock
a000f328 T __fp_unlock_all
a0012a88 T __gedf2
         w __gnu_Unwind_Find_exidx
a001407c T __gnu_Unwind_ForcedUnwind
a00141ec T __gnu_Unwind_RaiseException
a00146c0 T __gnu_Unwind_Restore_VFP
a00146d0 T __gnu_Unwind_Restore_VFP_D
a00146e0 T __gnu_Unwind_Restore_VFP_D_16_to_31
a0014778 T __gnu_Unwind_Restore_WMMXC
a00146f0 T __gnu_Unwind_Restore_WMMXD
a0014100 T __gnu_Unwind_Resume
a0014298 T __gnu_Unwind_Resume_or_Rethrow
a00146c8 T __gnu_Unwind_Save_VFP
a00146d8 T __gnu_Unwind_Save_VFP_D
a00146e8 T __gnu_Unwind_Save_VFP_D_16_to_31
a001478c T __gnu_Unwind_Save_WMMXC
a0014734 T __gnu_Unwind_Save_WMMXD
a0012c88 T __gnu_ldivmod_helper
a0012c40 T __gnu_uldivmod_helper
a001490c T __gnu_unwind_execute
a0014d18 T __gnu_unwind_frame
a0013960 t __gnu_unwind_pr_common
a0012a88 T __gtdf2
a00108b4 T __hi0bits
a0011300 T __i2b
a0011b94 T __isinfd
a0011bd0 T __isnand
a0017bbc D __lc_ctype
a0012a90 T __ledf2
a001090c T __lo0bits
a000fdd4 T __locale_charset
a001101c T __lshift
a0012a90 T __ltdf2
a0017bc8 D __malloc_av_
a0021ef4 B __malloc_current_mallinfo
a0010890 T __malloc_lock
a0021f1c B __malloc_max_sbrked_mem
a0021f20 B __malloc_max_total_mem
a0017fd0 D __malloc_sbrk_base
a0021ef0 B __malloc_top_pad
a0017fd4 D __malloc_trim_threshold
a0010894 T __malloc_unlock
a0017bb8 D __mb_cur_max
a00109a0 T __mcmp
a0010ed8 T __mdiff
a0015f70 T __mprec_bigtens
a0015e98 T __mprec_tens
a0015f98 T __mprec_tinytens
a00125ec T __muldf3
a0011324 T __multadd
a0011128 T __multiply
a0012a98 T __nedf2
a00113fc T __pow5mult
a0010b24 T __ratio
a00146a4 T __restore_core_regs
a00114f4 T __s2b
a0011c40 T __sclose
a000f398 T __sfmoreglue
a000f3ec T __sfp
a000f284 T __sfp_lock_acquire
a000f288 T __sfp_lock_release
a000f884 T __sfvwrite_r
a0014e5c T __sigtramp
a0014dd8 T __sigtramp_r
a000f294 T __sinit
a000f28c T __sinit_lock_acquire
a000f290 T __sinit_lock_release
a000fe7c T __smakebuf
a000af6c t __sprint_r
a0011d10 T __sread
a0011c60 T __sseek
a00121d8 T __subdf3
a0011cac T __swrite
a000d87c T __swsetup
a0013254 T __udivdi3
a00120b8 T __udivsi3
a0010a08 T __ulp
00000000 A __use_no_semihosting_swi
a0011e04 T _calloc_r
a000f388 T _cleanup
a000f370 T _cleanup_r
a001752c T _close
a0011ea4 T _close_r
a000dbb0 T _dtoa_r
a001752c T _exit
a0011ee0 T _fclose_r
a000f5c4 T _free_r
a001752c T _fstat
a0011ff0 T _fstat_r
a000fd4c T _fwalk
a000fcc0 T _fwalk_reent
a001752c T _getpid
a0014fa4 T _getpid_r
a0015d98 T _global_impure_ptr
a00177b0 D _impure_ptr
a0014dc8 T _init_signal
a0014d70 T _init_signal_r
a001752c T _kill
a0014fb4 T _kill_r
a000fde4 T _localeconv_r
a001752c T _lseek
a0012030 T _lseek_r
a000fff8 T _malloc_r
a000f4c8 T _malloc_trim_r
a0010ba8 T _mprec_log10
a0014e70 T _raise_r
a001752c T _read
a0012074 T _read_r
a00115d8 T _realloc_r
a001752c T _sbrk
a0011c00 T _sbrk_r
a000fe00 T _setlocale_r
a0014f30 T _signal_r
         U _start
a000afa4 T _vfprintf_r
a000ae70 T _vsnprintf_r
a000d25c T _wcrtomb_r
a000d2d4 T _wcsrtombs_r
a000d45c T _wctomb_r
a001752c T _write
a0011dc0 T _write_r
a0014d60 T abort
a0015d9e t blanks.3531
a001531c t c_CRCTable
a001517c t c_Debugger_app
a0015174 t c_Debugger_phy
a00150d8 t c_Lookup_Reply
a00150e4 t c_Lookup_Request
a0015e54 t charset
a0008260 T debug_printf
a0021f24 B errno
a0011fdc T fclose
a000f070 T fflush
a0021dac B g_AT49BV642DT_16_BS
a0017744 D g_AT49BV642DT_16_BS_Config
a0015bc4 t g_AT49BV642DT_16_BlkRegion
a0015bd8 t g_AT49BV642DT_16_BlockRange
a0017728 D g_AT49BV642DT_16_DeviceInfo
a0017778 D g_AT49BV_16_BS_DeviceTable
a0017fe0 B g_BitFieldManager
a001e074 b g_Boot_RAMConstants_CRC
a001801c B g_ConfigBuffer
a0018020 B g_ConfigBufferLength
a0016c20 T g_ConfigurationSector
a00192ec B g_Event_Callback
a00192f0 B g_Event_Callback_Arg
a00192f8 B g_Events_BoolTimerCompletion
a00176bc D g_GPIO_BUTTON_Config
a0019318 B g_GPIO_BUTTON_Driver
a0021da0 B g_HAL_Completion_List
a0021d94 B g_HAL_Continuation_List
a0019528 B g_LPC24XX_GPIO_Driver
a001bab0 B g_LPC24XX_PINSEL_Driver
a001e048 B g_LPC24XX_TIMER_Driver
a001e038 B g_LPC24XX_TIME_Driver
a0018024 B g_PrimaryConfigManager
a0021ec8 B g_TimeDriver
a0018950 B g_eng
a001e058 b g_s_FirstCluster
a0013dd4 t get_eit_entry
a00177b8 d impure_data
a001752c T isatty
a00080b8 T lcd_printf
a0015e58 t lconv
a000fdf0 T localeconv
a000008c t loop
a001077c T memchr
a000a9c4 T memcmp
a000aa5c T memcpy
a000ab00 T memmove
a000abf4 T memset
a0014830 t next_unwind_byte
a0015f60 t p05.2718
a0000538 T platform_prestackinit
a0003a88 T private_free
a0003aa4 T private_malloc
a000d990 t quorem
a0014f1c T raise
a00146a4 T restore_core_regs
a0014168 t restore_non_core_regs
a0013894 t search_EIT_table
a0013878 t selfrel_offset31
a000fe60 T setlocale
a0014f88 T signal
a000f228 t std
a000ac80 T strcmp
a0011d58 T strlen
a000ad68 T strncpy
a00148cc t unwind_UCB_from_context
a00140a4 t unwind_phase2
a0013f20 t unwind_phase2_forced
a000d230 T vfprintf
a000aee8 T vsnprintf
a000d2a8 T wcrtomb
a000d418 T wcsrtombs
a0015dae t zeroes.3532
a000a008 T ABORTD_Handler
a0009920 t ABORTD_Handler_Ptr
a00098e0 T ABORTD_SubHandler
a0000028 t ABORTD_SubHandler_Trampoline
a000a078 T ABORTP_Handler
a00098dc t ABORTP_Handler_Ptr
a000989c T ABORTP_SubHandler
a0000024 t ABORTP_SubHandler_Trampoline
a0021d90 B ABORT_recursion_counter
a0000000 T ARM_Vectors
00000000 a BUILD_RTM
00000000 a BUILD_RTM
00000000 a BUILD_RTM
00000000 a BUILD_RTM
a0008510 T BootEntry
a00000a0 t BootEntryPointer
00000001 a COMPILE_ARM
00000001 a COMPILE_ARM
00000001 a COMPILE_ARM
00000001 a COMPILE_ARM
a0000074 t ClearZI_ER_RAM
a0007dd8 T Crypto_AbortRSAOperation
a0007dc8 T Crypto_StartRSAOperationWithKey
a0007dd0 T Crypto_StepRSAOperation
a0000000 T EntryPoint
00000001 a HAL_REDUCESIZE
00000001 a HAL_REDUCESIZE
00000001 a HAL_REDUCESIZE
a00066c4 T HAL_Time_CurrentTicks
a0009924 T HARD_Breakpoint
a0009f64 T HARD_Breakpoint_Handler
a0009948 t HARD_Breakpoint_Handler_Ptr
a0015798 T HalName
a0017700 D HalSystemConfig
a001e088 B Hal_Usart_State
a0100000 R HeapBegin
a0200000 R HeapEnd
a001625c T IDelayLoop
a0016268 T IDelayLoop2
a001625c t IDelayLoop__Fi_b
a0007890 T IRQ_Handler
a001623c T IRQ_LOCK_Disable_asm
a001620c T IRQ_LOCK_ForceDisabled_asm
a0016224 T IRQ_LOCK_ForceEnabled_asm
a00161fc T IRQ_LOCK_GetState_asm
a00161e8 T IRQ_LOCK_Probe_asm
a00161d8 T IRQ_LOCK_Release_asm
a001624c T IRQ_LOCK_Restore_asm
a000002c T IRQ_SubHandler_Trampoline
00017530 A Image$$ER_FLASH$$Length
40000000 N Image$$ER_IRAM$$Base
00000000 A Image$$ER_IRAM$$Length
40000040 N Image$$ER_IRAM_TC$$Base
00000000 A Image$$ER_IRAM_TC$$Length
a0000000 T Image$$ER_RAM_RO$$Base
00017530 A Image$$ER_RAM_RO$$Length
a0017530 D Image$$ER_RAM_RW$$Base
00000aa8 A Image$$ER_RAM_RW$$Length
a0017fe0 B Image$$ER_RAM_RW$$ZI$$Base
00009f48 A Image$$ER_RAM_RW$$ZI$$Length
a001e080 B LOAD_IMAGE_CalcCRC
a001e07c B LOAD_IMAGE_Length
a001e078 B LOAD_IMAGE_Start
a0000000 T Load$$ER_FLASH$$Base
a0021f28 A Load$$ER_IRAM$$Base
40000040 A Load$$ER_IRAM_TC$$Base
a0000000 A Load$$ER_RAM_RO$$Base
a0017530 A Load$$ER_RAM_RW$$Base
a001e05c b LoggingCallback
a0000080 t NoClearZI_ER_RAM
00000001 a PLATFORM_ARM_LPC24XX
00000001 a PLATFORM_ARM_LPC24XX
00000001 a PLATFORM_ARM_LPC24XX
00000001 a PLATFORM_ARM_LPC24XX
00000001 a PLATFORM_ARM_plak1a_LPC2478
00000001 a PLATFORM_ARM_plak1a_LPC2478
00000001 a PLATFORM_ARM_plak1a_LPC2478
00000001 a PLATFORM_ARM_plak1a_LPC2478
000000d7 a PSR_MODE_ABORT
000000d7 a PSR_MODE_ABORT
000000d1 a PSR_MODE_FIQ
000000d1 a PSR_MODE_FIQ
000000d2 a PSR_MODE_IRQ
000000d2 a PSR_MODE_IRQ
000000d3 a PSR_MODE_SUPERVISOR
000000d3 a PSR_MODE_SUPERVISOR
000000df a PSR_MODE_SYSTEM
000000df a PSR_MODE_SYSTEM
000000db a PSR_MODE_UNDEF
000000db a PSR_MODE_UNDEF
000000d0 a PSR_MODE_USER
000000d0 a PSR_MODE_USER
a001ed90 B RxBuffer_Com
00000010 a STACK_MODE_ABORT
00000800 a STACK_MODE_IRQ
00000010 a STACK_MODE_UNDEF
a02ffff8 R StackBottom
a0300000 R StackTop
a00192e8 B SystemEvents
a0008040 T SystemState_ClearNoLock
a0008058 T SystemState_QueryNoLock
a0008028 T SystemState_SetNoLock
a001e060 B SystemStates
00000001 a TARGETLOCATION_FLASH
00000001 a TARGETLOCATION_FLASH
00000001 a TARGETLOCATION_FLASH
00000001 a TARGETLOCATION_FLASH
a00066e0 T Time_CurrentTicks
a001e190 B TxBuffer_Com
a000a0e8 T UNDEF_Handler
a0009898 t UNDEF_Handler_Ptr
a0009858 T UNDEF_SubHandler
a0000020 t UNDEF_SubHandler_Trampoline
a0000030 t VectorAreaSkip
a0010d10 T _Balloc
a0010898 T _Bfree
a0013938 T _Unwind_Complete
a001393c T _Unwind_DeleteException
a001480c T _Unwind_ForcedUnwind
a0013930 T _Unwind_GetCFA
a0014894 T _Unwind_GetDataRelBase
a001489c t _Unwind_GetGR
a00137cc t _Unwind_GetGR
a00148d4 T _Unwind_GetLanguageSpecificData
a00148f8 T _Unwind_GetRegionStart
a001488c T _Unwind_GetTextRelBase
a00147a0 T _Unwind_RaiseException
a00147c4 T _Unwind_Resume
a00147e8 T _Unwind_Resume_or_Rethrow
a0013848 t _Unwind_SetGR
a0013780 T _Unwind_VRS_Get
a00142c8 T _Unwind_VRS_Pop
a00137fc T _Unwind_VRS_Set
a001376c t _Unwind_decode_target2
a0005730 T _Z10Events_Setj
a000932c T _Z10USART_ReadiPcj
a0007ff4 T _Z10hal_printfPKcz
a00090e4 T _Z11USART_Flushi
a00095b8 T _Z11USART_WriteiPKcj
a0007f8c T _Z11hal_fprintfiPKcz
a0007fc0 T _Z11hal_vprintfPKcPv
a0000c04 t _Z12AccessMemoryjjPhi
a00056dc T _Z12Events_Clearj
a00078ac T _Z12HAL_AssertExv
a0005bd8 T _Z12HeapLocationRPhRj
a0007db8 T _Z12SOCKETS_ReadiPcj
a0007df0 T _Z12hal_strlen_sPKc
a0007e94 T _Z12hal_vfprintfiPKcPv
a000a7c0 T _Z13FS_AddVolumesv
a000a7c4 T _Z13FS_Initializev
a0007dc0 T _Z13SOCKETS_Flushi
a0007db0 T _Z13SOCKETS_WriteiPKcj
a0009820 T _Z13USB_ConfigureiPK25USB_DYNAMIC_CONFIGURATION
a0007e0c T _Z13hal_strncpy_sPcjPKcj
a0007e78 T _Z13hal_vsnprintfPcjPKcPv
a00079cc T _Z14CPU_Initializev
a0008338 T _Z14HAL_Initializev
a000a7dc T _Z14I2C_Initializev
a000a7e4 T _Z14Ink_Initializev
a0005798 T _Z14LCD_Initializev
a0009818 T _Z14USB_Initializei
a0009830 T _Z14USB_OpenStreamiii
a0000148 T _Z15Bootstrap_Delayi
a0003b04 T _Z15LZ77_DecompressPhiS_i
a000a8f8 T _Z15Time_Initializev
a0009838 T _Z15USB_CloseStreami
a00057a0 T _Z16LCD_Uninitializev
a000a8e4 T _Z16Piezo_Initializev
a00097ec T _Z16USART_Initializeiiiiii
a0009828 T _Z16USB_Uninitializei
a000a87c T _Z16Watchdog_Disablev
a0007de0 T _Z17CPU_DisableCachesv
a000520c T _Z17DebuggerPort_ReadiPcj
a0005520 T _Z17Events_Initializev
a00054fc T _Z17Events_MaskedReadj
a0000524 T _Z17Initialize_SyncOnv
a000a7b8 T _Z18Battery_Initializev
a00002d8 T _Z18BootstrapCode_Pinsv
a0005bbc T _Z18Buttons_Initializev
a000a84c T _Z18CPU_SPI_Initializev
a0006610 T _Z18CPU_TicksPerSecondv
a000a7b0 T _Z18Charger_Initializev
a000a8e8 T _Z18CustomHeapLocationRPhRj
a00051a0 T _Z18DebuggerPort_Flushi
a0005278 T _Z18DebuggerPort_WriteiPKcj
a000a7d4 T _Z18Gesture_Initializev
a0007da0 T _Z18SOCKETS_Initializei
a0003ac0 T _Z18SUPPORT_ComputeCRCPKvij
a0007b24 T _Z18SimpleHeap_ReleasePv
a0009670 T _Z18USART_Uninitializei
a00000b4 T _Z19BootstrapCode_Dummyv
a0005f54 T _Z19CPU_GPIO_DisablePinj13GPIO_RESISTORj13GPIO_ALT_MODE
a0006580 T _Z19CPU_GPIO_Initializev
a0007624 T _Z19CPU_INTC_Initializev
a0007de8 T _Z19CPU_USB_ProtectPinsij
a0006b38 T _Z19HAL_Time_Initializev
a0006a4c T _Z19HAL_Time_SetComparey
a000a8dc T _Z19PalEvent_Initializev
a0007a40 T _Z19SimpleHeap_Allocatej
a00080f4 T _Z19Verify_RAMConstantsPv
a00099ec T _Z20ABORT_HandlerDisplayPjjjjPKcj
a000a7a8 T _Z20BackLight_Initializev
a00001b0 T _Z20BootstrapCode_Clocksv
a0006104 T _Z20CPU_GPIO_GetPinStatej
a0006080 T _Z20CPU_GPIO_SetPinStatejj
a000742c T _Z20CPU_USART_Initializeiiiiii
a000081c W _Z20Events_WaitForEventsjj
a0005578 T _Z20Events_WaitForEventsjjj
a00082f0 W _Z20HAL_Init_Custom_Heapv
a0006b54 T _Z20HAL_Time_TicksToTimey
a0007da8 T _Z20SOCKETS_Uninitializei
a0009964 T _Z20monitor_debug_printfPKcz
a000371c T _Z21ApplicationEntryPointv
a00071e4 T _Z21CPU_USART_ProtectPinsij
a0008074 T _Z21Checksum_RAMConstantsv
a0007a08 T _Z21SimpleHeap_InitializePvj
a0000294 T _Z22BootstrapCode_Ext_SRAMv
a00058f8 T _Z22Buttons_CurrentHWStatev
a00071c8 T _Z22CPU_USART_Uninitializei
a00057ac T _Z22LCD_WriteFormattedCharh
a000a91c T _Z22TimeService_Initializev
a000994c T _Z22Watchdog_GetSetEnabledjj
a0009954 T _Z22Watchdog_GetSetTimeoutij
a000a768 T _Z23BlockStorage_AddDevicesv
a0000298 T _Z23BootstrapCode_Ext_Flashv
a0000334 T _Z23BootstrapCode_Ext_SDRAMv
a0006480 T _Z23CPU_GPIO_EnableInputPinjjPFvjjPvE13GPIO_INT_EDGE13GPIO_RESISTOR
a00160e0 T _Z23CPU_MicrosecondsToTicksj
a00160c0 T _Z23CPU_MicrosecondsToTicksy
a000661c T _Z23CPU_MillisecondsToTicksj
a0006e28 T _Z23CPU_USART_TxBufferEmptyi
a0005408 T _Z23DebuggerPort_Initializei
a0008dbc T _Z23USART_AddCharToRxBufferic
a0000844 T _Z23WaitForTinyBooterUploadRi
a000995c T _Z23Watchdog_GetSetBehavior17Watchdog_Behaviorj
a00057e8 T _Z24Buttons_HW_To_Hal_Buttonj
a000a934 T _Z24CPU_EBIU_Memory_ReadOnlyRK17CPU_MEMORY_CONFIGj
a0006224 T _Z24CPU_GPIO_EnableOutputPinjj
a0007de4 T _Z24CPU_GetUncachableAddressj
a00000b8 T _Z24PrepareImageRegions_IRAMv
a0000644 T _Z24TinyBooter_OnStateChange16_TinyBooterStatePvPS0_
a0005380 T _Z25DebuggerPort_Uninitializei
a0000594 T _Z25TinyBooter_GetReleaseInfoR13MfReleaseInfo
a000598c T _Z26Buttons_GetNextStateChangeRjS_
a000a930 T _Z26CPU_EBIU_ConfigMemoryBlockRK17CPU_MEMORY_CONFIG
a00077cc T _Z26CPU_INTC_ActivateInterruptjPFvPvES_
a0005a90 T _Z27Buttons_RegisterStateChangejj
a00065ec T _Z27HAL_Time_GetDriftParametersPiS_Px
a00066fc T _Z27HAL_Time_Sleep_MicroSecondsj
a0000100 T _Z27PrepareImageRegions_IRAM_TCv
a0000574 T _Z27Tinybooter_ProgramWordCheckv
a0000580 T _Z28Tinybooter_ImageIsCompressedv
a0008bc4 T _Z28USART_RemoveCharFromTxBufferiRc
a0007704 T _Z29CPU_INTC_InterruptEnableStatej
a0005138 T _Z29CPU_ProtectCommunicationGPIOsj
a0006e0c T _Z29CPU_USART_WriteCharToTxBufferih
a0006d80 T _Z30CPU_USART_TxShiftRegisterEmptyi
a0000588 T _Z31Tinybooter_CompressedImageStartRK22CompressedImage_Header
a0007458 T _Z33CPU_USART_TxHandshakeEnabledStatei
a0006eb0 T _Z37CPU_USART_RxBufferFullInterruptEnableij
a0006d3c T _Z37CPU_USART_TxBufferEmptyInterruptStatei
a0007200 T _Z38CPU_USART_TxBufferEmptyInterruptEnableij
a0000590 T _Z39Tinybooter_PrepareForDecompressedLaunchv
a0006640 T _Z44HAL_Time_Sleep_MicroSeconds_InterruptEnabledj
a0000460 T _Z7delayMsjj
a0007960 T _Z8CPU_Haltv
a00004d0 T _Z8GetFpclkj
a0000154 T _Z8GetFsclkv
a0009848 T _Z8USB_ReadiPcj
a00078f8 T _Z9CPU_Resetv
a00079e8 T _Z9CPU_Sleep11SLEEP_LEVELy
a00057a8 T _Z9LCD_Clearv
a0009850 T _Z9USB_Flushi
a0009840 T _Z9USB_WriteiPKcj
a000a93c T _ZN10TimeDriver10InitializeEv
a0021dc0 B _ZN10TimeDriver13m_initializedE
a0003cb0 T _ZN10WP_Message10InitializeEP13WP_Controller
a0003e0c T _ZN10WP_Message12PrepareReplyERK9WP_PacketjjPh
a0003dc4 T _ZN10WP_Message12VerifyHeaderEv
a0003d74 T _ZN10WP_Message13VerifyPayloadEv
a0003ed0 T _ZN10WP_Message14PrepareRequestEjjjPh
a0004008 T _ZN10WP_Message14ReplyBadPacketEj
a0003c40 T _ZN10WP_Message16PrepareReceptionEv
a0004084 T _ZN10WP_Message7ProcessEv
a0003c4c T _ZN10WP_Message7ReleaseEv
a0003444 T _ZN11CryptoState15VerifySignatureEj
a0003410 T _ZN11CryptoStateC1EjjPhjj
a00036f4 T _ZN11CryptoStateD1Ev
a000659c W _ZN11LPC24XX_VIC14ForceInterruptEj
a00076a8 W _ZN11LPC24XX_VIC18IsInterruptEnabledEj
a00075bc W _ZN11LPC24XX_VIC21RemoveForcedInterruptEj
a0007594 W _ZN12HAL_CALLBACK10InitializeEPFvPvES0_
a0007c30 T _ZN12SmartPtr_IRQ11WasDisabledEv
a0007cf8 T _ZN12SmartPtr_IRQ12ForceEnabledEPv
a0007d14 T _ZN12SmartPtr_IRQ13ForceDisabledEPv
a0007d4c T _ZN12SmartPtr_IRQ5ProbeEv
a0007cac T _ZN12SmartPtr_IRQ7AcquireEv
a0007c88 T _ZN12SmartPtr_IRQ7DisableEv
a0007d70 T _ZN12SmartPtr_IRQ7ReleaseEv
a0007c40 T _ZN12SmartPtr_IRQ7RestoreEv
a0007d30 T _ZN12SmartPtr_IRQ8GetStateEPv
a0007cd0 T _ZN12SmartPtr_IRQC1EPv
a0007c64 T _ZN12SmartPtr_IRQD1Ev
a000968c T _ZN12USART_Driver10InitializeEiiiiii
a00095d4 T _ZN12USART_Driver12UninitializeEi
a0008be0 T _ZN12USART_Driver17AddCharToRxBufferEic
a0008adc T _ZN12USART_Driver22RemoveCharFromTxBufferEiRc
a0009100 T _ZN12USART_Driver4ReadEiPcj
a0008dd8 T _ZN12USART_Driver5FlushEi
a0009348 T _ZN12USART_Driver5WriteEiPKcj
a0008a18 T _ZN12USART_Driver7SendXONEij
a0008a78 T _ZN12USART_Driver8SendXOFFEij
a0008960 T _ZN12USART_Driver8SetEventEij
a00065b0 W _ZN13LPC24XX_TIMER8getIntNoEi
a0006c6c W _ZN13LPC24XX_USART8getIntNoEi
a0002d4c T _ZN13Loader_Engine10InitializeEi
a0000a8c T _ZN13Loader_Engine11App_ReleaseEPvP10WP_Message
a000165c T _ZN13Loader_Engine12Monitor_PingEP10WP_Message
a0001860 T _ZN13Loader_Engine14Monitor_RebootEP10WP_Message
a00018c4 T _ZN13Loader_Engine14ProcessPayloadEP10WP_Message
a00016a8 T _ZN13Loader_Engine14ReplyToCommandEP10WP_Messagebb
a00012e8 T _ZN13Loader_Engine14ReplyToCommandEP10WP_MessagebbPvi
a0002468 T _ZN13Loader_Engine15Monitor_ExecuteEP10WP_Message
a00015e4 T _ZN13Loader_Engine15Monitor_OemInfoEP10WP_Message
a0001cec T _ZN13Loader_Engine15ProcessCommandsEv
a0000a38 T _ZN13Loader_Engine15SignedDataState10CheckDirtyEv
a00028e4 T _ZN13Loader_Engine15SignedDataState15VerifySignatureEPhjj
a0002328 T _ZN13Loader_Engine15SignedDataState19EraseMemoryAndResetEv
a0002000 T _ZN13Loader_Engine15SignedDataState20VerifyContiguousDataEjj
a0000a58 T _ZN13Loader_Engine15SignedDataState5ResetEv
a00019d8 T _ZN13Loader_Engine15TransmitMessageEPK10WP_Messageb
a0002df8 T _ZN13Loader_Engine16Phy_ReceiveBytesEPvRPhRj
a0002e58 T _ZN13Loader_Engine17App_ProcessHeaderEPvP10WP_Message
a00023a0 T _ZN13Loader_Engine17Monitor_MemoryMapEP10WP_Message
a0001998 T _ZN13Loader_Engine18App_ProcessPayloadEPvP10WP_Message
a0001bb0 T _ZN13Loader_Engine18EnumerateAndLaunchEv
a0002824 T _ZN13Loader_Engine18Monitor_ReadMemoryEP10WP_Message
a00026b0 T _ZN13Loader_Engine19Monitor_CheckMemoryEP10WP_Message
a00025f4 T _ZN13Loader_Engine19Monitor_EraseMemoryEP10WP_Message
a0002764 T _ZN13Loader_Engine19Monitor_WriteMemoryEP10WP_Message
a0001a64 T _ZN13Loader_Engine19Phy_TransmitMessageEPvPK10WP_Message
a0002aa8 T _ZN13Loader_Engine22Monitor_CheckSignatureEP10WP_Message
a00013a4 T _ZN13Loader_Engine22Monitor_FlashSectorMapEP10WP_Message
a00016d0 T _ZN13Loader_Engine26Monitor_SignatureKeyUpdateEP10WP_Message
a0001a84 T _ZN13Loader_Engine6LaunchEPFvvE
a000127c T _ZN13MfReleaseInfo4InitERS_ttttPKcj
a0003d00 T _ZN13WP_Controller10InitializeEPKcPK16WP_PhysicalLayerPK19WP_ApplicationLayerPv
a00043ac T _ZN13WP_Controller12AdvanceStateEv
a0003c8c T _ZN13WP_Controller19SendProtocolMessageERK10WP_Message
a0003f88 T _ZN13WP_Controller19SendProtocolMessageEjjjPh
a000a670 T _ZN14HAL_COMPLETION14DequeueAndExecEv
a000a280 T _ZN14HAL_COMPLETION14InitializeListEv
a0005554 W _ZN14HAL_COMPLETION16InitializeForISREPFvPvES0_
a000a5b4 T _ZN14HAL_COMPLETION17WaitForInterruptsEyjy
a000a50c T _ZN14HAL_COMPLETION5AbortEv
a000a424 T _ZN14HAL_COMPLETION7ExecuteEv
a000797c T _ZN14LPC24XX_Driver10InitializeEv
a0007914 T _ZN14LPC24XX_Driver4HaltEv
a00078dc T _ZN14LPC24XX_Driver5ResetEv
a00078bc T _ZN14LPC24XX_Driver8ShutdownEv
a0002128 W _ZN15BitFieldManager17SetDirtySectorBitEj
a0000a18 W _ZN15BitFieldManager20ResetBitFieldManagerEv
a00022c8 W _ZN15BitFieldManager24InvalidateSectorBitFieldEv
a0000ab4 W _ZN15BitFieldManager24ResetSignatureCheckArrayEv
a0002b3c W _ZN15BitFieldManager25EraseOnSignatureCheckFailEv
a0001d0c W _ZN15BitFieldManager27GetNextSectorSignatureCheckEP18BlockStorageDeviceR16SECTOR_BIT_FIELD
a000470c T _ZN16BlockStorageList10InitializeEv
a00192d4 B _ZN16BlockStorageList12s_deviceListE
a0004f34 T _ZN16BlockStorageList13GetNextDeviceER18BlockStorageDevice
a00192d0 B _ZN16BlockStorageList13s_InitializedE
a0004690 T _ZN16BlockStorageList14GetFirstDeviceEv
a00192e0 B _ZN16BlockStorageList15s_primaryDeviceE
a0004f68 T _ZN16BlockStorageList17InitializeDevicesEv
a000505c T _ZN16BlockStorageList28FindDeviceForPhysicalAddressEPP18BlockStorageDevicejRj
a0004e98 T _ZN16BlockStorageList9AddDeviceEP18BlockStorageDeviceP19IBlockStorageDevicePvj
a000a7a0 T _ZN16HAL_CONFIG_BLOCK11ApplyConfigEPKcPvj
a000a25c T _ZN16HAL_CONTINUATION14InitializeListEv
a000a1a0 T _ZN16HAL_CONTINUATION18InitializeCallbackEPFvPvES0_
a000a450 T _ZN16HAL_CONTINUATION19Dequeue_And_ExecuteEv
a000a3bc T _ZN16HAL_CONTINUATION7EnqueueEv
a000a21c W _ZN17HAL_DblLinkedListI16HAL_CONTINUATIONE10InitializeEv
a000a330 W _ZN17HAL_DblLinkedListI16HAL_CONTINUATIONE10LinkAtBackEPS0_
a000a388 W _ZN17HAL_DblLinkedListI16HAL_CONTINUATIONE16ExtractFirstNodeEv
a000a2d0 W _ZN17HAL_DblLinkedListI16HAL_CONTINUATIONE16InsertBeforeNodeEPS0_S2_
a000a2bc W _ZN17HAL_DblLinkedListI16HAL_CONTINUATIONE6InsertEPS0_S2_S2_
a00046cc W _ZN17HAL_DblLinkedListI18BlockStorageDeviceE10InitializeEv
a00047d0 W _ZN17HAL_DblLinkedListI18BlockStorageDeviceE10LinkAtBackEPS0_
a0004770 W _ZN17HAL_DblLinkedListI18BlockStorageDeviceE16InsertBeforeNodeEPS0_S2_
a000475c W _ZN17HAL_DblLinkedListI18BlockStorageDeviceE6InsertEPS0_S2_S2_
a0005510 W _ZN17HAL_DblLinkedNodeI16HAL_CONTINUATIONE10InitializeEv
a000a2a4 W _ZN17HAL_DblLinkedNodeI16HAL_CONTINUATIONE14RemoveFromListEv
a000a178 W _ZN17HAL_DblLinkedNodeI16HAL_CONTINUATIONE6UnlinkEv
a0004668 W _ZN17HAL_DblLinkedNodeI18BlockStorageDeviceE10InitializeEv
a0004744 W _ZN17HAL_DblLinkedNodeI18BlockStorageDeviceE14RemoveFromListEv
a0000550 W _ZN18BlockStorageDevice13GetDeviceInfoEv
a00009d0 W _ZN18BlockStorageDevice13IsBlockErasedEjj
a00043d4 W _ZN18BlockStorageDevice16InitializeDeviceEv
a00045d0 W _ZN18BlockStorageDevice17FindForBlockUsageEjRjS0_S0_
a000461c W _ZN18BlockStorageDevice18FindNextUsageBlockEjRjS0_S0_
a0000600 W _ZN18BlockStorageDevice21FindRegionFromAddressEjRjS0_
a0000980 W _ZN18BlockStorageDevice4ReadEjjPh
a00009a4 W _ZN18BlockStorageDevice5WriteEjjPhj
a0004e78 T _ZN18BlockStorageStream10InitializeEj
a0004dd4 T _ZN18BlockStorageStream10InitializeEjP18BlockStorageDevice
a0004810 T _ZN18BlockStorageStream10NextStreamEv
a0004b24 T _ZN18BlockStorageStream10PrevStreamEv
a00043f8 T _ZN18BlockStorageStream14CurrentAddressEv
a00049f4 T _ZN18BlockStorageStream4ReadEPPhj
a0004ce4 T _ZN18BlockStorageStream4SeekEiNS_10SeekOriginE
a0005aec T _ZN18GPIO_BUTTON_Driver10InitializeEv
a000589c T _ZN18GPIO_BUTTON_Driver14CurrentHWStateEv
a00057b0 T _ZN18GPIO_BUTTON_Driver16HW_To_Hal_ButtonEj
a0005914 T _ZN18GPIO_BUTTON_Driver18GetNextStateChangeERjS0_
a00059a8 T _ZN18GPIO_BUTTON_Driver19RegisterStateChangeEjj
a0005aac T _ZN18GPIO_BUTTON_Driver3ISREjjPv
a000a7ec T _ZN18LPC24XX_SPI_Driver10InitializeEv
a00075d0 T _ZN18LPC24XX_VIC_Driver10InitializeEv
a0017530 D _ZN18LPC24XX_VIC_Driver10s_IsrTableE
a00077f4 T _ZN18LPC24XX_VIC_Driver11IRQ_HandlerEv
a0007640 T _ZN18LPC24XX_VIC_Driver14IRQToIRQVectorEj
a0007670 T _ZN18LPC24XX_VIC_Driver14STUB_ISRVectorEPv
a0007720 T _ZN18LPC24XX_VIC_Driver17ActivateInterruptEjjPFvPvES0_
a00076dc T _ZN18LPC24XX_VIC_Driver20InterruptEnableStateEj
a0016768 T _ZN19AT49BV_16_BS_Driver10EraseBlockEPvj
a001657c T _ZN19AT49BV_16_BS_Driver12ChipReadOnlyEPvjj
a001643c T _ZN19AT49BV_16_BS_Driver13Action_ReadIDEPvRjS1_
a001627c T _ZN19AT49BV_16_BS_Driver13GetDeviceInfoEPv
a0016528 T _ZN19AT49BV_16_BS_Driver13IsBlockErasedEPvjj
a0016ad4 T _ZN19AT49BV_16_BS_Driver13ReadProductIDEPvRjS1_
a0016294 T _ZN19AT49BV_16_BS_Driver13SetPowerStateEPvj
a0016b24 T _ZN19AT49BV_16_BS_Driver14ChipInitializeEPv
a00162b0 T _ZN19AT49BV_16_BS_Driver16Action_UnprotectEPvPVt
a00162b4 T _ZN19AT49BV_16_BS_Driver16Action_WriteWordEPvPVtt
a0016274 T _ZN19AT49BV_16_BS_Driver16ChipUnInitializeEPv
a0016284 T _ZN19AT49BV_16_BS_Driver17GetSectorMetadataEPvjP14SectorMetadata
a001628c T _ZN19AT49BV_16_BS_Driver17SetSectorMetadataEPvjP14SectorMetadata
a0016370 T _ZN19AT49BV_16_BS_Driver18Action_EraseSectorEPvPVt
a00162a4 T _ZN19AT49BV_16_BS_Driver18MaxBlockErase_uSecEPv
a0016298 T _ZN19AT49BV_16_BS_Driver19MaxSectorWrite_uSecEPv
a00164d8 T _ZN19AT49BV_16_BS_Driver4ReadEPvjjPh
a001681c T _ZN19AT49BV_16_BS_Driver5WriteEPvjjPhj
a0016734 T _ZN19AT49BV_16_BS_Driver6MemsetEPvjhj
a0016610 T _ZN19AT49BV_16_BS_Driver6WriteXEPvjjPhjj
a0005804 W _ZN19Hal_Queue_KnownSizeIN18GPIO_BUTTON_Driver19BUTTON_STATE_CHANGEELj64EE10InitializeEv
a0005858 W _ZN19Hal_Queue_KnownSizeIN18GPIO_BUTTON_Driver19BUTTON_STATE_CHANGEELj64EE3PopEv
a0005818 W _ZN19Hal_Queue_KnownSizeIN18GPIO_BUTTON_Driver19BUTTON_STATE_CHANGEELj64EE4PushEv
a0005ea0 T _ZN19LPC24XX_GPIO_Driver10DisablePinEj13GPIO_RESISTORj13GPIO_ALT_MODE
a00064a8 T _ZN19LPC24XX_GPIO_Driver10InitializeEv
a000609c T _ZN19LPC24XX_GPIO_Driver11GetPinStateEj
a0005e78 W _ZN19LPC24XX_GPIO_Driver11PinToPCBRegEj
a0005fc0 T _ZN19LPC24XX_GPIO_Driver11SetPinStateEjj
a0006240 T _ZN19LPC24XX_GPIO_Driver14EnableInputPinEjjPFvjjPvES0_13GPIO_INT_EDGE13GPIO_RESISTOR
a0005e4c W _ZN19LPC24XX_GPIO_Driver14PinToPCBRegBitEj
a0005e24 T _ZN19LPC24XX_GPIO_Driver14STUB_ISRVectorEjjPv
a0006120 T _ZN19LPC24XX_GPIO_Driver15EnableOutputPinEjj
a0005bf8 T _ZN19LPC24XX_GPIO_Driver18PIN_ISR_DESCRIPTOR4FireEPv
a0005c20 T _ZN19LPC24XX_GPIO_Driver8GPIO_ISREPv
a0005f70 W _ZN19LPC24XX_GPIO_Driver8PinToBitEj
a0005f98 W _ZN19LPC24XX_GPIO_Driver9PinToPortEj
a0006aac T _ZN19LPC24XX_TIME_Driver10InitializeEv
a0016114 T _ZN19LPC24XX_TIME_Driver10Sleep_uSecEj
a000665c T _ZN19LPC24XX_TIME_Driver12CounterValueEv
a000688c T _ZN19LPC24XX_TIME_Driver15SetCompareValueEy
a00160ec T _ZN19LPC24XX_TIME_Driver15Sleep_uSec_LoopEj
a00069b0 T _ZN19LPC24XX_TIME_Driver3ISREPv
a000a7c8 T _ZN20FileSystemVolumeList10InitializeEv
a000a7cc T _ZN20FileSystemVolumeList17InitializeVolumesEv
a0006b58 T _ZN20LPC24XX_TIMER_Driver10InitializeEjPFvPvES0_
a000684c W _ZN20LPC24XX_TIMER_Driver10SetCompareEjj
a001619c T _ZN20LPC24XX_TIMER_Driver11ReadCounterEj
a000680c W _ZN20LPC24XX_TIMER_Driver13DidCompareHitEj
a0006718 W _ZN20LPC24XX_TIMER_Driver14ForceInterruptEj
a00067cc W _ZN20LPC24XX_TIMER_Driver15ResetCompareHitEj
a0006a68 W _ZN20LPC24XX_TIMER_Driver22EnableCompareInterruptEj
a000721c T _ZN20LPC24XX_USART_Driver10InitializeEiiiiii
a0006fb0 T _ZN20LPC24XX_USART_Driver11ProtectPinsEij
a000713c T _ZN20LPC24XX_USART_Driver12UninitializeEi
a0006d9c T _ZN20LPC24XX_USART_Driver13TxBufferEmptyEi
a0007460 T _ZN20LPC24XX_USART_Driver15UART_IntHandlerEPv
a0006dc4 T _ZN20LPC24XX_USART_Driver19WriteCharToTxBufferEih
a0006d58 T _ZN20LPC24XX_USART_Driver20TxShiftRegisterEmptyEi
a0006e44 T _ZN20LPC24XX_USART_Driver27RxBufferFullInterruptEnableEij
a0006d08 T _ZN20LPC24XX_USART_Driver27TxBufferEmptyInterruptStateEi
a0006ecc T _ZN20LPC24XX_USART_Driver28TxBufferEmptyInterruptEnableEij
a00087a8 W _ZN21Hal_Queue_UnknownSizeIhE10InitializeEPhj
a00088d0 W _ZN21Hal_Queue_UnknownSizeIhE16NumberOfElementsEv
a0008844 W _ZN21Hal_Queue_UnknownSizeIhE3PopERj
a000875c W _ZN21Hal_Queue_UnknownSizeIhE3PopEv
a00087c4 W _ZN21Hal_Queue_UnknownSizeIhE4PushERj
a000891c W _ZN21Hal_Queue_UnknownSizeIhE4PushEv
a00088fc W _ZN21Hal_Queue_UnknownSizeIhE7IsEmptyEv
a000a868 T _ZN23LPC24XX_WATCHDOG_Driver7DisableEv
a000a898 T _ZN23LPC24XX_WATCHDOG_Driver8ResetCpuEv
a0002fd4 T _ZN26ConfigurationSectorManager17GetDeploymentKeysEj
a0002f6c T _ZN26ConfigurationSectorManager17LoadConfigurationEv
a0003278 T _ZN26ConfigurationSectorManager18UpdateSignatureKeyEjPh
a00030e8 T _ZN26ConfigurationSectorManager18WriteConfigurationEjPhjj
a00032a8 T _ZN26ConfigurationSectorManager19CleanBootLoaderFlagEv
a000301c T _ZN26ConfigurationSectorManager19VerifiySignatureKeyEjPh
a0002f54 T _ZN26ConfigurationSectorManager20GetTinyBooterVersionEv
a0002e94 T _ZN26ConfigurationSectorManager20IsBootLoaderRequiredERi
a000307c T _ZN26ConfigurationSectorManager21EraseWriteConfigBlockEPhj
a0002f14 T _ZN26ConfigurationSectorManager22CheckSignatureKeyEmptyEj
a00032e8 T _ZN26ConfigurationSectorManager25LocateConfigurationSectorEj
a0006ca8 W _ZN7LPC24XX4UARTEi
a000676c W _ZN7LPC24XX5TIMEREi
a00008cc W _ZN7Version4InitERS_tttt
a0000904 W _ZNK10BlockRange13GetBlockCountEv
a00043cc W _ZNK10BlockRange13GetBlockUsageEv
a00008e4 W _ZNK10BlockRange8IsConfigEv
a000759c W _ZNK12HAL_CALLBACK7ExecuteEv
a000459c T _ZNK15BlockDeviceInfo17FindForBlockUsageEjRjS0_S0_
a00044dc T _ZNK15BlockDeviceInfo18FindNextUsageBlockEjRjS0_S0_
a0004404 T _ZNK15BlockDeviceInfo21FindRegionFromAddressEjRjS0_
a0000914 W _ZNK15BlockRegionInfo12BlockAddressEj
a0000924 W _ZNK15BlockRegionInfo15OffsetFromBlockEj
a0000954 W _ZNK15BlockRegionInfo21BlockIndexFromAddressEj
a000a924 W _ZNK15BlockRegionInfo4SizeEv
a000a158 W _ZNK16HAL_CONTINUATION7ExecuteEv
a000a370 W _ZNK17HAL_DblLinkedListI16HAL_CONTINUATIONE14FirstValidNodeEv
a000a218 W _ZNK17HAL_DblLinkedListI16HAL_CONTINUATIONE4HeadEv
a000a1e4 W _ZNK17HAL_DblLinkedListI16HAL_CONTINUATIONE4TailEv
a000a1ec W _ZNK17HAL_DblLinkedListI16HAL_CONTINUATIONE7IsEmptyEv
a0004678 W _ZNK17HAL_DblLinkedListI18BlockStorageDeviceE14FirstValidNodeEv
a00046c8 W _ZNK17HAL_DblLinkedListI18BlockStorageDeviceE4HeadEv
a00046c0 W _ZNK17HAL_DblLinkedListI18BlockStorageDeviceE4TailEv
a00009f4 W _ZNK18BlockStorageDevice10EraseBlockEj
a0021dc4 b _ZZN10TimeDriver16DateTimeToStringERKxE8rgBuffer
a0021e44 b _ZZN10TimeDriver16TimeSpanToStringERKxE8rgBuffer
a00176f8 d _ZZN20LPC24XX_USART_Driver11ProtectPinsEijE18COM1_PinsProtected
a00176fc d _ZZN20LPC24XX_USART_Driver11ProtectPinsEijE18COM2_PinsProtected
a00176f0 d _ZZN20LPC24XX_USART_Driver11ProtectPinsEijE18COM3_PinsProtected
a00176f4 d _ZZN20LPC24XX_USART_Driver11ProtectPinsEijE18COM4_PinsProtected
a001480c T ___Unwind_ForcedUnwind
a00147a0 T ___Unwind_RaiseException
a00147c4 T ___Unwind_Resume
a00147e8 T ___Unwind_Resume_or_Rethrow
a00121dc T __adddf3
a0012b38 T __aeabi_cdcmpeq
a0012b38 T __aeabi_cdcmple
a0012b1c T __aeabi_cdrcmple
a0012bc8 T __aeabi_d2iz
a00121dc T __aeabi_dadd
a0012b50 T __aeabi_dcmpeq
a0012b98 T __aeabi_dcmpge
a0012bb0 T __aeabi_dcmpgt
a0012b80 T __aeabi_dcmple
a0012b68 T __aeabi_dcmplt
a001287c T __aeabi_ddiv
a00125ec T __aeabi_dmul
a00121d0 T __aeabi_drsub
a00121d8 T __aeabi_dsub
a0012538 T __aeabi_f2d
a0012510 T __aeabi_i2d
a00121cc T __aeabi_idiv0
a001258c T __aeabi_l2d
a00121cc T __aeabi_ldiv0
a00124ec T __aeabi_ui2d
a00120b8 T __aeabi_uidiv
a00121b4 T __aeabi_uidivmod
a0012578 T __aeabi_ul2d
a0012c24 T __aeabi_uldivmod
a0013dc0 T __aeabi_unwind_cpp_pr0
a0013dac W __aeabi_unwind_cpp_pr1
a0013d98 W __aeabi_unwind_cpp_pr2
a0010c70 T __any_on
a0010a68 T __b2d
a0015fc0 T __clz_tab
a0012a98 T __cmpdf2
a0010c14 T __copybits
         w __cxa_begin_cleanup
         w __cxa_call_unexpected
         w __cxa_type_match
a0010da4 T __d2b
a00121cc T __div0
a001287c T __divdf3
a0012cd0 T __divdi3
a0012a98 T __eqdf2
a0021f24 B __exidx_end
a0021f24 B __exidx_start
a0012538 T __extendsfdf2
a0012bc8 T __fixdfsi
a001258c T __floatdidf
a0012510 T __floatsidf
a0012578 T __floatundidf
a00124ec T __floatunsidf
a000f318 t __fp_lock
a000f34c T __fp_lock_all
a000f320 t __fp_unlock
a000f328 T __fp_unlock_all
a0012a88 T __gedf2
         w __gnu_Unwind_Find_exidx
a001407c T __gnu_Unwind_ForcedUnwind
a00141ec T __gnu_Unwind_RaiseException
a00146c0 T __gnu_Unwind_Restore_VFP
a00146d0 T __gnu_Unwind_Restore_VFP_D
a00146e0 T __gnu_Unwind_Restore_VFP_D_16_to_31
a0014778 T __gnu_Unwind_Restore_WMMXC
a00146f0 T __gnu_Unwind_Restore_WMMXD
a0014100 T __gnu_Unwind_Resume
a0014298 T __gnu_Unwind_Resume_or_Rethrow
a00146c8 T __gnu_Unwind_Save_VFP
a00146d8 T __gnu_Unwind_Save_VFP_D
a00146e8 T __gnu_Unwind_Save_VFP_D_16_to_31
a001478c T __gnu_Unwind_Save_WMMXC
a0014734 T __gnu_Unwind_Save_WMMXD
a0012c88 T __gnu_ldivmod_helper
a0012c40 T __gnu_uldivmod_helper
a001490c T __gnu_unwind_execute
a0014d18 T __gnu_unwind_frame
a0013960 t __gnu_unwind_pr_common
a0012a88 T __gtdf2
a00108b4 T __hi0bits
a0011300 T __i2b
a0011b94 T __isinfd
a0011bd0 T __isnand
a0017bbc D __lc_ctype
a0012a90 T __ledf2
a001090c T __lo0bits
a000fdd4 T __locale_charset
a001101c T __lshift
a0012a90 T __ltdf2
a0017bc8 D __malloc_av_
a0021ef4 B __malloc_current_mallinfo
a0010890 T __malloc_lock
a0021f1c B __malloc_max_sbrked_mem
a0021f20 B __malloc_max_total_mem
a0017fd0 D __malloc_sbrk_base
a0021ef0 B __malloc_top_pad
a0017fd4 D __malloc_trim_threshold
a0010894 T __malloc_unlock
a0017bb8 D __mb_cur_max
a00109a0 T __mcmp
a0010ed8 T __mdiff
a0015f70 T __mprec_bigtens
a0015e98 T __mprec_tens
a0015f98 T __mprec_tinytens
a00125ec T __muldf3
a0011324 T __multadd
a0011128 T __multiply
a0012a98 T __nedf2
a00113fc T __pow5mult
a0010b24 T __ratio
a00146a4 T __restore_core_regs
a00114f4 T __s2b
a0011c40 T __sclose
a000f398 T __sfmoreglue
a000f3ec T __sfp
a000f284 T __sfp_lock_acquire
a000f288 T __sfp_lock_release
a000f884 T __sfvwrite_r
a0014e5c T __sigtramp
a0014dd8 T __sigtramp_r
a000f294 T __sinit
a000f28c T __sinit_lock_acquire
a000f290 T __sinit_lock_release
a000fe7c T __smakebuf
a000af6c t __sprint_r
a0011d10 T __sread
a0011c60 T __sseek
a00121d8 T __subdf3
a0011cac T __swrite
a000d87c T __swsetup
a0013254 T __udivdi3
a00120b8 T __udivsi3
a0010a08 T __ulp
00000000 A __use_no_semihosting_swi
a0011e04 T _calloc_r
a000f388 T _cleanup
a000f370 T _cleanup_r
a001752c T _close
a0011ea4 T _close_r
a000dbb0 T _dtoa_r
a001752c T _exit
a0011ee0 T _fclose_r
a000f5c4 T _free_r
a001752c T _fstat
a0011ff0 T _fstat_r
a000fd4c T _fwalk
a000fcc0 T _fwalk_reent
a001752c T _getpid
a0014fa4 T _getpid_r
a0015d98 T _global_impure_ptr
a00177b0 D _impure_ptr
a0014dc8 T _init_signal
a0014d70 T _init_signal_r
a001752c T _kill
a0014fb4 T _kill_r
a000fde4 T _localeconv_r
a001752c T _lseek
a0012030 T _lseek_r
a000fff8 T _malloc_r
a000f4c8 T _malloc_trim_r
a0010ba8 T _mprec_log10
a0014e70 T _raise_r
a001752c T _read
a0012074 T _read_r
a00115d8 T _realloc_r
a001752c T _sbrk
a0011c00 T _sbrk_r
a000fe00 T _setlocale_r
a0014f30 T _signal_r
         U _start
a000afa4 T _vfprintf_r
a000ae70 T _vsnprintf_r
a000d25c T _wcrtomb_r
a000d2d4 T _wcsrtombs_r
a000d45c T _wctomb_r
a001752c T _write
a0011dc0 T _write_r
a0014d60 T abort
a0015d9e t blanks.3531
a001531c t c_CRCTable
a001517c t c_Debugger_app
a0015174 t c_Debugger_phy
a00150d8 t c_Lookup_Reply
a00150e4 t c_Lookup_Request
a0015e54 t charset
a0008260 T debug_printf
a0021f24 B errno
a0011fdc T fclose
a000f070 T fflush
a0021dac B g_AT49BV642DT_16_BS
a0017744 D g_AT49BV642DT_16_BS_Config
a0015bc4 t g_AT49BV642DT_16_BlkRegion
a0015bd8 t g_AT49BV642DT_16_BlockRange
a0017728 D g_AT49BV642DT_16_DeviceInfo
a0017778 D g_AT49BV_16_BS_DeviceTable
a0017fe0 B g_BitFieldManager
a001e074 b g_Boot_RAMConstants_CRC
a001801c B g_ConfigBuffer
a0018020 B g_ConfigBufferLength
a0016c20 T g_ConfigurationSector
a00192ec B g_Event_Callback
a00192f0 B g_Event_Callback_Arg
a00192f8 B g_Events_BoolTimerCompletion
a00176bc D g_GPIO_BUTTON_Config
a0019318 B g_GPIO_BUTTON_Driver
a0021da0 B g_HAL_Completion_List
a0021d94 B g_HAL_Continuation_List
a0019528 B g_LPC24XX_GPIO_Driver
a001bab0 B g_LPC24XX_PINSEL_Driver
a001e048 B g_LPC24XX_TIMER_Driver
a001e038 B g_LPC24XX_TIME_Driver
a0018024 B g_PrimaryConfigManager
a0021ec8 B g_TimeDriver
a0018950 B g_eng
a001e058 b g_s_FirstCluster
a0013dd4 t get_eit_entry
a00177b8 d impure_data
a001752c T isatty
a00080b8 T lcd_printf
a0015e58 t lconv
a000fdf0 T localeconv
a000008c t loop
a001077c T memchr
a000a9c4 T memcmp
a000aa5c T memcpy
a000ab00 T memmove
a000abf4 T memset
a0014830 t next_unwind_byte
a0015f60 t p05.2718
a0000538 T platform_prestackinit
a0003a88 T private_free
a0003aa4 T private_malloc
a000d990 t quorem
a0014f1c T raise
a00146a4 T restore_core_regs
a0014168 t restore_non_core_regs
a0013894 t search_EIT_table
a0013878 t selfrel_offset31
a000fe60 T setlocale
a0014f88 T signal
a000f228 t std
a000ac80 T strcmp
a0011d58 T strlen
a000ad68 T strncpy
a00148cc t unwind_UCB_from_context
a00140a4 t unwind_phase2
a0013f20 t unwind_phase2_forced
a000d230 T vfprintf
a000aee8 T vsnprintf
a000d2a8 T wcrtomb
a000d418 T wcsrtombs
a0015dae t zeroes.3532
a000a008 T ABORTD_Handler
a0009920 t ABORTD_Handler_Ptr
a00098e0 T ABORTD_SubHandler
a0000028 t ABORTD_SubHandler_Trampoline
a000a078 T ABORTP_Handler
a00098dc t ABORTP_Handler_Ptr
a000989c T ABORTP_SubHandler
a0000024 t ABORTP_SubHandler_Trampoline
a0021d90 B ABORT_recursion_counter
a0000000 T ARM_Vectors
00000000 a BUILD_RTM
00000000 a BUILD_RTM
00000000 a BUILD_RTM
00000000 a BUILD_RTM
a0008510 T BootEntry
a00000a0 t BootEntryPointer
00000001 a COMPILE_ARM
00000001 a COMPILE_ARM
00000001 a COMPILE_ARM
00000001 a COMPILE_ARM
a0000074 t ClearZI_ER_RAM
a0007dd8 T Crypto_AbortRSAOperation
a0007dc8 T Crypto_StartRSAOperationWithKey
a0007dd0 T Crypto_StepRSAOperation
a0000000 T EntryPoint
00000001 a HAL_REDUCESIZE
00000001 a HAL_REDUCESIZE
00000001 a HAL_REDUCESIZE
a00066c4 T HAL_Time_CurrentTicks
a0009924 T HARD_Breakpoint
a0009f64 T HARD_Breakpoint_Handler
a0009948 t HARD_Breakpoint_Handler_Ptr
a0015798 T HalName
a0017700 D HalSystemConfig
a001e088 B Hal_Usart_State
a0100000 R HeapBegin
a0200000 R HeapEnd
a001625c T IDelayLoop
a0016268 T IDelayLoop2
a001625c t IDelayLoop__Fi_b
a0007890 T IRQ_Handler
a001623c T IRQ_LOCK_Disable_asm
a001620c T IRQ_LOCK_ForceDisabled_asm
a0016224 T IRQ_LOCK_ForceEnabled_asm
a00161fc T IRQ_LOCK_GetState_asm
a00161e8 T IRQ_LOCK_Probe_asm
a00161d8 T IRQ_LOCK_Release_asm
a001624c T IRQ_LOCK_Restore_asm
a000002c T IRQ_SubHandler_Trampoline
00017530 A Image$$ER_FLASH$$Length
40000000 N Image$$ER_IRAM$$Base
00000000 A Image$$ER_IRAM$$Length
40000040 N Image$$ER_IRAM_TC$$Base
00000000 A Image$$ER_IRAM_TC$$Length
a0000000 T Image$$ER_RAM_RO$$Base
00017530 A Image$$ER_RAM_RO$$Length
a0017530 D Image$$ER_RAM_RW$$Base
00000aa8 A Image$$ER_RAM_RW$$Length
a0017fe0 B Image$$ER_RAM_RW$$ZI$$Base
00009f48 A Image$$ER_RAM_RW$$ZI$$Length
a001e080 B LOAD_IMAGE_CalcCRC
a001e07c B LOAD_IMAGE_Length
a001e078 B LOAD_IMAGE_Start
a0000000 T Load$$ER_FLASH$$Base
a0021f28 A Load$$ER_IRAM$$Base
40000040 A Load$$ER_IRAM_TC$$Base
a0000000 A Load$$ER_RAM_RO$$Base
a0017530 A Load$$ER_RAM_RW$$Base
a001e05c b LoggingCallback
a0000080 t NoClearZI_ER_RAM
00000001 a PLATFORM_ARM_LPC24XX
00000001 a PLATFORM_ARM_LPC24XX
00000001 a PLATFORM_ARM_LPC24XX
00000001 a PLATFORM_ARM_LPC24XX
00000001 a PLATFORM_ARM_plak1a_LPC2478
00000001 a PLATFORM_ARM_plak1a_LPC2478
00000001 a PLATFORM_ARM_plak1a_LPC2478
00000001 a PLATFORM_ARM_plak1a_LPC2478
000000d7 a PSR_MODE_ABORT
000000d7 a PSR_MODE_ABORT
000000d1 a PSR_MODE_FIQ
000000d1 a PSR_MODE_FIQ
000000d2 a PSR_MODE_IRQ
000000d2 a PSR_MODE_IRQ
000000d3 a PSR_MODE_SUPERVISOR
000000d3 a PSR_MODE_SUPERVISOR
000000df a PSR_MODE_SYSTEM
000000df a PSR_MODE_SYSTEM
000000db a PSR_MODE_UNDEF
000000db a PSR_MODE_UNDEF
000000d0 a PSR_MODE_USER
000000d0 a PSR_MODE_USER
a001ed90 B RxBuffer_Com
00000010 a STACK_MODE_ABORT
00000800 a STACK_MODE_IRQ
00000010 a STACK_MODE_UNDEF
a02ffff8 R StackBottom
a0300000 R StackTop
a00192e8 B SystemEvents
a0008040 T SystemState_ClearNoLock
a0008058 T SystemState_QueryNoLock
a0008028 T SystemState_SetNoLock
a001e060 B SystemStates
00000001 a TARGETLOCATION_FLASH
00000001 a TARGETLOCATION_FLASH
00000001 a TARGETLOCATION_FLASH
00000001 a TARGETLOCATION_FLASH
a00066e0 T Time_CurrentTicks
a001e190 B TxBuffer_Com
a000a0e8 T UNDEF_Handler
a0009898 t UNDEF_Handler_Ptr
a0009858 T UNDEF_SubHandler
a0000020 t UNDEF_SubHandler_Trampoline
a0000030 t VectorAreaSkip
a0010d10 T _Balloc
a0010898 T _Bfree
a0013938 T _Unwind_Complete
a001393c T _Unwind_DeleteException
a001480c T _Unwind_ForcedUnwind
a0013930 T _Unwind_GetCFA
a0014894 T _Unwind_GetDataRelBase
a001489c t _Unwind_GetGR
a00137cc t _Unwind_GetGR
a00148d4 T _Unwind_GetLanguageSpecificData
a00148f8 T _Unwind_GetRegionStart
a001488c T _Unwind_GetTextRelBase
a00147a0 T _Unwind_RaiseException
a00147c4 T _Unwind_Resume
a00147e8 T _Unwind_Resume_or_Rethrow
a0013848 t _Unwind_SetGR
a0013780 T _Unwind_VRS_Get
a00142c8 T _Unwind_VRS_Pop
a00137fc T _Unwind_VRS_Set
a001376c t _Unwind_decode_target2
a0005730 T _Z10Events_Setj
a000932c T _Z10USART_ReadiPcj
a0007ff4 T _Z10hal_printfPKcz
a00090e4 T _Z11USART_Flushi
a00095b8 T _Z11USART_WriteiPKcj
a0007f8c T _Z11hal_fprintfiPKcz
a0007fc0 T _Z11hal_vprintfPKcPv
a0000c04 t _Z12AccessMemoryjjPhi
a00056dc T _Z12Events_Clearj
a00078ac T _Z12HAL_AssertExv
a0005bd8 T _Z12HeapLocationRPhRj
a0007db8 T _Z12SOCKETS_ReadiPcj
a0007df0 T _Z12hal_strlen_sPKc
a0007e94 T _Z12hal_vfprintfiPKcPv
a000a7c0 T _Z13FS_AddVolumesv
a000a7c4 T _Z13FS_Initializev
a0007dc0 T _Z13SOCKETS_Flushi
a0007db0 T _Z13SOCKETS_WriteiPKcj
a0009820 T _Z13USB_ConfigureiPK25USB_DYNAMIC_CONFIGURATION
a0007e0c T _Z13hal_strncpy_sPcjPKcj
a0007e78 T _Z13hal_vsnprintfPcjPKcPv
a00079cc T _Z14CPU_Initializev
a0008338 T _Z14HAL_Initializev
a000a7dc T _Z14I2C_Initializev
a000a7e4 T _Z14Ink_Initializev
a0005798 T _Z14LCD_Initializev
a0009818 T _Z14USB_Initializei
a0009830 T _Z14USB_OpenStreamiii
a0000148 T _Z15Bootstrap_Delayi
a0003b04 T _Z15LZ77_DecompressPhiS_i
a000a8f8 T _Z15Time_Initializev
a0009838 T _Z15USB_CloseStreami
a00057a0 T _Z16LCD_Uninitializev
a000a8e4 T _Z16Piezo_Initializev
a00097ec T _Z16USART_Initializeiiiiii
a0009828 T _Z16USB_Uninitializei
a000a87c T _Z16Watchdog_Disablev
a0007de0 T _Z17CPU_DisableCachesv
a000520c T _Z17DebuggerPort_ReadiPcj
a0005520 T _Z17Events_Initializev
a00054fc T _Z17Events_MaskedReadj
a0000524 T _Z17Initialize_SyncOnv
a000a7b8 T _Z18Battery_Initializev
a00002d8 T _Z18BootstrapCode_Pinsv
a0005bbc T _Z18Buttons_Initializev
a000a84c T _Z18CPU_SPI_Initializev
a0006610 T _Z18CPU_TicksPerSecondv
a000a7b0 T _Z18Charger_Initializev
a000a8e8 T _Z18CustomHeapLocationRPhRj
a00051a0 T _Z18DebuggerPort_Flushi
a0005278 T _Z18DebuggerPort_WriteiPKcj
a000a7d4 T _Z18Gesture_Initializev
a0007da0 T _Z18SOCKETS_Initializei
a0003ac0 T _Z18SUPPORT_ComputeCRCPKvij
a0007b24 T _Z18SimpleHeap_ReleasePv
a0009670 T _Z18USART_Uninitializei
a00000b4 T _Z19BootstrapCode_Dummyv
a0005f54 T _Z19CPU_GPIO_DisablePinj13GPIO_RESISTORj13GPIO_ALT_MODE
a0006580 T _Z19CPU_GPIO_Initializev
a0007624 T _Z19CPU_INTC_Initializev
a0007de8 T _Z19CPU_USB_ProtectPinsij
a0006b38 T _Z19HAL_Time_Initializev
a0006a4c T _Z19HAL_Time_SetComparey
a000a8dc T _Z19PalEvent_Initializev
a0007a40 T _Z19SimpleHeap_Allocatej
a00080f4 T _Z19Verify_RAMConstantsPv
a00099ec T _Z20ABORT_HandlerDisplayPjjjjPKcj
a000a7a8 T _Z20BackLight_Initializev
a00001b0 T _Z20BootstrapCode_Clocksv
a0006104 T _Z20CPU_GPIO_GetPinStatej
a0006080 T _Z20CPU_GPIO_SetPinStatejj
a000742c T _Z20CPU_USART_Initializeiiiiii
a000081c W _Z20Events_WaitForEventsjj
a0005578 T _Z20Events_WaitForEventsjjj
a00082f0 W _Z20HAL_Init_Custom_Heapv
a0006b54 T _Z20HAL_Time_TicksToTimey
a0007da8 T _Z20SOCKETS_Uninitializei
a0009964 T _Z20monitor_debug_printfPKcz
a000371c T _Z21ApplicationEntryPointv
a00071e4 T _Z21CPU_USART_ProtectPinsij
a0008074 T _Z21Checksum_RAMConstantsv
a0007a08 T _Z21SimpleHeap_InitializePvj
a0000294 T _Z22BootstrapCode_Ext_SRAMv
a00058f8 T _Z22Buttons_CurrentHWStatev
a00071c8 T _Z22CPU_USART_Uninitializei
a00057ac T _Z22LCD_WriteFormattedCharh
a000a91c T _Z22TimeService_Initializev
a000994c T _Z22Watchdog_GetSetEnabledjj
a0009954 T _Z22Watchdog_GetSetTimeoutij
a000a768 T _Z23BlockStorage_AddDevicesv
a0000298 T _Z23BootstrapCode_Ext_Flashv
a0000334 T _Z23BootstrapCode_Ext_SDRAMv
a0006480 T _Z23CPU_GPIO_EnableInputPinjjPFvjjPvE13GPIO_INT_EDGE13GPIO_RESISTOR
a00160e0 T _Z23CPU_MicrosecondsToTicksj
a00160c0 T _Z23CPU_MicrosecondsToTicksy
a000661c T _Z23CPU_MillisecondsToTicksj
a0006e28 T _Z23CPU_USART_TxBufferEmptyi
a0005408 T _Z23DebuggerPort_Initializei
a0008dbc T _Z23USART_AddCharToRxBufferic
a0000844 T _Z23WaitForTinyBooterUploadRi
a000995c T _Z23Watchdog_GetSetBehavior17Watchdog_Behaviorj
a00057e8 T _Z24Buttons_HW_To_Hal_Buttonj
a000a934 T _Z24CPU_EBIU_Memory_ReadOnlyRK17CPU_MEMORY_CONFIGj
a0006224 T _Z24CPU_GPIO_EnableOutputPinjj
a0007de4 T _Z24CPU_GetUncachableAddressj
a00000b8 T _Z24PrepareImageRegions_IRAMv
a0000644 T _Z24TinyBooter_OnStateChange16_TinyBooterStatePvPS0_
a0005380 T _Z25DebuggerPort_Uninitializei
a0000594 T _Z25TinyBooter_GetReleaseInfoR13MfReleaseInfo
a000598c T _Z26Buttons_GetNextStateChangeRjS_
a000a930 T _Z26CPU_EBIU_ConfigMemoryBlockRK17CPU_MEMORY_CONFIG
a00077cc T _Z26CPU_INTC_ActivateInterruptjPFvPvES_
a0005a90 T _Z27Buttons_RegisterStateChangejj
a00065ec T _Z27HAL_Time_GetDriftParametersPiS_Px
a00066fc T _Z27HAL_Time_Sleep_MicroSecondsj
a0000100 T _Z27PrepareImageRegions_IRAM_TCv
a0000574 T _Z27Tinybooter_ProgramWordCheckv
a0000580 T _Z28Tinybooter_ImageIsCompressedv
a0008bc4 T _Z28USART_RemoveCharFromTxBufferiRc
a0007704 T _Z29CPU_INTC_InterruptEnableStatej
a0005138 T _Z29CPU_ProtectCommunicationGPIOsj
a0006e0c T _Z29CPU_USART_WriteCharToTxBufferih
a0006d80 T _Z30CPU_USART_TxShiftRegisterEmptyi
a0000588 T _Z31Tinybooter_CompressedImageStartRK22CompressedImage_Header
a0007458 T _Z33CPU_USART_TxHandshakeEnabledStatei
a0006eb0 T _Z37CPU_USART_RxBufferFullInterruptEnableij
a0006d3c T _Z37CPU_USART_TxBufferEmptyInterruptStatei
a0007200 T _Z38CPU_USART_TxBufferEmptyInterruptEnableij
a0000590 T _Z39Tinybooter_PrepareForDecompressedLaunchv
a0006640 T _Z44HAL_Time_Sleep_MicroSeconds_InterruptEnabledj
a0000460 T _Z7delayMsjj
a0007960 T _Z8CPU_Haltv
a00004d0 T _Z8GetFpclkj
a0000154 T _Z8GetFsclkv
a0009848 T _Z8USB_ReadiPcj
a00078f8 T _Z9CPU_Resetv
a00079e8 T _Z9CPU_Sleep11SLEEP_LEVELy
a00057a8 T _Z9LCD_Clearv
a0009850 T _Z9USB_Flushi
a0009840 T _Z9USB_WriteiPKcj
a000a93c T _ZN10TimeDriver10InitializeEv
a0021dc0 B _ZN10TimeDriver13m_initializedE
a0003cb0 T _ZN10WP_Message10InitializeEP13WP_Controller
a0003e0c T _ZN10WP_Message12PrepareReplyERK9WP_PacketjjPh
a0003dc4 T _ZN10WP_Message12VerifyHeaderEv
a0003d74 T _ZN10WP_Message13VerifyPayloadEv
a0003ed0 T _ZN10WP_Message14PrepareRequestEjjjPh
a0004008 T _ZN10WP_Message14ReplyBadPacketEj
a0003c40 T _ZN10WP_Message16PrepareReceptionEv
a0004084 T _ZN10WP_Message7ProcessEv
a0003c4c T _ZN10WP_Message7ReleaseEv
a0003444 T _ZN11CryptoState15VerifySignatureEj
a0003410 T _ZN11CryptoStateC1EjjPhjj
a00036f4 T _ZN11CryptoStateD1Ev
a000659c W _ZN11LPC24XX_VIC14ForceInterruptEj
a00076a8 W _ZN11LPC24XX_VIC18IsInterruptEnabledEj
a00075bc W _ZN11LPC24XX_VIC21RemoveForcedInterruptEj
a0007594 W _ZN12HAL_CALLBACK10InitializeEPFvPvES0_
a0007c30 T _ZN12SmartPtr_IRQ11WasDisabledEv
a0007cf8 T _ZN12SmartPtr_IRQ12ForceEnabledEPv
a0007d14 T _ZN12SmartPtr_IRQ13ForceDisabledEPv
a0007d4c T _ZN12SmartPtr_IRQ5ProbeEv
a0007cac T _ZN12SmartPtr_IRQ7AcquireEv
a0007c88 T _ZN12SmartPtr_IRQ7DisableEv
a0007d70 T _ZN12SmartPtr_IRQ7ReleaseEv
a0007c40 T _ZN12SmartPtr_IRQ7RestoreEv
a0007d30 T _ZN12SmartPtr_IRQ8GetStateEPv
a0007cd0 T _ZN12SmartPtr_IRQC1EPv
a0007c64 T _ZN12SmartPtr_IRQD1Ev
a000968c T _ZN12USART_Driver10InitializeEiiiiii
a00095d4 T _ZN12USART_Driver12UninitializeEi
a0008be0 T _ZN12USART_Driver17AddCharToRxBufferEic
a0008adc T _ZN12USART_Driver22RemoveCharFromTxBufferEiRc
a0009100 T _ZN12USART_Driver4ReadEiPcj
a0008dd8 T _ZN12USART_Driver5FlushEi
a0009348 T _ZN12USART_Driver5WriteEiPKcj
a0008a18 T _ZN12USART_Driver7SendXONEij
a0008a78 T _ZN12USART_Driver8SendXOFFEij
a0008960 T _ZN12USART_Driver8SetEventEij
a00065b0 W _ZN13LPC24XX_TIMER8getIntNoEi
a0006c6c W _ZN13LPC24XX_USART8getIntNoEi
a0002d4c T _ZN13Loader_Engine10InitializeEi
a0000a8c T _ZN13Loader_Engine11App_ReleaseEPvP10WP_Message
a000165c T _ZN13Loader_Engine12Monitor_PingEP10WP_Message
a0001860 T _ZN13Loader_Engine14Monitor_RebootEP10WP_Message
a00018c4 T _ZN13Loader_Engine14ProcessPayloadEP10WP_Message
a00016a8 T _ZN13Loader_Engine14ReplyToCommandEP10WP_Messagebb
a00012e8 T _ZN13Loader_Engine14ReplyToCommandEP10WP_MessagebbPvi
a0002468 T _ZN13Loader_Engine15Monitor_ExecuteEP10WP_Message
a00015e4 T _ZN13Loader_Engine15Monitor_OemInfoEP10WP_Message
a0001cec T _ZN13Loader_Engine15ProcessCommandsEv
a0000a38 T _ZN13Loader_Engine15SignedDataState10CheckDirtyEv
a00028e4 T _ZN13Loader_Engine15SignedDataState15VerifySignatureEPhjj
a0002328 T _ZN13Loader_Engine15SignedDataState19EraseMemoryAndResetEv
a0002000 T _ZN13Loader_Engine15SignedDataState20VerifyContiguousDataEjj
a0000a58 T _ZN13Loader_Engine15SignedDataState5ResetEv
a00019d8 T _ZN13Loader_Engine15TransmitMessageEPK10WP_Messageb
a0002df8 T _ZN13Loader_Engine16Phy_ReceiveBytesEPvRPhRj
a0002e58 T _ZN13Loader_Engine17App_ProcessHeaderEPvP10WP_Message
a00023a0 T _ZN13Loader_Engine17Monitor_MemoryMapEP10WP_Message
a0001998 T _ZN13Loader_Engine18App_ProcessPayloadEPvP10WP_Message
a0001bb0 T _ZN13Loader_Engine18EnumerateAndLaunchEv
a0002824 T _ZN13Loader_Engine18Monitor_ReadMemoryEP10WP_Message
a00026b0 T _ZN13Loader_Engine19Monitor_CheckMemoryEP10WP_Message
a00025f4 T _ZN13Loader_Engine19Monitor_EraseMemoryEP10WP_Message
a0002764 T _ZN13Loader_Engine19Monitor_WriteMemoryEP10WP_Message
a0001a64 T _ZN13Loader_Engine19Phy_TransmitMessageEPvPK10WP_Message
a0002aa8 T _ZN13Loader_Engine22Monitor_CheckSignatureEP10WP_Message
a00013a4 T _ZN13Loader_Engine22Monitor_FlashSectorMapEP10WP_Message
a00016d0 T _ZN13Loader_Engine26Monitor_SignatureKeyUpdateEP10WP_Message
a0001a84 T _ZN13Loader_Engine6LaunchEPFvvE
a000127c T _ZN13MfReleaseInfo4InitERS_ttttPKcj
a0003d00 T _ZN13WP_Controller10InitializeEPKcPK16WP_PhysicalLayerPK19WP_ApplicationLayerPv
a00043ac T _ZN13WP_Controller12AdvanceStateEv
a0003c8c T _ZN13WP_Controller19SendProtocolMessageERK10WP_Message
a0003f88 T _ZN13WP_Controller19SendProtocolMessageEjjjPh
a000a670 T _ZN14HAL_COMPLETION14DequeueAndExecEv
a000a280 T _ZN14HAL_COMPLETION14InitializeListEv
a0005554 W _ZN14HAL_COMPLETION16InitializeForISREPFvPvES0_
a000a5b4 T _ZN14HAL_COMPLETION17WaitForInterruptsEyjy
a000a50c T _ZN14HAL_COMPLETION5AbortEv
a000a424 T _ZN14HAL_COMPLETION7ExecuteEv
a000797c T _ZN14LPC24XX_Driver10InitializeEv
a0007914 T _ZN14LPC24XX_Driver4HaltEv
a00078dc T _ZN14LPC24XX_Driver5ResetEv
a00078bc T _ZN14LPC24XX_Driver8ShutdownEv
a0002128 W _ZN15BitFieldManager17SetDirtySectorBitEj
a0000a18 W _ZN15BitFieldManager20ResetBitFieldManagerEv
a00022c8 W _ZN15BitFieldManager24InvalidateSectorBitFieldEv
a0000ab4 W _ZN15BitFieldManager24ResetSignatureCheckArrayEv
a0002b3c W _ZN15BitFieldManager25EraseOnSignatureCheckFailEv
a0001d0c W _ZN15BitFieldManager27GetNextSectorSignatureCheckEP18BlockStorageDeviceR16SECTOR_BIT_FIELD
a000470c T _ZN16BlockStorageList10InitializeEv
a00192d4 B _ZN16BlockStorageList12s_deviceListE
a0004f34 T _ZN16BlockStorageList13GetNextDeviceER18BlockStorageDevice
a00192d0 B _ZN16BlockStorageList13s_InitializedE
a0004690 T _ZN16BlockStorageList14GetFirstDeviceEv
a00192e0 B _ZN16BlockStorageList15s_primaryDeviceE
a0004f68 T _ZN16BlockStorageList17InitializeDevicesEv
a000505c T _ZN16BlockStorageList28FindDeviceForPhysicalAddressEPP18BlockStorageDevicejRj
a0004e98 T _ZN16BlockStorageList9AddDeviceEP18BlockStorageDeviceP19IBlockStorageDevicePvj
a000a7a0 T _ZN16HAL_CONFIG_BLOCK11ApplyConfigEPKcPvj
a000a25c T _ZN16HAL_CONTINUATION14InitializeListEv
a000a1a0 T _ZN16HAL_CONTINUATION18InitializeCallbackEPFvPvES0_
a000a450 T _ZN16HAL_CONTINUATION19Dequeue_And_ExecuteEv
a000a3bc T _ZN16HAL_CONTINUATION7EnqueueEv
a000a21c W _ZN17HAL_DblLinkedListI16HAL_CONTINUATIONE10InitializeEv
a000a330 W _ZN17HAL_DblLinkedListI16HAL_CONTINUATIONE10LinkAtBackEPS0_
a000a388 W _ZN17HAL_DblLinkedListI16HAL_CONTINUATIONE16ExtractFirstNodeEv
a000a2d0 W _ZN17HAL_DblLinkedListI16HAL_CONTINUATIONE16InsertBeforeNodeEPS0_S2_
a000a2bc W _ZN17HAL_DblLinkedListI16HAL_CONTINUATIONE6InsertEPS0_S2_S2_
a00046cc W _ZN17HAL_DblLinkedListI18BlockStorageDeviceE10InitializeEv
a00047d0 W _ZN17HAL_DblLinkedListI18BlockStorageDeviceE10LinkAtBackEPS0_
a0004770 W _ZN17HAL_DblLinkedListI18BlockStorageDeviceE16InsertBeforeNodeEPS0_S2_
a000475c W _ZN17HAL_DblLinkedListI18BlockStorageDeviceE6InsertEPS0_S2_S2_
a0005510 W _ZN17HAL_DblLinkedNodeI16HAL_CONTINUATIONE10InitializeEv
a000a2a4 W _ZN17HAL_DblLinkedNodeI16HAL_CONTINUATIONE14RemoveFromListEv
a000a178 W _ZN17HAL_DblLinkedNodeI16HAL_CONTINUATIONE6UnlinkEv
a0004668 W _ZN17HAL_DblLinkedNodeI18BlockStorageDeviceE10InitializeEv
a0004744 W _ZN17HAL_DblLinkedNodeI18BlockStorageDeviceE14RemoveFromListEv
a0000550 W _ZN18BlockStorageDevice13GetDeviceInfoEv
a00009d0 W _ZN18BlockStorageDevice13IsBlockErasedEjj
a00043d4 W _ZN18BlockStorageDevice16InitializeDeviceEv
a00045d0 W _ZN18BlockStorageDevice17FindForBlockUsageEjRjS0_S0_
a000461c W _ZN18BlockStorageDevice18FindNextUsageBlockEjRjS0_S0_
a0000600 W _ZN18BlockStorageDevice21FindRegionFromAddressEjRjS0_
a0000980 W _ZN18BlockStorageDevice4ReadEjjPh
a00009a4 W _ZN18BlockStorageDevice5WriteEjjPhj
a0004e78 T _ZN18BlockStorageStream10InitializeEj
a0004dd4 T _ZN18BlockStorageStream10InitializeEjP18BlockStorageDevice
a0004810 T _ZN18BlockStorageStream10NextStreamEv
a0004b24 T _ZN18BlockStorageStream10PrevStreamEv
a00043f8 T _ZN18BlockStorageStream14CurrentAddressEv
a00049f4 T _ZN18BlockStorageStream4ReadEPPhj
a0004ce4 T _ZN18BlockStorageStream4SeekEiNS_10SeekOriginE
a0005aec T _ZN18GPIO_BUTTON_Driver10InitializeEv
a000589c T _ZN18GPIO_BUTTON_Driver14CurrentHWStateEv
a00057b0 T _ZN18GPIO_BUTTON_Driver16HW_To_Hal_ButtonEj
a0005914 T _ZN18GPIO_BUTTON_Driver18GetNextStateChangeERjS0_
a00059a8 T _ZN18GPIO_BUTTON_Driver19RegisterStateChangeEjj
a0005aac T _ZN18GPIO_BUTTON_Driver3ISREjjPv
a000a7ec T _ZN18LPC24XX_SPI_Driver10InitializeEv
a00075d0 T _ZN18LPC24XX_VIC_Driver10InitializeEv
a0017530 D _ZN18LPC24XX_VIC_Driver10s_IsrTableE
a00077f4 T _ZN18LPC24XX_VIC_Driver11IRQ_HandlerEv
a0007640 T _ZN18LPC24XX_VIC_Driver14IRQToIRQVectorEj
a0007670 T _ZN18LPC24XX_VIC_Driver14STUB_ISRVectorEPv
a0007720 T _ZN18LPC24XX_VIC_Driver17ActivateInterruptEjjPFvPvES0_
a00076dc T _ZN18LPC24XX_VIC_Driver20InterruptEnableStateEj
a0016768 T _ZN19AT49BV_16_BS_Driver10EraseBlockEPvj
a001657c T _ZN19AT49BV_16_BS_Driver12ChipReadOnlyEPvjj
a001643c T _ZN19AT49BV_16_BS_Driver13Action_ReadIDEPvRjS1_
a001627c T _ZN19AT49BV_16_BS_Driver13GetDeviceInfoEPv
a0016528 T _ZN19AT49BV_16_BS_Driver13IsBlockErasedEPvjj
a0016ad4 T _ZN19AT49BV_16_BS_Driver13ReadProductIDEPvRjS1_
a0016294 T _ZN19AT49BV_16_BS_Driver13SetPowerStateEPvj
a0016b24 T _ZN19AT49BV_16_BS_Driver14ChipInitializeEPv
a00162b0 T _ZN19AT49BV_16_BS_Driver16Action_UnprotectEPvPVt
a00162b4 T _ZN19AT49BV_16_BS_Driver16Action_WriteWordEPvPVtt
a0016274 T _ZN19AT49BV_16_BS_Driver16ChipUnInitializeEPv
a0016284 T _ZN19AT49BV_16_BS_Driver17GetSectorMetadataEPvjP14SectorMetadata
a001628c T _ZN19AT49BV_16_BS_Driver17SetSectorMetadataEPvjP14SectorMetadata
a0016370 T _ZN19AT49BV_16_BS_Driver18Action_EraseSectorEPvPVt
a00162a4 T _ZN19AT49BV_16_BS_Driver18MaxBlockErase_uSecEPv
a0016298 T _ZN19AT49BV_16_BS_Driver19MaxSectorWrite_uSecEPv
a00164d8 T _ZN19AT49BV_16_BS_Driver4ReadEPvjjPh
a001681c T _ZN19AT49BV_16_BS_Driver5WriteEPvjjPhj
a0016734 T _ZN19AT49BV_16_BS_Driver6MemsetEPvjhj
a0016610 T _ZN19AT49BV_16_BS_Driver6WriteXEPvjjPhjj
a0005804 W _ZN19Hal_Queue_KnownSizeIN18GPIO_BUTTON_Driver19BUTTON_STATE_CHANGEELj64EE10InitializeEv
a0005858 W _ZN19Hal_Queue_KnownSizeIN18GPIO_BUTTON_Driver19BUTTON_STATE_CHANGEELj64EE3PopEv
a0005818 W _ZN19Hal_Queue_KnownSizeIN18GPIO_BUTTON_Driver19BUTTON_STATE_CHANGEELj64EE4PushEv
a0005ea0 T _ZN19LPC24XX_GPIO_Driver10DisablePinEj13GPIO_RESISTORj13GPIO_ALT_MODE
a00064a8 T _ZN19LPC24XX_GPIO_Driver10InitializeEv
a000609c T _ZN19LPC24XX_GPIO_Driver11GetPinStateEj
a0005e78 W _ZN19LPC24XX_GPIO_Driver11PinToPCBRegEj
a0005fc0 T _ZN19LPC24XX_GPIO_Driver11SetPinStateEjj
a0006240 T _ZN19LPC24XX_GPIO_Driver14EnableInputPinEjjPFvjjPvES0_13GPIO_INT_EDGE13GPIO_RESISTOR
a0005e4c W _ZN19LPC24XX_GPIO_Driver14PinToPCBRegBitEj
a0005e24 T _ZN19LPC24XX_GPIO_Driver14STUB_ISRVectorEjjPv
a0006120 T _ZN19LPC24XX_GPIO_Driver15EnableOutputPinEjj
a0005bf8 T _ZN19LPC24XX_GPIO_Driver18PIN_ISR_DESCRIPTOR4FireEPv
a0005c20 T _ZN19LPC24XX_GPIO_Driver8GPIO_ISREPv
a0005f70 W _ZN19LPC24XX_GPIO_Driver8PinToBitEj
a0005f98 W _ZN19LPC24XX_GPIO_Driver9PinToPortEj
a0006aac T _ZN19LPC24XX_TIME_Driver10InitializeEv
a0016114 T _ZN19LPC24XX_TIME_Driver10Sleep_uSecEj
a000665c T _ZN19LPC24XX_TIME_Driver12CounterValueEv
a000688c T _ZN19LPC24XX_TIME_Driver15SetCompareValueEy
a00160ec T _ZN19LPC24XX_TIME_Driver15Sleep_uSec_LoopEj
a00069b0 T _ZN19LPC24XX_TIME_Driver3ISREPv
a000a7c8 T _ZN20FileSystemVolumeList10InitializeEv
a000a7cc T _ZN20FileSystemVolumeList17InitializeVolumesEv
a0006b58 T _ZN20LPC24XX_TIMER_Driver10InitializeEjPFvPvES0_
a000684c W _ZN20LPC24XX_TIMER_Driver10SetCompareEjj
a001619c T _ZN20LPC24XX_TIMER_Driver11ReadCounterEj
a000680c W _ZN20LPC24XX_TIMER_Driver13DidCompareHitEj
a0006718 W _ZN20LPC24XX_TIMER_Driver14ForceInterruptEj
a00067cc W _ZN20LPC24XX_TIMER_Driver15ResetCompareHitEj
a0006a68 W _ZN20LPC24XX_TIMER_Driver22EnableCompareInterruptEj
a000721c T _ZN20LPC24XX_USART_Driver10InitializeEiiiiii
a0006fb0 T _ZN20LPC24XX_USART_Driver11ProtectPinsEij
a000713c T _ZN20LPC24XX_USART_Driver12UninitializeEi
a0006d9c T _ZN20LPC24XX_USART_Driver13TxBufferEmptyEi
a0007460 T _ZN20LPC24XX_USART_Driver15UART_IntHandlerEPv
a0006dc4 T _ZN20LPC24XX_USART_Driver19WriteCharToTxBufferEih
a0006d58 T _ZN20LPC24XX_USART_Driver20TxShiftRegisterEmptyEi
a0006e44 T _ZN20LPC24XX_USART_Driver27RxBufferFullInterruptEnableEij
a0006d08 T _ZN20LPC24XX_USART_Driver27TxBufferEmptyInterruptStateEi
a0006ecc T _ZN20LPC24XX_USART_Driver28TxBufferEmptyInterruptEnableEij
a00087a8 W _ZN21Hal_Queue_UnknownSizeIhE10InitializeEPhj
a00088d0 W _ZN21Hal_Queue_UnknownSizeIhE16NumberOfElementsEv
a0008844 W _ZN21Hal_Queue_UnknownSizeIhE3PopERj
a000875c W _ZN21Hal_Queue_UnknownSizeIhE3PopEv
a00087c4 W _ZN21Hal_Queue_UnknownSizeIhE4PushERj
a000891c W _ZN21Hal_Queue_UnknownSizeIhE4PushEv
a00088fc W _ZN21Hal_Queue_UnknownSizeIhE7IsEmptyEv
a000a868 T _ZN23LPC24XX_WATCHDOG_Driver7DisableEv
a000a898 T _ZN23LPC24XX_WATCHDOG_Driver8ResetCpuEv
a0002fd4 T _ZN26ConfigurationSectorManager17GetDeploymentKeysEj
a0002f6c T _ZN26ConfigurationSectorManager17LoadConfigurationEv
a0003278 T _ZN26ConfigurationSectorManager18UpdateSignatureKeyEjPh
a00030e8 T _ZN26ConfigurationSectorManager18WriteConfigurationEjPhjj
a00032a8 T _ZN26ConfigurationSectorManager19CleanBootLoaderFlagEv
a000301c T _ZN26ConfigurationSectorManager19VerifiySignatureKeyEjPh
a0002f54 T _ZN26ConfigurationSectorManager20GetTinyBooterVersionEv
a0002e94 T _ZN26ConfigurationSectorManager20IsBootLoaderRequiredERi
a000307c T _ZN26ConfigurationSectorManager21EraseWriteConfigBlockEPhj
a0002f14 T _ZN26ConfigurationSectorManager22CheckSignatureKeyEmptyEj
a00032e8 T _ZN26ConfigurationSectorManager25LocateConfigurationSectorEj
a0006ca8 W _ZN7LPC24XX4UARTEi
a000676c W _ZN7LPC24XX5TIMEREi
a00008cc W _ZN7Version4InitERS_tttt
a0000904 W _ZNK10BlockRange13GetBlockCountEv
a00043cc W _ZNK10BlockRange13GetBlockUsageEv
a00008e4 W _ZNK10BlockRange8IsConfigEv
a000759c W _ZNK12HAL_CALLBACK7ExecuteEv
a000459c T _ZNK15BlockDeviceInfo17FindForBlockUsageEjRjS0_S0_
a00044dc T _ZNK15BlockDeviceInfo18FindNextUsageBlockEjRjS0_S0_
a0004404 T _ZNK15BlockDeviceInfo21FindRegionFromAddressEjRjS0_
a0000914 W _ZNK15BlockRegionInfo12BlockAddressEj
a0000924 W _ZNK15BlockRegionInfo15OffsetFromBlockEj
a0000954 W _ZNK15BlockRegionInfo21BlockIndexFromAddressEj
a000a924 W _ZNK15BlockRegionInfo4SizeEv
a000a158 W _ZNK16HAL_CONTINUATION7ExecuteEv
a000a370 W _ZNK17HAL_DblLinkedListI16HAL_CONTINUATIONE14FirstValidNodeEv
a000a218 W _ZNK17HAL_DblLinkedListI16HAL_CONTINUATIONE4HeadEv
a000a1e4 W _ZNK17HAL_DblLinkedListI16HAL_CONTINUATIONE4TailEv
a000a1ec W _ZNK17HAL_DblLinkedListI16HAL_CONTINUATIONE7IsEmptyEv
a0004678 W _ZNK17HAL_DblLinkedListI18BlockStorageDeviceE14FirstValidNodeEv
a00046c8 W _ZNK17HAL_DblLinkedListI18BlockStorageDeviceE4HeadEv
a00046c0 W _ZNK17HAL_DblLinkedListI18BlockStorageDeviceE4TailEv
a00009f4 W _ZNK18BlockStorageDevice10EraseBlockEj
a0021dc4 b _ZZN10TimeDriver16DateTimeToStringERKxE8rgBuffer
a0021e44 b _ZZN10TimeDriver16TimeSpanToStringERKxE8rgBuffer
a00176f8 d _ZZN20LPC24XX_USART_Driver11ProtectPinsEijE18COM1_PinsProtected
a00176fc d _ZZN20LPC24XX_USART_Driver11ProtectPinsEijE18COM2_PinsProtected
a00176f0 d _ZZN20LPC24XX_USART_Driver11ProtectPinsEijE18COM3_PinsProtected
a00176f4 d _ZZN20LPC24XX_USART_Driver11ProtectPinsEijE18COM4_PinsProtected
a001480c T ___Unwind_ForcedUnwind
a00147a0 T ___Unwind_RaiseException
a00147c4 T ___Unwind_Resume
a00147e8 T ___Unwind_Resume_or_Rethrow
a00121dc T __adddf3
a0012b38 T __aeabi_cdcmpeq
a0012b38 T __aeabi_cdcmple
a0012b1c T __aeabi_cdrcmple
a0012bc8 T __aeabi_d2iz
a00121dc T __aeabi_dadd
a0012b50 T __aeabi_dcmpeq
a0012b98 T __aeabi_dcmpge
a0012bb0 T __aeabi_dcmpgt
a0012b80 T __aeabi_dcmple
a0012b68 T __aeabi_dcmplt
a001287c T __aeabi_ddiv
a00125ec T __aeabi_dmul
a00121d0 T __aeabi_drsub
a00121d8 T __aeabi_dsub
a0012538 T __aeabi_f2d
a0012510 T __aeabi_i2d
a00121cc T __aeabi_idiv0
a001258c T __aeabi_l2d
a00121cc T __aeabi_ldiv0
a00124ec T __aeabi_ui2d
a00120b8 T __aeabi_uidiv
a00121b4 T __aeabi_uidivmod
a0012578 T __aeabi_ul2d
a0012c24 T __aeabi_uldivmod
a0013dc0 T __aeabi_unwind_cpp_pr0
a0013dac W __aeabi_unwind_cpp_pr1
a0013d98 W __aeabi_unwind_cpp_pr2
a0010c70 T __any_on
a0010a68 T __b2d
a0015fc0 T __clz_tab
a0012a98 T __cmpdf2
a0010c14 T __copybits
         w __cxa_begin_cleanup
         w __cxa_call_unexpected
         w __cxa_type_match
a0010da4 T __d2b
a00121cc T __div0
a001287c T __divdf3
a0012cd0 T __divdi3
a0012a98 T __eqdf2
a0021f24 B __exidx_end
a0021f24 B __exidx_start
a0012538 T __extendsfdf2
a0012bc8 T __fixdfsi
a001258c T __floatdidf
a0012510 T __floatsidf
a0012578 T __floatundidf
a00124ec T __floatunsidf
a000f318 t __fp_lock
a000f34c T __fp_lock_all
a000f320 t __fp_unlock
a000f328 T __fp_unlock_all
a0012a88 T __gedf2
         w __gnu_Unwind_Find_exidx
a001407c T __gnu_Unwind_ForcedUnwind
a00141ec T __gnu_Unwind_RaiseException
a00146c0 T __gnu_Unwind_Restore_VFP
a00146d0 T __gnu_Unwind_Restore_VFP_D
a00146e0 T __gnu_Unwind_Restore_VFP_D_16_to_31
a0014778 T __gnu_Unwind_Restore_WMMXC
a00146f0 T __gnu_Unwind_Restore_WMMXD
a0014100 T __gnu_Unwind_Resume
a0014298 T __gnu_Unwind_Resume_or_Rethrow
a00146c8 T __gnu_Unwind_Save_VFP
a00146d8 T __gnu_Unwind_Save_VFP_D
a00146e8 T __gnu_Unwind_Save_VFP_D_16_to_31
a001478c T __gnu_Unwind_Save_WMMXC
a0014734 T __gnu_Unwind_Save_WMMXD
a0012c88 T __gnu_ldivmod_helper
a0012c40 T __gnu_uldivmod_helper
a001490c T __gnu_unwind_execute
a0014d18 T __gnu_unwind_frame
a0013960 t __gnu_unwind_pr_common
a0012a88 T __gtdf2
a00108b4 T __hi0bits
a0011300 T __i2b
a0011b94 T __isinfd
a0011bd0 T __isnand
a0017bbc D __lc_ctype
a0012a90 T __ledf2
a001090c T __lo0bits
a000fdd4 T __locale_charset
a001101c T __lshift
a0012a90 T __ltdf2
a0017bc8 D __malloc_av_
a0021ef4 B __malloc_current_mallinfo
a0010890 T __malloc_lock
a0021f1c B __malloc_max_sbrked_mem
a0021f20 B __malloc_max_total_mem
a0017fd0 D __malloc_sbrk_base
a0021ef0 B __malloc_top_pad
a0017fd4 D __malloc_trim_threshold
a0010894 T __malloc_unlock
a0017bb8 D __mb_cur_max
a00109a0 T __mcmp
a0010ed8 T __mdiff
a0015f70 T __mprec_bigtens
a0015e98 T __mprec_tens
a0015f98 T __mprec_tinytens
a00125ec T __muldf3
a0011324 T __multadd
a0011128 T __multiply
a0012a98 T __nedf2
a00113fc T __pow5mult
a0010b24 T __ratio
a00146a4 T __restore_core_regs
a00114f4 T __s2b
a0011c40 T __sclose
a000f398 T __sfmoreglue
a000f3ec T __sfp
a000f284 T __sfp_lock_acquire
a000f288 T __sfp_lock_release
a000f884 T __sfvwrite_r
a0014e5c T __sigtramp
a0014dd8 T __sigtramp_r
a000f294 T __sinit
a000f28c T __sinit_lock_acquire
a000f290 T __sinit_lock_release
a000fe7c T __smakebuf
a000af6c t __sprint_r
a0011d10 T __sread
a0011c60 T __sseek
a00121d8 T __subdf3
a0011cac T __swrite
a000d87c T __swsetup
a0013254 T __udivdi3
a00120b8 T __udivsi3
a0010a08 T __ulp
00000000 A __use_no_semihosting_swi
a0011e04 T _calloc_r
a000f388 T _cleanup
a000f370 T _cleanup_r
a001752c T _close
a0011ea4 T _close_r
a000dbb0 T _dtoa_r
a001752c T _exit
a0011ee0 T _fclose_r
a000f5c4 T _free_r
a001752c T _fstat
a0011ff0 T _fstat_r
a000fd4c T _fwalk
a000fcc0 T _fwalk_reent
a001752c T _getpid
a0014fa4 T _getpid_r
a0015d98 T _global_impure_ptr
a00177b0 D _impure_ptr
a0014dc8 T _init_signal
a0014d70 T _init_signal_r
a001752c T _kill
a0014fb4 T _kill_r
a000fde4 T _localeconv_r
a001752c T _lseek
a0012030 T _lseek_r
a000fff8 T _malloc_r
a000f4c8 T _malloc_trim_r
a0010ba8 T _mprec_log10
a0014e70 T _raise_r
a001752c T _read
a0012074 T _read_r
a00115d8 T _realloc_r
a001752c T _sbrk
a0011c00 T _sbrk_r
a000fe00 T _setlocale_r
a0014f30 T _signal_r
         U _start
a000afa4 T _vfprintf_r
a000ae70 T _vsnprintf_r
a000d25c T _wcrtomb_r
a000d2d4 T _wcsrtombs_r
a000d45c T _wctomb_r
a001752c T _write
a0011dc0 T _write_r
a0014d60 T abort
a0015d9e t blanks.3531
a001531c t c_CRCTable
a001517c t c_Debugger_app
a0015174 t c_Debugger_phy
a00150d8 t c_Lookup_Reply
a00150e4 t c_Lookup_Request
a0015e54 t charset
a0008260 T debug_printf
a0021f24 B errno
a0011fdc T fclose
a000f070 T fflush
a0021dac B g_AT49BV642DT_16_BS
a0017744 D g_AT49BV642DT_16_BS_Config
a0015bc4 t g_AT49BV642DT_16_BlkRegion
a0015bd8 t g_AT49BV642DT_16_BlockRange
a0017728 D g_AT49BV642DT_16_DeviceInfo
a0017778 D g_AT49BV_16_BS_DeviceTable
a0017fe0 B g_BitFieldManager
a001e074 b g_Boot_RAMConstants_CRC
a001801c B g_ConfigBuffer
a0018020 B g_ConfigBufferLength
a0016c20 T g_ConfigurationSector
a00192ec B g_Event_Callback
a00192f0 B g_Event_Callback_Arg
a00192f8 B g_Events_BoolTimerCompletion
a00176bc D g_GPIO_BUTTON_Config
a0019318 B g_GPIO_BUTTON_Driver
a0021da0 B g_HAL_Completion_List
a0021d94 B g_HAL_Continuation_List
a0019528 B g_LPC24XX_GPIO_Driver
a001bab0 B g_LPC24XX_PINSEL_Driver
a001e048 B g_LPC24XX_TIMER_Driver
a001e038 B g_LPC24XX_TIME_Driver
a0018024 B g_PrimaryConfigManager
a0021ec8 B g_TimeDriver
a0018950 B g_eng
a001e058 b g_s_FirstCluster
a0013dd4 t get_eit_entry
a00177b8 d impure_data
a001752c T isatty
a00080b8 T lcd_printf
a0015e58 t lconv
a000fdf0 T localeconv
a000008c t loop
a001077c T memchr
a000a9c4 T memcmp
a000aa5c T memcpy
a000ab00 T memmove
a000abf4 T memset
a0014830 t next_unwind_byte
a0015f60 t p05.2718
a0000538 T platform_prestackinit
a0003a88 T private_free
a0003aa4 T private_malloc
a000d990 t quorem
a0014f1c T raise
a00146a4 T restore_core_regs
a0014168 t restore_non_core_regs
a0013894 t search_EIT_table
a0013878 t selfrel_offset31
a000fe60 T setlocale
a0014f88 T signal
a000f228 t std
a000ac80 T strcmp
a0011d58 T strlen
a000ad68 T strncpy
a00148cc t unwind_UCB_from_context
a00140a4 t unwind_phase2
a0013f20 t unwind_phase2_forced
a000d230 T vfprintf
a000aee8 T vsnprintf
a000d2a8 T wcrtomb
a000d418 T wcsrtombs
a0015dae t zeroes.3532
a000a008 T ABORTD_Handler
a0009920 t ABORTD_Handler_Ptr
a00098e0 T ABORTD_SubHandler
a0000028 t ABORTD_SubHandler_Trampoline
a000a078 T ABORTP_Handler
a00098dc t ABORTP_Handler_Ptr
a000989c T ABORTP_SubHandler
a0000024 t ABORTP_SubHandler_Trampoline
a0021d90 B ABORT_recursion_counter
a0000000 T ARM_Vectors
00000000 a BUILD_RTM
00000000 a BUILD_RTM
00000000 a BUILD_RTM
00000000 a BUILD_RTM
a0008510 T BootEntry
a00000a0 t BootEntryPointer
00000001 a COMPILE_ARM
00000001 a COMPILE_ARM
00000001 a COMPILE_ARM
00000001 a COMPILE_ARM
a0000074 t ClearZI_ER_RAM
a0007dd8 T Crypto_AbortRSAOperation
a0007dc8 T Crypto_StartRSAOperationWithKey
a0007dd0 T Crypto_StepRSAOperation
a0000000 T EntryPoint
00000001 a HAL_REDUCESIZE
00000001 a HAL_REDUCESIZE
00000001 a HAL_REDUCESIZE
a00066c4 T HAL_Time_CurrentTicks
a0009924 T HARD_Breakpoint
a0009f64 T HARD_Breakpoint_Handler
a0009948 t HARD_Breakpoint_Handler_Ptr
a0015798 T HalName
a0017700 D HalSystemConfig
a001e088 B Hal_Usart_State
a0100000 R HeapBegin
a0200000 R HeapEnd
a001625c T IDelayLoop
a0016268 T IDelayLoop2
a001625c t IDelayLoop__Fi_b
a0007890 T IRQ_Handler
a001623c T IRQ_LOCK_Disable_asm
a001620c T IRQ_LOCK_ForceDisabled_asm
a0016224 T IRQ_LOCK_ForceEnabled_asm
a00161fc T IRQ_LOCK_GetState_asm
a00161e8 T IRQ_LOCK_Probe_asm
a00161d8 T IRQ_LOCK_Release_asm
a001624c T IRQ_LOCK_Restore_asm
a000002c T IRQ_SubHandler_Trampoline
00017530 A Image$$ER_FLASH$$Length
40000000 N Image$$ER_IRAM$$Base
00000000 A Image$$ER_IRAM$$Length
40000040 N Image$$ER_IRAM_TC$$Base
00000000 A Image$$ER_IRAM_TC$$Length
a0000000 T Image$$ER_RAM_RO$$Base
00017530 A Image$$ER_RAM_RO$$Length
a0017530 D Image$$ER_RAM_RW$$Base
00000aa8 A Image$$ER_RAM_RW$$Length
a0017fe0 B Image$$ER_RAM_RW$$ZI$$Base
00009f48 A Image$$ER_RAM_RW$$ZI$$Length
a001e080 B LOAD_IMAGE_CalcCRC
a001e07c B LOAD_IMAGE_Length
a001e078 B LOAD_IMAGE_Start
a0000000 T Load$$ER_FLASH$$Base
a0021f28 A Load$$ER_IRAM$$Base
40000040 A Load$$ER_IRAM_TC$$Base
a0000000 A Load$$ER_RAM_RO$$Base
a0017530 A Load$$ER_RAM_RW$$Base
a001e05c b LoggingCallback
a0000080 t NoClearZI_ER_RAM
00000001 a PLATFORM_ARM_LPC24XX
00000001 a PLATFORM_ARM_LPC24XX
00000001 a PLATFORM_ARM_LPC24XX
00000001 a PLATFORM_ARM_LPC24XX
00000001 a PLATFORM_ARM_plak1a_LPC2478
00000001 a PLATFORM_ARM_plak1a_LPC2478
00000001 a PLATFORM_ARM_plak1a_LPC2478
00000001 a PLATFORM_ARM_plak1a_LPC2478
000000d7 a PSR_MODE_ABORT
000000d7 a PSR_MODE_ABORT
000000d1 a PSR_MODE_FIQ
000000d1 a PSR_MODE_FIQ
000000d2 a PSR_MODE_IRQ
000000d2 a PSR_MODE_IRQ
000000d3 a PSR_MODE_SUPERVISOR
000000d3 a PSR_MODE_SUPERVISOR
000000df a PSR_MODE_SYSTEM
000000df a PSR_MODE_SYSTEM
000000db a PSR_MODE_UNDEF
000000db a PSR_MODE_UNDEF
000000d0 a PSR_MODE_USER
000000d0 a PSR_MODE_USER
a001ed90 B RxBuffer_Com
00000010 a STACK_MODE_ABORT
00000800 a STACK_MODE_IRQ
00000010 a STACK_MODE_UNDEF
a02ffff8 R StackBottom
a0300000 R StackTop
a00192e8 B SystemEvents
a0008040 T SystemState_ClearNoLock
a0008058 T SystemState_QueryNoLock
a0008028 T SystemState_SetNoLock
a001e060 B SystemStates
00000001 a TARGETLOCATION_FLASH
00000001 a TARGETLOCATION_FLASH
00000001 a TARGETLOCATION_FLASH
00000001 a TARGETLOCATION_FLASH
a00066e0 T Time_CurrentTicks
a001e190 B TxBuffer_Com
a000a0e8 T UNDEF_Handler
a0009898 t UNDEF_Handler_Ptr
a0009858 T UNDEF_SubHandler
a0000020 t UNDEF_SubHandler_Trampoline
a0000030 t VectorAreaSkip
a0010d10 T _Balloc
a0010898 T _Bfree
a0013938 T _Unwind_Complete
a001393c T _Unwind_DeleteException
a001480c T _Unwind_ForcedUnwind
a0013930 T _Unwind_GetCFA
a0014894 T _Unwind_GetDataRelBase
a001489c t _Unwind_GetGR
a00137cc t _Unwind_GetGR
a00148d4 T _Unwind_GetLanguageSpecificData
a00148f8 T _Unwind_GetRegionStart
a001488c T _Unwind_GetTextRelBase
a00147a0 T _Unwind_RaiseException
a00147c4 T _Unwind_Resume
a00147e8 T _Unwind_Resume_or_Rethrow
a0013848 t _Unwind_SetGR
a0013780 T _Unwind_VRS_Get
a00142c8 T _Unwind_VRS_Pop
a00137fc T _Unwind_VRS_Set
a001376c t _Unwind_decode_target2
a0005730 T _Z10Events_Setj
a000932c T _Z10USART_ReadiPcj
a0007ff4 T _Z10hal_printfPKcz
a00090e4 T _Z11USART_Flushi
a00095b8 T _Z11USART_WriteiPKcj
a0007f8c T _Z11hal_fprintfiPKcz
a0007fc0 T _Z11hal_vprintfPKcPv
a0000c04 t _Z12AccessMemoryjjPhi
a00056dc T _Z12Events_Clearj
a00078ac T _Z12HAL_AssertExv
a0005bd8 T _Z12HeapLocationRPhRj
a0007db8 T _Z12SOCKETS_ReadiPcj
a0007df0 T _Z12hal_strlen_sPKc
a0007e94 T _Z12hal_vfprintfiPKcPv
a000a7c0 T _Z13FS_AddVolumesv
a000a7c4 T _Z13FS_Initializev
a0007dc0 T _Z13SOCKETS_Flushi
a0007db0 T _Z13SOCKETS_WriteiPKcj
a0009820 T _Z13USB_ConfigureiPK25USB_DYNAMIC_CONFIGURATION
a0007e0c T _Z13hal_strncpy_sPcjPKcj
a0007e78 T _Z13hal_vsnprintfPcjPKcPv
a00079cc T _Z14CPU_Initializev
a0008338 T _Z14HAL_Initializev
a000a7dc T _Z14I2C_Initializev
a000a7e4 T _Z14Ink_Initializev
a0005798 T _Z14LCD_Initializev
a0009818 T _Z14USB_Initializei
a0009830 T _Z14USB_OpenStreamiii
a0000148 T _Z15Bootstrap_Delayi
a0003b04 T _Z15LZ77_DecompressPhiS_i
a000a8f8 T _Z15Time_Initializev
a0009838 T _Z15USB_CloseStreami
a00057a0 T _Z16LCD_Uninitializev
a000a8e4 T _Z16Piezo_Initializev
a00097ec T _Z16USART_Initializeiiiiii
a0009828 T _Z16USB_Uninitializei
a000a87c T _Z16Watchdog_Disablev
a0007de0 T _Z17CPU_DisableCachesv
a000520c T _Z17DebuggerPort_ReadiPcj
a0005520 T _Z17Events_Initializev
a00054fc T _Z17Events_MaskedReadj
a0000524 T _Z17Initialize_SyncOnv
a000a7b8 T _Z18Battery_Initializev
a00002d8 T _Z18BootstrapCode_Pinsv
a0005bbc T _Z18Buttons_Initializev
a000a84c T _Z18CPU_SPI_Initializev
a0006610 T _Z18CPU_TicksPerSecondv
a000a7b0 T _Z18Charger_Initializev
a000a8e8 T _Z18CustomHeapLocationRPhRj
a00051a0 T _Z18DebuggerPort_Flushi
a0005278 T _Z18DebuggerPort_WriteiPKcj
a000a7d4 T _Z18Gesture_Initializev
a0007da0 T _Z18SOCKETS_Initializei
a0003ac0 T _Z18SUPPORT_ComputeCRCPKvij
a0007b24 T _Z18SimpleHeap_ReleasePv
a0009670 T _Z18USART_Uninitializei
a00000b4 T _Z19BootstrapCode_Dummyv
a0005f54 T _Z19CPU_GPIO_DisablePinj13GPIO_RESISTORj13GPIO_ALT_MODE
a0006580 T _Z19CPU_GPIO_Initializev
a0007624 T _Z19CPU_INTC_Initializev
a0007de8 T _Z19CPU_USB_ProtectPinsij
a0006b38 T _Z19HAL_Time_Initializev
a0006a4c T _Z19HAL_Time_SetComparey
a000a8dc T _Z19PalEvent_Initializev
a0007a40 T _Z19SimpleHeap_Allocatej
a00080f4 T _Z19Verify_RAMConstantsPv
a00099ec T _Z20ABORT_HandlerDisplayPjjjjPKcj
a000a7a8 T _Z20BackLight_Initializev
a00001b0 T _Z20BootstrapCode_Clocksv
a0006104 T _Z20CPU_GPIO_GetPinStatej
a0006080 T _Z20CPU_GPIO_SetPinStatejj
a000742c T _Z20CPU_USART_Initializeiiiiii
a000081c W _Z20Events_WaitForEventsjj
a0005578 T _Z20Events_WaitForEventsjjj
a00082f0 W _Z20HAL_Init_Custom_Heapv
a0006b54 T _Z20HAL_Time_TicksToTimey
a0007da8 T _Z20SOCKETS_Uninitializei
a0009964 T _Z20monitor_debug_printfPKcz
a000371c T _Z21ApplicationEntryPointv
a00071e4 T _Z21CPU_USART_ProtectPinsij
a0008074 T _Z21Checksum_RAMConstantsv
a0007a08 T _Z21SimpleHeap_InitializePvj
a0000294 T _Z22BootstrapCode_Ext_SRAMv
a00058f8 T _Z22Buttons_CurrentHWStatev
a00071c8 T _Z22CPU_USART_Uninitializei
a00057ac T _Z22LCD_WriteFormattedCharh
a000a91c T _Z22TimeService_Initializev
a000994c T _Z22Watchdog_GetSetEnabledjj
a0009954 T _Z22Watchdog_GetSetTimeoutij
a000a768 T _Z23BlockStorage_AddDevicesv
a0000298 T _Z23BootstrapCode_Ext_Flashv
a0000334 T _Z23BootstrapCode_Ext_SDRAMv
a0006480 T _Z23CPU_GPIO_EnableInputPinjjPFvjjPvE13GPIO_INT_EDGE13GPIO_RESISTOR
a00160e0 T _Z23CPU_MicrosecondsToTicksj
a00160c0 T _Z23CPU_MicrosecondsToTicksy
a000661c T _Z23CPU_MillisecondsToTicksj
a0006e28 T _Z23CPU_USART_TxBufferEmptyi
a0005408 T _Z23DebuggerPort_Initializei
a0008dbc T _Z23USART_AddCharToRxBufferic
a0000844 T _Z23WaitForTinyBooterUploadRi
a000995c T _Z23Watchdog_GetSetBehavior17Watchdog_Behaviorj
a00057e8 T _Z24Buttons_HW_To_Hal_Buttonj
a000a934 T _Z24CPU_EBIU_Memory_ReadOnlyRK17CPU_MEMORY_CONFIGj
a0006224 T _Z24CPU_GPIO_EnableOutputPinjj
a0007de4 T _Z24CPU_GetUncachableAddressj
a00000b8 T _Z24PrepareImageRegions_IRAMv
a0000644 T _Z24TinyBooter_OnStateChange16_TinyBooterStatePvPS0_
a0005380 T _Z25DebuggerPort_Uninitializei
a0000594 T _Z25TinyBooter_GetReleaseInfoR13MfReleaseInfo
a000598c T _Z26Buttons_GetNextStateChangeRjS_
a000a930 T _Z26CPU_EBIU_ConfigMemoryBlockRK17CPU_MEMORY_CONFIG
a00077cc T _Z26CPU_INTC_ActivateInterruptjPFvPvES_
a0005a90 T _Z27Buttons_RegisterStateChangejj
a00065ec T _Z27HAL_Time_GetDriftParametersPiS_Px
a00066fc T _Z27HAL_Time_Sleep_MicroSecondsj
a0000100 T _Z27PrepareImageRegions_IRAM_TCv
a0000574 T _Z27Tinybooter_ProgramWordCheckv
a0000580 T _Z28Tinybooter_ImageIsCompressedv
a0008bc4 T _Z28USART_RemoveCharFromTxBufferiRc
a0007704 T _Z29CPU_INTC_InterruptEnableStatej
a0005138 T _Z29CPU_ProtectCommunicationGPIOsj
a0006e0c T _Z29CPU_USART_WriteCharToTxBufferih
a0006d80 T _Z30CPU_USART_TxShiftRegisterEmptyi
a0000588 T _Z31Tinybooter_CompressedImageStartRK22CompressedImage_Header
a0007458 T _Z33CPU_USART_TxHandshakeEnabledStatei
a0006eb0 T _Z37CPU_USART_RxBufferFullInterruptEnableij
a0006d3c T _Z37CPU_USART_TxBufferEmptyInterruptStatei
a0007200 T _Z38CPU_USART_TxBufferEmptyInterruptEnableij
a0000590 T _Z39Tinybooter_PrepareForDecompressedLaunchv
a0006640 T _Z44HAL_Time_Sleep_MicroSeconds_InterruptEnabledj
a0000460 T _Z7delayMsjj
a0007960 T _Z8CPU_Haltv
a00004d0 T _Z8GetFpclkj
a0000154 T _Z8GetFsclkv
a0009848 T _Z8USB_ReadiPcj
a00078f8 T _Z9CPU_Resetv
a00079e8 T _Z9CPU_Sleep11SLEEP_LEVELy
a00057a8 T _Z9LCD_Clearv
a0009850 T _Z9USB_Flushi
a0009840 T _Z9USB_WriteiPKcj
a000a93c T _ZN10TimeDriver10InitializeEv
a0021dc0 B _ZN10TimeDriver13m_initializedE
a0003cb0 T _ZN10WP_Message10InitializeEP13WP_Controller
a0003e0c T _ZN10WP_Message12PrepareReplyERK9WP_PacketjjPh
a0003dc4 T _ZN10WP_Message12VerifyHeaderEv
a0003d74 T _ZN10WP_Message13VerifyPayloadEv
a0003ed0 T _ZN10WP_Message14PrepareRequestEjjjPh
a0004008 T _ZN10WP_Message14ReplyBadPacketEj
a0003c40 T _ZN10WP_Message16PrepareReceptionEv
a0004084 T _ZN10WP_Message7ProcessEv
a0003c4c T _ZN10WP_Message7ReleaseEv
a0003444 T _ZN11CryptoState15VerifySignatureEj
a0003410 T _ZN11CryptoStateC1EjjPhjj
a00036f4 T _ZN11CryptoStateD1Ev
a000659c W _ZN11LPC24XX_VIC14ForceInterruptEj
a00076a8 W _ZN11LPC24XX_VIC18IsInterruptEnabledEj
a00075bc W _ZN11LPC24XX_VIC21RemoveForcedInterruptEj
a0007594 W _ZN12HAL_CALLBACK10InitializeEPFvPvES0_
a0007c30 T _ZN12SmartPtr_IRQ11WasDisabledEv
a0007cf8 T _ZN12SmartPtr_IRQ12ForceEnabledEPv
a0007d14 T _ZN12SmartPtr_IRQ13ForceDisabledEPv
a0007d4c T _ZN12SmartPtr_IRQ5ProbeEv
a0007cac T _ZN12SmartPtr_IRQ7AcquireEv
a0007c88 T _ZN12SmartPtr_IRQ7DisableEv
a0007d70 T _ZN12SmartPtr_IRQ7ReleaseEv
a0007c40 T _ZN12SmartPtr_IRQ7RestoreEv
a0007d30 T _ZN12SmartPtr_IRQ8GetStateEPv
a0007cd0 T _ZN12SmartPtr_IRQC1EPv
a0007c64 T _ZN12SmartPtr_IRQD1Ev
a000968c T _ZN12USART_Driver10InitializeEiiiiii
a00095d4 T _ZN12USART_Driver12UninitializeEi
a0008be0 T _ZN12USART_Driver17AddCharToRxBufferEic
a0008adc T _ZN12USART_Driver22RemoveCharFromTxBufferEiRc
a0009100 T _ZN12USART_Driver4ReadEiPcj
a0008dd8 T _ZN12USART_Driver5FlushEi
a0009348 T _ZN12USART_Driver5WriteEiPKcj
a0008a18 T _ZN12USART_Driver7SendXONEij
a0008a78 T _ZN12USART_Driver8SendXOFFEij
a0008960 T _ZN12USART_Driver8SetEventEij
a00065b0 W _ZN13LPC24XX_TIMER8getIntNoEi
a0006c6c W _ZN13LPC24XX_USART8getIntNoEi
a0002d4c T _ZN13Loader_Engine10InitializeEi
a0000a8c T _ZN13Loader_Engine11App_ReleaseEPvP10WP_Message
a000165c T _ZN13Loader_Engine12Monitor_PingEP10WP_Message
a0001860 T _ZN13Loader_Engine14Monitor_RebootEP10WP_Message
a00018c4 T _ZN13Loader_Engine14ProcessPayloadEP10WP_Message
a00016a8 T _ZN13Loader_Engine14ReplyToCommandEP10WP_Messagebb
a00012e8 T _ZN13Loader_Engine14ReplyToCommandEP10WP_MessagebbPvi
a0002468 T _ZN13Loader_Engine15Monitor_ExecuteEP10WP_Message
a00015e4 T _ZN13Loader_Engine15Monitor_OemInfoEP10WP_Message
a0001cec T _ZN13Loader_Engine15ProcessCommandsEv
a0000a38 T _ZN13Loader_Engine15SignedDataState10CheckDirtyEv
a00028e4 T _ZN13Loader_Engine15SignedDataState15VerifySignatureEPhjj
a0002328 T _ZN13Loader_Engine15SignedDataState19EraseMemoryAndResetEv
a0002000 T _ZN13Loader_Engine15SignedDataState20VerifyContiguousDataEjj
a0000a58 T _ZN13Loader_Engine15SignedDataState5ResetEv
a00019d8 T _ZN13Loader_Engine15TransmitMessageEPK10WP_Messageb
a0002df8 T _ZN13Loader_Engine16Phy_ReceiveBytesEPvRPhRj
a0002e58 T _ZN13Loader_Engine17App_ProcessHeaderEPvP10WP_Message
a00023a0 T _ZN13Loader_Engine17Monitor_MemoryMapEP10WP_Message
a0001998 T _ZN13Loader_Engine18App_ProcessPayloadEPvP10WP_Message
a0001bb0 T _ZN13Loader_Engine18EnumerateAndLaunchEv
a0002824 T _ZN13Loader_Engine18Monitor_ReadMemoryEP10WP_Message
a00026b0 T _ZN13Loader_Engine19Monitor_CheckMemoryEP10WP_Message
a00025f4 T _ZN13Loader_Engine19Monitor_EraseMemoryEP10WP_Message
a0002764 T _ZN13Loader_Engine19Monitor_WriteMemoryEP10WP_Message
a0001a64 T _ZN13Loader_Engine19Phy_TransmitMessageEPvPK10WP_Message
a0002aa8 T _ZN13Loader_Engine22Monitor_CheckSignatureEP10WP_Message
a00013a4 T _ZN13Loader_Engine22Monitor_FlashSectorMapEP10WP_Message
a00016d0 T _ZN13Loader_Engine26Monitor_SignatureKeyUpdateEP10WP_Message
a0001a84 T _ZN13Loader_Engine6LaunchEPFvvE
a000127c T _ZN13MfReleaseInfo4InitERS_ttttPKcj
a0003d00 T _ZN13WP_Controller10InitializeEPKcPK16WP_PhysicalLayerPK19WP_ApplicationLayerPv
a00043ac T _ZN13WP_Controller12AdvanceStateEv
a0003c8c T _ZN13WP_Controller19SendProtocolMessageERK10WP_Message
a0003f88 T _ZN13WP_Controller19SendProtocolMessageEjjjPh
a000a670 T _ZN14HAL_COMPLETION14DequeueAndExecEv
a000a280 T _ZN14HAL_COMPLETION14InitializeListEv
a0005554 W _ZN14HAL_COMPLETION16InitializeForISREPFvPvES0_
a000a5b4 T _ZN14HAL_COMPLETION17WaitForInterruptsEyjy
a000a50c T _ZN14HAL_COMPLETION5AbortEv
a000a424 T _ZN14HAL_COMPLETION7ExecuteEv
a000797c T _ZN14LPC24XX_Driver10InitializeEv
a0007914 T _ZN14LPC24XX_Driver4HaltEv
a00078dc T _ZN14LPC24XX_Driver5ResetEv
a00078bc T _ZN14LPC24XX_Driver8ShutdownEv
a0002128 W _ZN15BitFieldManager17SetDirtySectorBitEj
a0000a18 W _ZN15BitFieldManager20ResetBitFieldManagerEv
a00022c8 W _ZN15BitFieldManager24InvalidateSectorBitFieldEv
a0000ab4 W _ZN15BitFieldManager24ResetSignatureCheckArrayEv
a0002b3c W _ZN15BitFieldManager25EraseOnSignatureCheckFailEv
a0001d0c W _ZN15BitFieldManager27GetNextSectorSignatureCheckEP18BlockStorageDeviceR16SECTOR_BIT_FIELD
a000470c T _ZN16BlockStorageList10InitializeEv
a00192d4 B _ZN16BlockStorageList12s_deviceListE
a0004f34 T _ZN16BlockStorageList13GetNextDeviceER18BlockStorageDevice
a00192d0 B _ZN16BlockStorageList13s_InitializedE
a0004690 T _ZN16BlockStorageList14GetFirstDeviceEv
a00192e0 B _ZN16BlockStorageList15s_primaryDeviceE
a0004f68 T _ZN16BlockStorageList17InitializeDevicesEv
a000505c T _ZN16BlockStorageList28FindDeviceForPhysicalAddressEPP18BlockStorageDevicejRj
a0004e98 T _ZN16BlockStorageList9AddDeviceEP18BlockStorageDeviceP19IBlockStorageDevicePvj
a000a7a0 T _ZN16HAL_CONFIG_BLOCK11ApplyConfigEPKcPvj
a000a25c T _ZN16HAL_CONTINUATION14InitializeListEv
a000a1a0 T _ZN16HAL_CONTINUATION18InitializeCallbackEPFvPvES0_
a000a450 T _ZN16HAL_CONTINUATION19Dequeue_And_ExecuteEv
a000a3bc T _ZN16HAL_CONTINUATION7EnqueueEv
a000a21c W _ZN17HAL_DblLinkedListI16HAL_CONTINUATIONE10InitializeEv
a000a330 W _ZN17HAL_DblLinkedListI16HAL_CONTINUATIONE10LinkAtBackEPS0_
a000a388 W _ZN17HAL_DblLinkedListI16HAL_CONTINUATIONE16ExtractFirstNodeEv
a000a2d0 W _ZN17HAL_DblLinkedListI16HAL_CONTINUATIONE16InsertBeforeNodeEPS0_S2_
a000a2bc W _ZN17HAL_DblLinkedListI16HAL_CONTINUATIONE6InsertEPS0_S2_S2_
a00046cc W _ZN17HAL_DblLinkedListI18BlockStorageDeviceE10InitializeEv
a00047d0 W _ZN17HAL_DblLinkedListI18BlockStorageDeviceE10LinkAtBackEPS0_
a0004770 W _ZN17HAL_DblLinkedListI18BlockStorageDeviceE16InsertBeforeNodeEPS0_S2_
a000475c W _ZN17HAL_DblLinkedListI18BlockStorageDeviceE6InsertEPS0_S2_S2_
a0005510 W _ZN17HAL_DblLinkedNodeI16HAL_CONTINUATIONE10InitializeEv
a000a2a4 W _ZN17HAL_DblLinkedNodeI16HAL_CONTINUATIONE14RemoveFromListEv
a000a178 W _ZN17HAL_DblLinkedNodeI16HAL_CONTINUATIONE6UnlinkEv
a0004668 W _ZN17HAL_DblLinkedNodeI18BlockStorageDeviceE10InitializeEv
a0004744 W _ZN17HAL_DblLinkedNodeI18BlockStorageDeviceE14RemoveFromListEv
a0000550 W _ZN18BlockStorageDevice13GetDeviceInfoEv
a00009d0 W _ZN18BlockStorageDevice13IsBlockErasedEjj
a00043d4 W _ZN18BlockStorageDevice16InitializeDeviceEv
a00045d0 W _ZN18BlockStorageDevice17FindForBlockUsageEjRjS0_S0_
a000461c W _ZN18BlockStorageDevice18FindNextUsageBlockEjRjS0_S0_
a0000600 W _ZN18BlockStorageDevice21FindRegionFromAddressEjRjS0_
a0000980 W _ZN18BlockStorageDevice4ReadEjjPh
a00009a4 W _ZN18BlockStorageDevice5WriteEjjPhj
a0004e78 T _ZN18BlockStorageStream10InitializeEj
a0004dd4 T _ZN18BlockStorageStream10InitializeEjP18BlockStorageDevice
a0004810 T _ZN18BlockStorageStream10NextStreamEv
a0004b24 T _ZN18BlockStorageStream10PrevStreamEv
a00043f8 T _ZN18BlockStorageStream14CurrentAddressEv
a00049f4 T _ZN18BlockStorageStream4ReadEPPhj
a0004ce4 T _ZN18BlockStorageStream4SeekEiNS_10SeekOriginE
a0005aec T _ZN18GPIO_BUTTON_Driver10InitializeEv
a000589c T _ZN18GPIO_BUTTON_Driver14CurrentHWStateEv
a00057b0 T _ZN18GPIO_BUTTON_Driver16HW_To_Hal_ButtonEj
a0005914 T _ZN18GPIO_BUTTON_Driver18GetNextStateChangeERjS0_
a00059a8 T _ZN18GPIO_BUTTON_Driver19RegisterStateChangeEjj
a0005aac T _ZN18GPIO_BUTTON_Driver3ISREjjPv
a000a7ec T _ZN18LPC24XX_SPI_Driver10InitializeEv
a00075d0 T _ZN18LPC24XX_VIC_Driver10InitializeEv
a0017530 D _ZN18LPC24XX_VIC_Driver10s_IsrTableE
a00077f4 T _ZN18LPC24XX_VIC_Driver11IRQ_HandlerEv
a0007640 T _ZN18LPC24XX_VIC_Driver14IRQToIRQVectorEj
a0007670 T _ZN18LPC24XX_VIC_Driver14STUB_ISRVectorEPv
a0007720 T _ZN18LPC24XX_VIC_Driver17ActivateInterruptEjjPFvPvES0_
a00076dc T _ZN18LPC24XX_VIC_Driver20InterruptEnableStateEj
a0016768 T _ZN19AT49BV_16_BS_Driver10EraseBlockEPvj
a001657c T _ZN19AT49BV_16_BS_Driver12ChipReadOnlyEPvjj
a001643c T _ZN19AT49BV_16_BS_Driver13Action_ReadIDEPvRjS1_
a001627c T _ZN19AT49BV_16_BS_Driver13GetDeviceInfoEPv
a0016528 T _ZN19AT49BV_16_BS_Driver13IsBlockErasedEPvjj
a0016ad4 T _ZN19AT49BV_16_BS_Driver13ReadProductIDEPvRjS1_
a0016294 T _ZN19AT49BV_16_BS_Driver13SetPowerStateEPvj
a0016b24 T _ZN19AT49BV_16_BS_Driver14ChipInitializeEPv
a00162b0 T _ZN19AT49BV_16_BS_Driver16Action_UnprotectEPvPVt
a00162b4 T _ZN19AT49BV_16_BS_Driver16Action_WriteWordEPvPVtt
a0016274 T _ZN19AT49BV_16_BS_Driver16ChipUnInitializeEPv
a0016284 T _ZN19AT49BV_16_BS_Driver17GetSectorMetadataEPvjP14SectorMetadata
a001628c T _ZN19AT49BV_16_BS_Driver17SetSectorMetadataEPvjP14SectorMetadata
a0016370 T _ZN19AT49BV_16_BS_Driver18Action_EraseSectorEPvPVt
a00162a4 T _ZN19AT49BV_16_BS_Driver18MaxBlockErase_uSecEPv
a0016298 T _ZN19AT49BV_16_BS_Driver19MaxSectorWrite_uSecEPv
a00164d8 T _ZN19AT49BV_16_BS_Driver4ReadEPvjjPh
a001681c T _ZN19AT49BV_16_BS_Driver5WriteEPvjjPhj
a0016734 T _ZN19AT49BV_16_BS_Driver6MemsetEPvjhj
a0016610 T _ZN19AT49BV_16_BS_Driver6WriteXEPvjjPhjj
a0005804 W _ZN19Hal_Queue_KnownSizeIN18GPIO_BUTTON_Driver19BUTTON_STATE_CHANGEELj64EE10InitializeEv
a0005858 W _ZN19Hal_Queue_KnownSizeIN18GPIO_BUTTON_Driver19BUTTON_STATE_CHANGEELj64EE3PopEv
a0005818 W _ZN19Hal_Queue_KnownSizeIN18GPIO_BUTTON_Driver19BUTTON_STATE_CHANGEELj64EE4PushEv
a0005ea0 T _ZN19LPC24XX_GPIO_Driver10DisablePinEj13GPIO_RESISTORj13GPIO_ALT_MODE
a00064a8 T _ZN19LPC24XX_GPIO_Driver10InitializeEv
a000609c T _ZN19LPC24XX_GPIO_Driver11GetPinStateEj
a0005e78 W _ZN19LPC24XX_GPIO_Driver11PinToPCBRegEj
a0005fc0 T _ZN19LPC24XX_GPIO_Driver11SetPinStateEjj
a0006240 T _ZN19LPC24XX_GPIO_Driver14EnableInputPinEjjPFvjjPvES0_13GPIO_INT_EDGE13GPIO_RESISTOR
a0005e4c W _ZN19LPC24XX_GPIO_Driver14PinToPCBRegBitEj
a0005e24 T _ZN19LPC24XX_GPIO_Driver14STUB_ISRVectorEjjPv
a0006120 T _ZN19LPC24XX_GPIO_Driver15EnableOutputPinEjj
a0005bf8 T _ZN19LPC24XX_GPIO_Driver18PIN_ISR_DESCRIPTOR4FireEPv
a0005c20 T _ZN19LPC24XX_GPIO_Driver8GPIO_ISREPv
a0005f70 W _ZN19LPC24XX_GPIO_Driver8PinToBitEj
a0005f98 W _ZN19LPC24XX_GPIO_Driver9PinToPortEj
a0006aac T _ZN19LPC24XX_TIME_Driver10InitializeEv
a0016114 T _ZN19LPC24XX_TIME_Driver10Sleep_uSecEj
a000665c T _ZN19LPC24XX_TIME_Driver12CounterValueEv
a000688c T _ZN19LPC24XX_TIME_Driver15SetCompareValueEy
a00160ec T _ZN19LPC24XX_TIME_Driver15Sleep_uSec_LoopEj
a00069b0 T _ZN19LPC24XX_TIME_Driver3ISREPv
a000a7c8 T _ZN20FileSystemVolumeList10InitializeEv
a000a7cc T _ZN20FileSystemVolumeList17InitializeVolumesEv
a0006b58 T _ZN20LPC24XX_TIMER_Driver10InitializeEjPFvPvES0_
a000684c W _ZN20LPC24XX_TIMER_Driver10SetCompareEjj
a001619c T _ZN20LPC24XX_TIMER_Driver11ReadCounterEj
a000680c W _ZN20LPC24XX_TIMER_Driver13DidCompareHitEj
a0006718 W _ZN20LPC24XX_TIMER_Driver14ForceInterruptEj
a00067cc W _ZN20LPC24XX_TIMER_Driver15ResetCompareHitEj
a0006a68 W _ZN20LPC24XX_TIMER_Driver22EnableCompareInterruptEj
a000721c T _ZN20LPC24XX_USART_Driver10InitializeEiiiiii
a0006fb0 T _ZN20LPC24XX_USART_Driver11ProtectPinsEij
a000713c T _ZN20LPC24XX_USART_Driver12UninitializeEi
a0006d9c T _ZN20LPC24XX_USART_Driver13TxBufferEmptyEi
a0007460 T _ZN20LPC24XX_USART_Driver15UART_IntHandlerEPv
a0006dc4 T _ZN20LPC24XX_USART_Driver19WriteCharToTxBufferEih
a0006d58 T _ZN20LPC24XX_USART_Driver20TxShiftRegisterEmptyEi
a0006e44 T _ZN20LPC24XX_USART_Driver27RxBufferFullInterruptEnableEij
a0006d08 T _ZN20LPC24XX_USART_Driver27TxBufferEmptyInterruptStateEi
a0006ecc T _ZN20LPC24XX_USART_Driver28TxBufferEmptyInterruptEnableEij
a00087a8 W _ZN21Hal_Queue_UnknownSizeIhE10InitializeEPhj
a00088d0 W _ZN21Hal_Queue_UnknownSizeIhE16NumberOfElementsEv
a0008844 W _ZN21Hal_Queue_UnknownSizeIhE3PopERj
a000875c W _ZN21Hal_Queue_UnknownSizeIhE3PopEv
a00087c4 W _ZN21Hal_Queue_UnknownSizeIhE4PushERj
a000891c W _ZN21Hal_Queue_UnknownSizeIhE4PushEv
a00088fc W _ZN21Hal_Queue_UnknownSizeIhE7IsEmptyEv
a000a868 T _ZN23LPC24XX_WATCHDOG_Driver7DisableEv
a000a898 T _ZN23LPC24XX_WATCHDOG_Driver8ResetCpuEv
a0002fd4 T _ZN26ConfigurationSectorManager17GetDeploymentKeysEj
a0002f6c T _ZN26ConfigurationSectorManager17LoadConfigurationEv
a0003278 T _ZN26ConfigurationSectorManager18UpdateSignatureKeyEjPh
a00030e8 T _ZN26ConfigurationSectorManager18WriteConfigurationEjPhjj
a00032a8 T _ZN26ConfigurationSectorManager19CleanBootLoaderFlagEv
a000301c T _ZN26ConfigurationSectorManager19VerifiySignatureKeyEjPh
a0002f54 T _ZN26ConfigurationSectorManager20GetTinyBooterVersionEv
a0002e94 T _ZN26ConfigurationSectorManager20IsBootLoaderRequiredERi
a000307c T _ZN26ConfigurationSectorManager21EraseWriteConfigBlockEPhj
a0002f14 T _ZN26ConfigurationSectorManager22CheckSignatureKeyEmptyEj
a00032e8 T _ZN26ConfigurationSectorManager25LocateConfigurationSectorEj
a0006ca8 W _ZN7LPC24XX4UARTEi
a000676c W _ZN7LPC24XX5TIMEREi
a00008cc W _ZN7Version4InitERS_tttt
a0000904 W _ZNK10BlockRange13GetBlockCountEv
a00043cc W _ZNK10BlockRange13GetBlockUsageEv
a00008e4 W _ZNK10BlockRange8IsConfigEv
a000759c W _ZNK12HAL_CALLBACK7ExecuteEv
a000459c T _ZNK15BlockDeviceInfo17FindForBlockUsageEjRjS0_S0_
a00044dc T _ZNK15BlockDeviceInfo18FindNextUsageBlockEjRjS0_S0_
a0004404 T _ZNK15BlockDeviceInfo21FindRegionFromAddressEjRjS0_
a0000914 W _ZNK15BlockRegionInfo12BlockAddressEj
a0000924 W _ZNK15BlockRegionInfo15OffsetFromBlockEj
a0000954 W _ZNK15BlockRegionInfo21BlockIndexFromAddressEj
a000a924 W _ZNK15BlockRegionInfo4SizeEv
a000a158 W _ZNK16HAL_CONTINUATION7ExecuteEv
a000a370 W _ZNK17HAL_DblLinkedListI16HAL_CONTINUATIONE14FirstValidNodeEv
a000a218 W _ZNK17HAL_DblLinkedListI16HAL_CONTINUATIONE4HeadEv
a000a1e4 W _ZNK17HAL_DblLinkedListI16HAL_CONTINUATIONE4TailEv
a000a1ec W _ZNK17HAL_DblLinkedListI16HAL_CONTINUATIONE7IsEmptyEv
a0004678 W _ZNK17HAL_DblLinkedListI18BlockStorageDeviceE14FirstValidNodeEv
a00046c8 W _ZNK17HAL_DblLinkedListI18BlockStorageDeviceE4HeadEv
a00046c0 W _ZNK17HAL_DblLinkedListI18BlockStorageDeviceE4TailEv
a00009f4 W _ZNK18BlockStorageDevice10EraseBlockEj
a0021dc4 b _ZZN10TimeDriver16DateTimeToStringERKxE8rgBuffer
a0021e44 b _ZZN10TimeDriver16TimeSpanToStringERKxE8rgBuffer
a00176f8 d _ZZN20LPC24XX_USART_Driver11ProtectPinsEijE18COM1_PinsProtected
a00176fc d _ZZN20LPC24XX_USART_Driver11ProtectPinsEijE18COM2_PinsProtected
a00176f0 d _ZZN20LPC24XX_USART_Driver11ProtectPinsEijE18COM3_PinsProtected
a00176f4 d _ZZN20LPC24XX_USART_Driver11ProtectPinsEijE18COM4_PinsProtected
a001480c T ___Unwind_ForcedUnwind
a00147a0 T ___Unwind_RaiseException
a00147c4 T ___Unwind_Resume
a00147e8 T ___Unwind_Resume_or_Rethrow
a00121dc T __adddf3
a0012b38 T __aeabi_cdcmpeq
a0012b38 T __aeabi_cdcmple
a0012b1c T __aeabi_cdrcmple
a0012bc8 T __aeabi_d2iz
a00121dc T __aeabi_dadd
a0012b50 T __aeabi_dcmpeq
a0012b98 T __aeabi_dcmpge
a0012bb0 T __aeabi_dcmpgt
a0012b80 T __aeabi_dcmple
a0012b68 T __aeabi_dcmplt
a001287c T __aeabi_ddiv
a00125ec T __aeabi_dmul
a00121d0 T __aeabi_drsub
a00121d8 T __aeabi_dsub
a0012538 T __aeabi_f2d
a0012510 T __aeabi_i2d
a00121cc T __aeabi_idiv0
a001258c T __aeabi_l2d
a00121cc T __aeabi_ldiv0
a00124ec T __aeabi_ui2d
a00120b8 T __aeabi_uidiv
a00121b4 T __aeabi_uidivmod
a0012578 T __aeabi_ul2d
a0012c24 T __aeabi_uldivmod
a0013dc0 T __aeabi_unwind_cpp_pr0
a0013dac W __aeabi_unwind_cpp_pr1
a0013d98 W __aeabi_unwind_cpp_pr2
a0010c70 T __any_on
a0010a68 T __b2d
a0015fc0 T __clz_tab
a0012a98 T __cmpdf2
a0010c14 T __copybits
         w __cxa_begin_cleanup
         w __cxa_call_unexpected
         w __cxa_type_match
a0010da4 T __d2b
a00121cc T __div0
a001287c T __divdf3
a0012cd0 T __divdi3
a0012a98 T __eqdf2
a0021f24 B __exidx_end
a0021f24 B __exidx_start
a0012538 T __extendsfdf2
a0012bc8 T __fixdfsi
a001258c T __floatdidf
a0012510 T __floatsidf
a0012578 T __floatundidf
a00124ec T __floatunsidf
a000f318 t __fp_lock
a000f34c T __fp_lock_all
a000f320 t __fp_unlock
a000f328 T __fp_unlock_all
a0012a88 T __gedf2
         w __gnu_Unwind_Find_exidx
a001407c T __gnu_Unwind_ForcedUnwind
a00141ec T __gnu_Unwind_RaiseException
a00146c0 T __gnu_Unwind_Restore_VFP
a00146d0 T __gnu_Unwind_Restore_VFP_D
a00146e0 T __gnu_Unwind_Restore_VFP_D_16_to_31
a0014778 T __gnu_Unwind_Restore_WMMXC
a00146f0 T __gnu_Unwind_Restore_WMMXD
a0014100 T __gnu_Unwind_Resume
a0014298 T __gnu_Unwind_Resume_or_Rethrow
a00146c8 T __gnu_Unwind_Save_VFP
a00146d8 T __gnu_Unwind_Save_VFP_D
a00146e8 T __gnu_Unwind_Save_VFP_D_16_to_31
a001478c T __gnu_Unwind_Save_WMMXC
a0014734 T __gnu_Unwind_Save_WMMXD
a0012c88 T __gnu_ldivmod_helper
a0012c40 T __gnu_uldivmod_helper
a001490c T __gnu_unwind_execute
a0014d18 T __gnu_unwind_frame
a0013960 t __gnu_unwind_pr_common
a0012a88 T __gtdf2
a00108b4 T __hi0bits
a0011300 T __i2b
a0011b94 T __isinfd
a0011bd0 T __isnand
a0017bbc D __lc_ctype
a0012a90 T __ledf2
a001090c T __lo0bits
a000fdd4 T __locale_charset
a001101c T __lshift
a0012a90 T __ltdf2
a0017bc8 D __malloc_av_
a0021ef4 B __malloc_current_mallinfo
a0010890 T __malloc_lock
a0021f1c B __malloc_max_sbrked_mem
a0021f20 B __malloc_max_total_mem
a0017fd0 D __malloc_sbrk_base
a0021ef0 B __malloc_top_pad
a0017fd4 D __malloc_trim_threshold
a0010894 T __malloc_unlock
a0017bb8 D __mb_cur_max
a00109a0 T __mcmp
a0010ed8 T __mdiff
a0015f70 T __mprec_bigtens
a0015e98 T __mprec_tens
a0015f98 T __mprec_tinytens
a00125ec T __muldf3
a0011324 T __multadd
a0011128 T __multiply
a0012a98 T __nedf2
a00113fc T __pow5mult
a0010b24 T __ratio
a00146a4 T __restore_core_regs
a00114f4 T __s2b
a0011c40 T __sclose
a000f398 T __sfmoreglue
a000f3ec T __sfp
a000f284 T __sfp_lock_acquire
a000f288 T __sfp_lock_release
a000f884 T __sfvwrite_r
a0014e5c T __sigtramp
a0014dd8 T __sigtramp_r
a000f294 T __sinit
a000f28c T __sinit_lock_acquire
a000f290 T __sinit_lock_release
a000fe7c T __smakebuf
a000af6c t __sprint_r
a0011d10 T __sread
a0011c60 T __sseek
a00121d8 T __subdf3
a0011cac T __swrite
a000d87c T __swsetup
a0013254 T __udivdi3
a00120b8 T __udivsi3
a0010a08 T __ulp
00000000 A __use_no_semihosting_swi
a0011e04 T _calloc_r
a000f388 T _cleanup
a000f370 T _cleanup_r
a001752c T _close
a0011ea4 T _close_r
a000dbb0 T _dtoa_r
a001752c T _exit
a0011ee0 T _fclose_r
a000f5c4 T _free_r
a001752c T _fstat
a0011ff0 T _fstat_r
a000fd4c T _fwalk
a000fcc0 T _fwalk_reent
a001752c T _getpid
a0014fa4 T _getpid_r
a0015d98 T _global_impure_ptr
a00177b0 D _impure_ptr
a0014dc8 T _init_signal
a0014d70 T _init_signal_r
a001752c T _kill
a0014fb4 T _kill_r
a000fde4 T _localeconv_r
a001752c T _lseek
a0012030 T _lseek_r
a000fff8 T _malloc_r
a000f4c8 T _malloc_trim_r
a0010ba8 T _mprec_log10
a0014e70 T _raise_r
a001752c T _read
a0012074 T _read_r
a00115d8 T _realloc_r
a001752c T _sbrk
a0011c00 T _sbrk_r
a000fe00 T _setlocale_r
a0014f30 T _signal_r
         U _start
a000afa4 T _vfprintf_r
a000ae70 T _vsnprintf_r
a000d25c T _wcrtomb_r
a000d2d4 T _wcsrtombs_r
a000d45c T _wctomb_r
a001752c T _write
a0011dc0 T _write_r
a0014d60 T abort
a0015d9e t blanks.3531
a001531c t c_CRCTable
a001517c t c_Debugger_app
a0015174 t c_Debugger_phy
a00150d8 t c_Lookup_Reply
a00150e4 t c_Lookup_Request
a0015e54 t charset
a0008260 T debug_printf
a0021f24 B errno
a0011fdc T fclose
a000f070 T fflush
a0021dac B g_AT49BV642DT_16_BS
a0017744 D g_AT49BV642DT_16_BS_Config
a0015bc4 t g_AT49BV642DT_16_BlkRegion
a0015bd8 t g_AT49BV642DT_16_BlockRange
a0017728 D g_AT49BV642DT_16_DeviceInfo
a0017778 D g_AT49BV_16_BS_DeviceTable
a0017fe0 B g_BitFieldManager
a001e074 b g_Boot_RAMConstants_CRC
a001801c B g_ConfigBuffer
a0018020 B g_ConfigBufferLength
a0016c20 T g_ConfigurationSector
a00192ec B g_Event_Callback
a00192f0 B g_Event_Callback_Arg
a00192f8 B g_Events_BoolTimerCompletion
a00176bc D g_GPIO_BUTTON_Config
a0019318 B g_GPIO_BUTTON_Driver
a0021da0 B g_HAL_Completion_List
a0021d94 B g_HAL_Continuation_List
a0019528 B g_LPC24XX_GPIO_Driver
a001bab0 B g_LPC24XX_PINSEL_Driver
a001e048 B g_LPC24XX_TIMER_Driver
a001e038 B g_LPC24XX_TIME_Driver
a0018024 B g_PrimaryConfigManager
a0021ec8 B g_TimeDriver
a0018950 B g_eng
a001e058 b g_s_FirstCluster
a0013dd4 t get_eit_entry
a00177b8 d impure_data
a001752c T isatty
a00080b8 T lcd_printf
a0015e58 t lconv
a000fdf0 T localeconv
a000008c t loop
a001077c T memchr
a000a9c4 T memcmp
a000aa5c T memcpy
a000ab00 T memmove
a000abf4 T memset
a0014830 t next_unwind_byte
a0015f60 t p05.2718
a0000538 T platform_prestackinit
a0003a88 T private_free
a0003aa4 T private_malloc
a000d990 t quorem
a0014f1c T raise
a00146a4 T restore_core_regs
a0014168 t restore_non_core_regs
a0013894 t search_EIT_table
a0013878 t selfrel_offset31
a000fe60 T setlocale
a0014f88 T signal
a000f228 t std
a000ac80 T strcmp
a0011d58 T strlen
a000ad68 T strncpy
a00148cc t unwind_UCB_from_context
a00140a4 t unwind_phase2
a0013f20 t unwind_phase2_forced
a000d230 T vfprintf
a000aee8 T vsnprintf
a000d2a8 T wcrtomb
a000d418 T wcsrtombs
a0015dae t zeroes.3532
a000a008 T ABORTD_Handler
a0009920 t ABORTD_Handler_Ptr
a00098e0 T ABORTD_SubHandler
a0000028 t ABORTD_SubHandler_Trampoline
a000a078 T ABORTP_Handler
a00098dc t ABORTP_Handler_Ptr
a000989c T ABORTP_SubHandler
a0000024 t ABORTP_SubHandler_Trampoline
a0021d90 B ABORT_recursion_counter
a0000000 T ARM_Vectors
00000000 a BUILD_RTM
00000000 a BUILD_RTM
00000000 a BUILD_RTM
00000000 a BUILD_RTM
a0008510 T BootEntry
a00000a0 t BootEntryPointer
00000001 a COMPILE_ARM
00000001 a COMPILE_ARM
00000001 a COMPILE_ARM
00000001 a COMPILE_ARM
a0000074 t ClearZI_ER_RAM
a0007dd8 T Crypto_AbortRSAOperation
a0007dc8 T Crypto_StartRSAOperationWithKey
a0007dd0 T Crypto_StepRSAOperation
a0000000 T EntryPoint
00000001 a HAL_REDUCESIZE
00000001 a HAL_REDUCESIZE
00000001 a HAL_REDUCESIZE
a00066c4 T HAL_Time_CurrentTicks
a0009924 T HARD_Breakpoint
a0009f64 T HARD_Breakpoint_Handler
a0009948 t HARD_Breakpoint_Handler_Ptr
a0015798 T HalName
a0017700 D HalSystemConfig
a001e088 B Hal_Usart_State
a0100000 R HeapBegin
a0200000 R HeapEnd
a001625c T IDelayLoop
a0016268 T IDelayLoop2
a001625c t IDelayLoop__Fi_b
a0007890 T IRQ_Handler
a001623c T IRQ_LOCK_Disable_asm
a001620c T IRQ_LOCK_ForceDisabled_asm
a0016224 T IRQ_LOCK_ForceEnabled_asm
a00161fc T IRQ_LOCK_GetState_asm
a00161e8 T IRQ_LOCK_Probe_asm
a00161d8 T IRQ_LOCK_Release_asm
a001624c T IRQ_LOCK_Restore_asm
a000002c T IRQ_SubHandler_Trampoline
00017530 A Image$$ER_FLASH$$Length
40000000 N Image$$ER_IRAM$$Base
00000000 A Image$$ER_IRAM$$Length
40000040 N Image$$ER_IRAM_TC$$Base
00000000 A Image$$ER_IRAM_TC$$Length
a0000000 T Image$$ER_RAM_RO$$Base
00017530 A Image$$ER_RAM_RO$$Length
a0017530 D Image$$ER_RAM_RW$$Base
00000aa8 A Image$$ER_RAM_RW$$Length
a0017fe0 B Image$$ER_RAM_RW$$ZI$$Base
00009f48 A Image$$ER_RAM_RW$$ZI$$Length
a001e080 B LOAD_IMAGE_CalcCRC
a001e07c B LOAD_IMAGE_Length
a001e078 B LOAD_IMAGE_Start
a0000000 T Load$$ER_FLASH$$Base
a0021f28 A Load$$ER_IRAM$$Base
40000040 A Load$$ER_IRAM_TC$$Base
a0000000 A Load$$ER_RAM_RO$$Base
a0017530 A Load$$ER_RAM_RW$$Base
a001e05c b LoggingCallback
a0000080 t NoClearZI_ER_RAM
00000001 a PLATFORM_ARM_LPC24XX
00000001 a PLATFORM_ARM_LPC24XX
00000001 a PLATFORM_ARM_LPC24XX
00000001 a PLATFORM_ARM_LPC24XX
00000001 a PLATFORM_ARM_plak1a_LPC2478
00000001 a PLATFORM_ARM_plak1a_LPC2478
00000001 a PLATFORM_ARM_plak1a_LPC2478
00000001 a PLATFORM_ARM_plak1a_LPC2478
000000d7 a PSR_MODE_ABORT
000000d7 a PSR_MODE_ABORT
000000d1 a PSR_MODE_FIQ
000000d1 a PSR_MODE_FIQ
000000d2 a PSR_MODE_IRQ
000000d2 a PSR_MODE_IRQ
000000d3 a PSR_MODE_SUPERVISOR
000000d3 a PSR_MODE_SUPERVISOR
000000df a PSR_MODE_SYSTEM
000000df a PSR_MODE_SYSTEM
000000db a PSR_MODE_UNDEF
000000db a PSR_MODE_UNDEF
000000d0 a PSR_MODE_USER
000000d0 a PSR_MODE_USER
a001ed90 B RxBuffer_Com
00000010 a STACK_MODE_ABORT
00000800 a STACK_MODE_IRQ
00000010 a STACK_MODE_UNDEF
a02ffff8 R StackBottom
a0300000 R StackTop
a00192e8 B SystemEvents
a0008040 T SystemState_ClearNoLock
a0008058 T SystemState_QueryNoLock
a0008028 T SystemState_SetNoLock
a001e060 B SystemStates
00000001 a TARGETLOCATION_FLASH
00000001 a TARGETLOCATION_FLASH
00000001 a TARGETLOCATION_FLASH
00000001 a TARGETLOCATION_FLASH
a00066e0 T Time_CurrentTicks
a001e190 B TxBuffer_Com
a000a0e8 T UNDEF_Handler
a0009898 t UNDEF_Handler_Ptr
a0009858 T UNDEF_SubHandler
a0000020 t UNDEF_SubHandler_Trampoline
a0000030 t VectorAreaSkip
a0010d10 T _Balloc
a0010898 T _Bfree
a0013938 T _Unwind_Complete
a001393c T _Unwind_DeleteException
a001480c T _Unwind_ForcedUnwind
a0013930 T _Unwind_GetCFA
a0014894 T _Unwind_GetDataRelBase
a001489c t _Unwind_GetGR
a00137cc t _Unwind_GetGR
a00148d4 T _Unwind_GetLanguageSpecificData
a00148f8 T _Unwind_GetRegionStart
a001488c T _Unwind_GetTextRelBase
a00147a0 T _Unwind_RaiseException
a00147c4 T _Unwind_Resume
a00147e8 T _Unwind_Resume_or_Rethrow
a0013848 t _Unwind_SetGR
a0013780 T _Unwind_VRS_Get
a00142c8 T _Unwind_VRS_Pop
a00137fc T _Unwind_VRS_Set
a001376c t _Unwind_decode_target2
a0005730 T _Z10Events_Setj
a000932c T _Z10USART_ReadiPcj
a0007ff4 T _Z10hal_printfPKcz
a00090e4 T _Z11USART_Flushi
a00095b8 T _Z11USART_WriteiPKcj
a0007f8c T _Z11hal_fprintfiPKcz
a0007fc0 T _Z11hal_vprintfPKcPv
a0000c04 t _Z12AccessMemoryjjPhi
a00056dc T _Z12Events_Clearj
a00078ac T _Z12HAL_AssertExv
a0005bd8 T _Z12HeapLocationRPhRj
a0007db8 T _Z12SOCKETS_ReadiPcj
a0007df0 T _Z12hal_strlen_sPKc
a0007e94 T _Z12hal_vfprintfiPKcPv
a000a7c0 T _Z13FS_AddVolumesv
a000a7c4 T _Z13FS_Initializev
a0007dc0 T _Z13SOCKETS_Flushi
a0007db0 T _Z13SOCKETS_WriteiPKcj
a0009820 T _Z13USB_ConfigureiPK25USB_DYNAMIC_CONFIGURATION
a0007e0c T _Z13hal_strncpy_sPcjPKcj
a0007e78 T _Z13hal_vsnprintfPcjPKcPv
a00079cc T _Z14CPU_Initializev
a0008338 T _Z14HAL_Initializev
a000a7dc T _Z14I2C_Initializev
a000a7e4 T _Z14Ink_Initializev
a0005798 T _Z14LCD_Initializev
a0009818 T _Z14USB_Initializei
a0009830 T _Z14USB_OpenStreamiii
a0000148 T _Z15Bootstrap_Delayi
a0003b04 T _Z15LZ77_DecompressPhiS_i
a000a8f8 T _Z15Time_Initializev
a0009838 T _Z15USB_CloseStreami
a00057a0 T _Z16LCD_Uninitializev
a000a8e4 T _Z16Piezo_Initializev
a00097ec T _Z16USART_Initializeiiiiii
a0009828 T _Z16USB_Uninitializei
a000a87c T _Z16Watchdog_Disablev
a0007de0 T _Z17CPU_DisableCachesv
a000520c T _Z17DebuggerPort_ReadiPcj
a0005520 T _Z17Events_Initializev
a00054fc T _Z17Events_MaskedReadj
a0000524 T _Z17Initialize_SyncOnv
a000a7b8 T _Z18Battery_Initializev
a00002d8 T _Z18BootstrapCode_Pinsv
a0005bbc T _Z18Buttons_Initializev
a000a84c T _Z18CPU_SPI_Initializev
a0006610 T _Z18CPU_TicksPerSecondv
a000a7b0 T _Z18Charger_Initializev
a000a8e8 T _Z18CustomHeapLocationRPhRj
a00051a0 T _Z18DebuggerPort_Flushi
a0005278 T _Z18DebuggerPort_WriteiPKcj
a000a7d4 T _Z18Gesture_Initializev
a0007da0 T _Z18SOCKETS_Initializei
a0003ac0 T _Z18SUPPORT_ComputeCRCPKvij
a0007b24 T _Z18SimpleHeap_ReleasePv
a0009670 T _Z18USART_Uninitializei
a00000b4 T _Z19BootstrapCode_Dummyv
a0005f54 T _Z19CPU_GPIO_DisablePinj13GPIO_RESISTORj13GPIO_ALT_MODE
a0006580 T _Z19CPU_GPIO_Initializev
a0007624 T _Z19CPU_INTC_Initializev
a0007de8 T _Z19CPU_USB_ProtectPinsij
a0006b38 T _Z19HAL_Time_Initializev
a0006a4c T _Z19HAL_Time_SetComparey
a000a8dc T _Z19PalEvent_Initializev
a0007a40 T _Z19SimpleHeap_Allocatej
a00080f4 T _Z19Verify_RAMConstantsPv
a00099ec T _Z20ABORT_HandlerDisplayPjjjjPKcj
a000a7a8 T _Z20BackLight_Initializev
a00001b0 T _Z20BootstrapCode_Clocksv
a0006104 T _Z20CPU_GPIO_GetPinStatej
a0006080 T _Z20CPU_GPIO_SetPinStatejj
a000742c T _Z20CPU_USART_Initializeiiiiii
a000081c W _Z20Events_WaitForEventsjj
a0005578 T _Z20Events_WaitForEventsjjj
a00082f0 W _Z20HAL_Init_Custom_Heapv
a0006b54 T _Z20HAL_Time_TicksToTimey
a0007da8 T _Z20SOCKETS_Uninitializei
a0009964 T _Z20monitor_debug_printfPKcz
a000371c T _Z21ApplicationEntryPointv
a00071e4 T _Z21CPU_USART_ProtectPinsij
a0008074 T _Z21Checksum_RAMConstantsv
a0007a08 T _Z21SimpleHeap_InitializePvj
a0000294 T _Z22BootstrapCode_Ext_SRAMv
a00058f8 T _Z22Buttons_CurrentHWStatev
a00071c8 T _Z22CPU_USART_Uninitializei
a00057ac T _Z22LCD_WriteFormattedCharh
a000a91c T _Z22TimeService_Initializev
a000994c T _Z22Watchdog_GetSetEnabledjj
a0009954 T _Z22Watchdog_GetSetTimeoutij
a000a768 T _Z23BlockStorage_AddDevicesv
a0000298 T _Z23BootstrapCode_Ext_Flashv
a0000334 T _Z23BootstrapCode_Ext_SDRAMv
a0006480 T _Z23CPU_GPIO_EnableInputPinjjPFvjjPvE13GPIO_INT_EDGE13GPIO_RESISTOR
a00160e0 T _Z23CPU_MicrosecondsToTicksj
a00160c0 T _Z23CPU_MicrosecondsToTicksy
a000661c T _Z23CPU_MillisecondsToTicksj
a0006e28 T _Z23CPU_USART_TxBufferEmptyi
a0005408 T _Z23DebuggerPort_Initializei
a0008dbc T _Z23USART_AddCharToRxBufferic
a0000844 T _Z23WaitForTinyBooterUploadRi
a000995c T _Z23Watchdog_GetSetBehavior17Watchdog_Behaviorj
a00057e8 T _Z24Buttons_HW_To_Hal_Buttonj
a000a934 T _Z24CPU_EBIU_Memory_ReadOnlyRK17CPU_MEMORY_CONFIGj
a0006224 T _Z24CPU_GPIO_EnableOutputPinjj
a0007de4 T _Z24CPU_GetUncachableAddressj
a00000b8 T _Z24PrepareImageRegions_IRAMv
a0000644 T _Z24TinyBooter_OnStateChange16_TinyBooterStatePvPS0_
a0005380 T _Z25DebuggerPort_Uninitializei
a0000594 T _Z25TinyBooter_GetReleaseInfoR13MfReleaseInfo
a000598c T _Z26Buttons_GetNextStateChangeRjS_
a000a930 T _Z26CPU_EBIU_ConfigMemoryBlockRK17CPU_MEMORY_CONFIG
a00077cc T _Z26CPU_INTC_ActivateInterruptjPFvPvES_
a0005a90 T _Z27Buttons_RegisterStateChangejj
a00065ec T _Z27HAL_Time_GetDriftParametersPiS_Px
a00066fc T _Z27HAL_Time_Sleep_MicroSecondsj
a0000100 T _Z27PrepareImageRegions_IRAM_TCv
a0000574 T _Z27Tinybooter_ProgramWordCheckv
a0000580 T _Z28Tinybooter_ImageIsCompressedv
a0008bc4 T _Z28USART_RemoveCharFromTxBufferiRc
a0007704 T _Z29CPU_INTC_InterruptEnableStatej
a0005138 T _Z29CPU_ProtectCommunicationGPIOsj
a0006e0c T _Z29CPU_USART_WriteCharToTxBufferih
a0006d80 T _Z30CPU_USART_TxShiftRegisterEmptyi
a0000588 T _Z31Tinybooter_CompressedImageStartRK22CompressedImage_Header
a0007458 T _Z33CPU_USART_TxHandshakeEnabledStatei
a0006eb0 T _Z37CPU_USART_RxBufferFullInterruptEnableij
a0006d3c T _Z37CPU_USART_TxBufferEmptyInterruptStatei
a0007200 T _Z38CPU_USART_TxBufferEmptyInterruptEnableij
a0000590 T _Z39Tinybooter_PrepareForDecompressedLaunchv
a0006640 T _Z44HAL_Time_Sleep_MicroSeconds_InterruptEnabledj
a0000460 T _Z7delayMsjj
a0007960 T _Z8CPU_Haltv
a00004d0 T _Z8GetFpclkj
a0000154 T _Z8GetFsclkv
a0009848 T _Z8USB_ReadiPcj
a00078f8 T _Z9CPU_Resetv
a00079e8 T _Z9CPU_Sleep11SLEEP_LEVELy
a00057a8 T _Z9LCD_Clearv
a0009850 T _Z9USB_Flushi
a0009840 T _Z9USB_WriteiPKcj
a000a93c T _ZN10TimeDriver10InitializeEv
a0021dc0 B _ZN10TimeDriver13m_initializedE
a0003cb0 T _ZN10WP_Message10InitializeEP13WP_Controller
a0003e0c T _ZN10WP_Message12PrepareReplyERK9WP_PacketjjPh
a0003dc4 T _ZN10WP_Message12VerifyHeaderEv
a0003d74 T _ZN10WP_Message13VerifyPayloadEv
a0003ed0 T _ZN10WP_Message14PrepareRequestEjjjPh
a0004008 T _ZN10WP_Message14ReplyBadPacketEj
a0003c40 T _ZN10WP_Message16PrepareReceptionEv
a0004084 T _ZN10WP_Message7ProcessEv
a0003c4c T _ZN10WP_Message7ReleaseEv
a0003444 T _ZN11CryptoState15VerifySignatureEj
a0003410 T _ZN11CryptoStateC1EjjPhjj
a00036f4 T _ZN11CryptoStateD1Ev
a000659c W _ZN11LPC24XX_VIC14ForceInterruptEj
a00076a8 W _ZN11LPC24XX_VIC18IsInterruptEnabledEj
a00075bc W _ZN11LPC24XX_VIC21RemoveForcedInterruptEj
a0007594 W _ZN12HAL_CALLBACK10InitializeEPFvPvES0_
a0007c30 T _ZN12SmartPtr_IRQ11WasDisabledEv
a0007cf8 T _ZN12SmartPtr_IRQ12ForceEnabledEPv
a0007d14 T _ZN12SmartPtr_IRQ13ForceDisabledEPv
a0007d4c T _ZN12SmartPtr_IRQ5ProbeEv
a0007cac T _ZN12SmartPtr_IRQ7AcquireEv
a0007c88 T _ZN12SmartPtr_IRQ7DisableEv
a0007d70 T _ZN12SmartPtr_IRQ7ReleaseEv
a0007c40 T _ZN12SmartPtr_IRQ7RestoreEv
a0007d30 T _ZN12SmartPtr_IRQ8GetStateEPv
a0007cd0 T _ZN12SmartPtr_IRQC1EPv
a0007c64 T _ZN12SmartPtr_IRQD1Ev
a000968c T _ZN12USART_Driver10InitializeEiiiiii
a00095d4 T _ZN12USART_Driver12UninitializeEi
a0008be0 T _ZN12USART_Driver17AddCharToRxBufferEic
a0008adc T _ZN12USART_Driver22RemoveCharFromTxBufferEiRc
a0009100 T _ZN12USART_Driver4ReadEiPcj
a0008dd8 T _ZN12USART_Driver5FlushEi
a0009348 T _ZN12USART_Driver5WriteEiPKcj
a0008a18 T _ZN12USART_Driver7SendXONEij
a0008a78 T _ZN12USART_Driver8SendXOFFEij
a0008960 T _ZN12USART_Driver8SetEventEij
a00065b0 W _ZN13LPC24XX_TIMER8getIntNoEi
a0006c6c W _ZN13LPC24XX_USART8getIntNoEi
a0002d4c T _ZN13Loader_Engine10InitializeEi
a0000a8c T _ZN13Loader_Engine11App_ReleaseEPvP10WP_Message
a000165c T _ZN13Loader_Engine12Monitor_PingEP10WP_Message
a0001860 T _ZN13Loader_Engine14Monitor_RebootEP10WP_Message
a00018c4 T _ZN13Loader_Engine14ProcessPayloadEP10WP_Message
a00016a8 T _ZN13Loader_Engine14ReplyToCommandEP10WP_Messagebb
a00012e8 T _ZN13Loader_Engine14ReplyToCommandEP10WP_MessagebbPvi
a0002468 T _ZN13Loader_Engine15Monitor_ExecuteEP10WP_Message
a00015e4 T _ZN13Loader_Engine15Monitor_OemInfoEP10WP_Message
a0001cec T _ZN13Loader_Engine15ProcessCommandsEv
a0000a38 T _ZN13Loader_Engine15SignedDataState10CheckDirtyEv
a00028e4 T _ZN13Loader_Engine15SignedDataState15VerifySignatureEPhjj
a0002328 T _ZN13Loader_Engine15SignedDataState19EraseMemoryAndResetEv
a0002000 T _ZN13Loader_Engine15SignedDataState20VerifyContiguousDataEjj
a0000a58 T _ZN13Loader_Engine15SignedDataState5ResetEv
a00019d8 T _ZN13Loader_Engine15TransmitMessageEPK10WP_Messageb
a0002df8 T _ZN13Loader_Engine16Phy_ReceiveBytesEPvRPhRj
a0002e58 T _ZN13Loader_Engine17App_ProcessHeaderEPvP10WP_Message
a00023a0 T _ZN13Loader_Engine17Monitor_MemoryMapEP10WP_Message
a0001998 T _ZN13Loader_Engine18App_ProcessPayloadEPvP10WP_Message
a0001bb0 T _ZN13Loader_Engine18EnumerateAndLaunchEv
a0002824 T _ZN13Loader_Engine18Monitor_ReadMemoryEP10WP_Message
a00026b0 T _ZN13Loader_Engine19Monitor_CheckMemoryEP10WP_Message
a00025f4 T _ZN13Loader_Engine19Monitor_EraseMemoryEP10WP_Message
a0002764 T _ZN13Loader_Engine19Monitor_WriteMemoryEP10WP_Message
a0001a64 T _ZN13Loader_Engine19Phy_TransmitMessageEPvPK10WP_Message
a0002aa8 T _ZN13Loader_Engine22Monitor_CheckSignatureEP10WP_Message
a00013a4 T _ZN13Loader_Engine22Monitor_FlashSectorMapEP10WP_Message
a00016d0 T _ZN13Loader_Engine26Monitor_SignatureKeyUpdateEP10WP_Message
a0001a84 T _ZN13Loader_Engine6LaunchEPFvvE
a000127c T _ZN13MfReleaseInfo4InitERS_ttttPKcj
a0003d00 T _ZN13WP_Controller10InitializeEPKcPK16WP_PhysicalLayerPK19WP_ApplicationLayerPv
a00043ac T _ZN13WP_Controller12AdvanceStateEv
a0003c8c T _ZN13WP_Controller19SendProtocolMessageERK10WP_Message
a0003f88 T _ZN13WP_Controller19SendProtocolMessageEjjjPh
a000a670 T _ZN14HAL_COMPLETION14DequeueAndExecEv
a000a280 T _ZN14HAL_COMPLETION14InitializeListEv
a0005554 W _ZN14HAL_COMPLETION16InitializeForISREPFvPvES0_
a000a5b4 T _ZN14HAL_COMPLETION17WaitForInterruptsEyjy
a000a50c T _ZN14HAL_COMPLETION5AbortEv
a000a424 T _ZN14HAL_COMPLETION7ExecuteEv
a000797c T _ZN14LPC24XX_Driver10InitializeEv
a0007914 T _ZN14LPC24XX_Driver4HaltEv
a00078dc T _ZN14LPC24XX_Driver5ResetEv
a00078bc T _ZN14LPC24XX_Driver8ShutdownEv
a0002128 W _ZN15BitFieldManager17SetDirtySectorBitEj
a0000a18 W _ZN15BitFieldManager20ResetBitFieldManagerEv
a00022c8 W _ZN15BitFieldManager24InvalidateSectorBitFieldEv
a0000ab4 W _ZN15BitFieldManager24ResetSignatureCheckArrayEv
a0002b3c W _ZN15BitFieldManager25EraseOnSignatureCheckFailEv
a0001d0c W _ZN15BitFieldManager27GetNextSectorSignatureCheckEP18BlockStorageDeviceR16SECTOR_BIT_FIELD
a000470c T _ZN16BlockStorageList10InitializeEv
a00192d4 B _ZN16BlockStorageList12s_deviceListE
a0004f34 T _ZN16BlockStorageList13GetNextDeviceER18BlockStorageDevice
a00192d0 B _ZN16BlockStorageList13s_InitializedE
a0004690 T _ZN16BlockStorageList14GetFirstDeviceEv
a00192e0 B _ZN16BlockStorageList15s_primaryDeviceE
a0004f68 T _ZN16BlockStorageList17InitializeDevicesEv
a000505c T _ZN16BlockStorageList28FindDeviceForPhysicalAddressEPP18BlockStorageDevicejRj
a0004e98 T _ZN16BlockStorageList9AddDeviceEP18BlockStorageDeviceP19IBlockStorageDevicePvj
a000a7a0 T _ZN16HAL_CONFIG_BLOCK11ApplyConfigEPKcPvj
a000a25c T _ZN16HAL_CONTINUATION14InitializeListEv
a000a1a0 T _ZN16HAL_CONTINUATION18InitializeCallbackEPFvPvES0_
a000a450 T _ZN16HAL_CONTINUATION19Dequeue_And_ExecuteEv
a000a3bc T _ZN16HAL_CONTINUATION7EnqueueEv
a000a21c W _ZN17HAL_DblLinkedListI16HAL_CONTINUATIONE10InitializeEv
a000a330 W _ZN17HAL_DblLinkedListI16HAL_CONTINUATIONE10LinkAtBackEPS0_
a000a388 W _ZN17HAL_DblLinkedListI16HAL_CONTINUATIONE16ExtractFirstNodeEv
a000a2d0 W _ZN17HAL_DblLinkedListI16HAL_CONTINUATIONE16InsertBeforeNodeEPS0_S2_
a000a2bc W _ZN17HAL_DblLinkedListI16HAL_CONTINUATIONE6InsertEPS0_S2_S2_
a00046cc W _ZN17HAL_DblLinkedListI18BlockStorageDeviceE10InitializeEv
a00047d0 W _ZN17HAL_DblLinkedListI18BlockStorageDeviceE10LinkAtBackEPS0_
a0004770 W _ZN17HAL_DblLinkedListI18BlockStorageDeviceE16InsertBeforeNodeEPS0_S2_
a000475c W _ZN17HAL_DblLinkedListI18BlockStorageDeviceE6InsertEPS0_S2_S2_
a0005510 W _ZN17HAL_DblLinkedNodeI16HAL_CONTINUATIONE10InitializeEv
a000a2a4 W _ZN17HAL_DblLinkedNodeI16HAL_CONTINUATIONE14RemoveFromListEv
a000a178 W _ZN17HAL_DblLinkedNodeI16HAL_CONTINUATIONE6UnlinkEv
a0004668 W _ZN17HAL_DblLinkedNodeI18BlockStorageDeviceE10InitializeEv
a0004744 W _ZN17HAL_DblLinkedNodeI18BlockStorageDeviceE14RemoveFromListEv
a0000550 W _ZN18BlockStorageDevice13GetDeviceInfoEv
a00009d0 W _ZN18BlockStorageDevice13IsBlockErasedEjj
a00043d4 W _ZN18BlockStorageDevice16InitializeDeviceEv
a00045d0 W _ZN18BlockStorageDevice17FindForBlockUsageEjRjS0_S0_
a000461c W _ZN18BlockStorageDevice18FindNextUsageBlockEjRjS0_S0_
a0000600 W _ZN18BlockStorageDevice21FindRegionFromAddressEjRjS0_
a0000980 W _ZN18BlockStorageDevice4ReadEjjPh
a00009a4 W _ZN18BlockStorageDevice5WriteEjjPhj
a0004e78 T _ZN18BlockStorageStream10InitializeEj
a0004dd4 T _ZN18BlockStorageStream10InitializeEjP18BlockStorageDevice
a0004810 T _ZN18BlockStorageStream10NextStreamEv
a0004b24 T _ZN18BlockStorageStream10PrevStreamEv
a00043f8 T _ZN18BlockStorageStream14CurrentAddressEv
a00049f4 T _ZN18BlockStorageStream4ReadEPPhj
a0004ce4 T _ZN18BlockStorageStream4SeekEiNS_10SeekOriginE
a0005aec T _ZN18GPIO_BUTTON_Driver10InitializeEv
a000589c T _ZN18GPIO_BUTTON_Driver14CurrentHWStateEv
a00057b0 T _ZN18GPIO_BUTTON_Driver16HW_To_Hal_ButtonEj
a0005914 T _ZN18GPIO_BUTTON_Driver18GetNextStateChangeERjS0_
a00059a8 T _ZN18GPIO_BUTTON_Driver19RegisterStateChangeEjj
a0005aac T _ZN18GPIO_BUTTON_Driver3ISREjjPv
a000a7ec T _ZN18LPC24XX_SPI_Driver10InitializeEv
a00075d0 T _ZN18LPC24XX_VIC_Driver10InitializeEv
a0017530 D _ZN18LPC24XX_VIC_Driver10s_IsrTableE
a00077f4 T _ZN18LPC24XX_VIC_Driver11IRQ_HandlerEv
a0007640 T _ZN18LPC24XX_VIC_Driver14IRQToIRQVectorEj
a0007670 T _ZN18LPC24XX_VIC_Driver14STUB_ISRVectorEPv
a0007720 T _ZN18LPC24XX_VIC_Driver17ActivateInterruptEjjPFvPvES0_
a00076dc T _ZN18LPC24XX_VIC_Driver20InterruptEnableStateEj
a0016768 T _ZN19AT49BV_16_BS_Driver10EraseBlockEPvj
a001657c T _ZN19AT49BV_16_BS_Driver12ChipReadOnlyEPvjj
a001643c T _ZN19AT49BV_16_BS_Driver13Action_ReadIDEPvRjS1_
a001627c T _ZN19AT49BV_16_BS_Driver13GetDeviceInfoEPv
a0016528 T _ZN19AT49BV_16_BS_Driver13IsBlockErasedEPvjj
a0016ad4 T _ZN19AT49BV_16_BS_Driver13ReadProductIDEPvRjS1_
a0016294 T _ZN19AT49BV_16_BS_Driver13SetPowerStateEPvj
a0016b24 T _ZN19AT49BV_16_BS_Driver14ChipInitializeEPv
a00162b0 T _ZN19AT49BV_16_BS_Driver16Action_UnprotectEPvPVt
a00162b4 T _ZN19AT49BV_16_BS_Driver16Action_WriteWordEPvPVtt
a0016274 T _ZN19AT49BV_16_BS_Driver16ChipUnInitializeEPv
a0016284 T _ZN19AT49BV_16_BS_Driver17GetSectorMetadataEPvjP14SectorMetadata
a001628c T _ZN19AT49BV_16_BS_Driver17SetSectorMetadataEPvjP14SectorMetadata
a0016370 T _ZN19AT49BV_16_BS_Driver18Action_EraseSectorEPvPVt
a00162a4 T _ZN19AT49BV_16_BS_Driver18MaxBlockErase_uSecEPv
a0016298 T _ZN19AT49BV_16_BS_Driver19MaxSectorWrite_uSecEPv
a00164d8 T _ZN19AT49BV_16_BS_Driver4ReadEPvjjPh
a001681c T _ZN19AT49BV_16_BS_Driver5WriteEPvjjPhj
a0016734 T _ZN19AT49BV_16_BS_Driver6MemsetEPvjhj
a0016610 T _ZN19AT49BV_16_BS_Driver6WriteXEPvjjPhjj
a0005804 W _ZN19Hal_Queue_KnownSizeIN18GPIO_BUTTON_Driver19BUTTON_STATE_CHANGEELj64EE10InitializeEv
a0005858 W _ZN19Hal_Queue_KnownSizeIN18GPIO_BUTTON_Driver19BUTTON_STATE_CHANGEELj64EE3PopEv
a0005818 W _ZN19Hal_Queue_KnownSizeIN18GPIO_BUTTON_Driver19BUTTON_STATE_CHANGEELj64EE4PushEv
a0005ea0 T _ZN19LPC24XX_GPIO_Driver10DisablePinEj13GPIO_RESISTORj13GPIO_ALT_MODE
a00064a8 T _ZN19LPC24XX_GPIO_Driver10InitializeEv
a000609c T _ZN19LPC24XX_GPIO_Driver11GetPinStateEj
a0005e78 W _ZN19LPC24XX_GPIO_Driver11PinToPCBRegEj
a0005fc0 T _ZN19LPC24XX_GPIO_Driver11SetPinStateEjj
a0006240 T _ZN19LPC24XX_GPIO_Driver14EnableInputPinEjjPFvjjPvES0_13GPIO_INT_EDGE13GPIO_RESISTOR
a0005e4c W _ZN19LPC24XX_GPIO_Driver14PinToPCBRegBitEj
a0005e24 T _ZN19LPC24XX_GPIO_Driver14STUB_ISRVectorEjjPv
a0006120 T _ZN19LPC24XX_GPIO_Driver15EnableOutputPinEjj
a0005bf8 T _ZN19LPC24XX_GPIO_Driver18PIN_ISR_DESCRIPTOR4FireEPv
a0005c20 T _ZN19LPC24XX_GPIO_Driver8GPIO_ISREPv
a0005f70 W _ZN19LPC24XX_GPIO_Driver8PinToBitEj
a0005f98 W _ZN19LPC24XX_GPIO_Driver9PinToPortEj
a0006aac T _ZN19LPC24XX_TIME_Driver10InitializeEv
a0016114 T _ZN19LPC24XX_TIME_Driver10Sleep_uSecEj
a000665c T _ZN19LPC24XX_TIME_Driver12CounterValueEv
a000688c T _ZN19LPC24XX_TIME_Driver15SetCompareValueEy
a00160ec T _ZN19LPC24XX_TIME_Driver15Sleep_uSec_LoopEj
a00069b0 T _ZN19LPC24XX_TIME_Driver3ISREPv
a000a7c8 T _ZN20FileSystemVolumeList10InitializeEv
a000a7cc T _ZN20FileSystemVolumeList17InitializeVolumesEv
a0006b58 T _ZN20LPC24XX_TIMER_Driver10InitializeEjPFvPvES0_
a000684c W _ZN20LPC24XX_TIMER_Driver10SetCompareEjj
a001619c T _ZN20LPC24XX_TIMER_Driver11ReadCounterEj
a000680c W _ZN20LPC24XX_TIMER_Driver13DidCompareHitEj
a0006718 W _ZN20LPC24XX_TIMER_Driver14ForceInterruptEj
a00067cc W _ZN20LPC24XX_TIMER_Driver15ResetCompareHitEj
a0006a68 W _ZN20LPC24XX_TIMER_Driver22EnableCompareInterruptEj
a000721c T _ZN20LPC24XX_USART_Driver10InitializeEiiiiii
a0006fb0 T _ZN20LPC24XX_USART_Driver11ProtectPinsEij
a000713c T _ZN20LPC24XX_USART_Driver12UninitializeEi
a0006d9c T _ZN20LPC24XX_USART_Driver13TxBufferEmptyEi
a0007460 T _ZN20LPC24XX_USART_Driver15UART_IntHandlerEPv
a0006dc4 T _ZN20LPC24XX_USART_Driver19WriteCharToTxBufferEih
a0006d58 T _ZN20LPC24XX_USART_Driver20TxShiftRegisterEmptyEi
a0006e44 T _ZN20LPC24XX_USART_Driver27RxBufferFullInterruptEnableEij
a0006d08 T _ZN20LPC24XX_USART_Driver27TxBufferEmptyInterruptStateEi
a0006ecc T _ZN20LPC24XX_USART_Driver28TxBufferEmptyInterruptEnableEij
a00087a8 W _ZN21Hal_Queue_UnknownSizeIhE10InitializeEPhj
a00088d0 W _ZN21Hal_Queue_UnknownSizeIhE16NumberOfElementsEv
a0008844 W _ZN21Hal_Queue_UnknownSizeIhE3PopERj
a000875c W _ZN21Hal_Queue_UnknownSizeIhE3PopEv
a00087c4 W _ZN21Hal_Queue_UnknownSizeIhE4PushERj
a000891c W _ZN21Hal_Queue_UnknownSizeIhE4PushEv
a00088fc W _ZN21Hal_Queue_UnknownSizeIhE7IsEmptyEv
a000a868 T _ZN23LPC24XX_WATCHDOG_Driver7DisableEv
a000a898 T _ZN23LPC24XX_WATCHDOG_Driver8ResetCpuEv
a0002fd4 T _ZN26ConfigurationSectorManager17GetDeploymentKeysEj
a0002f6c T _ZN26ConfigurationSectorManager17LoadConfigurationEv
a0003278 T _ZN26ConfigurationSectorManager18UpdateSignatureKeyEjPh
a00030e8 T _ZN26ConfigurationSectorManager18WriteConfigurationEjPhjj
a00032a8 T _ZN26ConfigurationSectorManager19CleanBootLoaderFlagEv
a000301c T _ZN26ConfigurationSectorManager19VerifiySignatureKeyEjPh
a0002f54 T _ZN26ConfigurationSectorManager20GetTinyBooterVersionEv
a0002e94 T _ZN26ConfigurationSectorManager20IsBootLoaderRequiredERi
a000307c T _ZN26ConfigurationSectorManager21EraseWriteConfigBlockEPhj
a0002f14 T _ZN26ConfigurationSectorManager22CheckSignatureKeyEmptyEj
a00032e8 T _ZN26ConfigurationSectorManager25LocateConfigurationSectorEj
a0006ca8 W _ZN7LPC24XX4UARTEi
a000676c W _ZN7LPC24XX5TIMEREi
a00008cc W _ZN7Version4InitERS_tttt
a0000904 W _ZNK10BlockRange13GetBlockCountEv
a00043cc W _ZNK10BlockRange13GetBlockUsageEv
a00008e4 W _ZNK10BlockRange8IsConfigEv
a000759c W _ZNK12HAL_CALLBACK7ExecuteEv
a000459c T _ZNK15BlockDeviceInfo17FindForBlockUsageEjRjS0_S0_
a00044dc T _ZNK15BlockDeviceInfo18FindNextUsageBlockEjRjS0_S0_
a0004404 T _ZNK15BlockDeviceInfo21FindRegionFromAddressEjRjS0_
a0000914 W _ZNK15BlockRegionInfo12BlockAddressEj
a0000924 W _ZNK15BlockRegionInfo15OffsetFromBlockEj
a0000954 W _ZNK15BlockRegionInfo21BlockIndexFromAddressEj
a000a924 W _ZNK15BlockRegionInfo4SizeEv
a000a158 W _ZNK16HAL_CONTINUATION7ExecuteEv
a000a370 W _ZNK17HAL_DblLinkedListI16HAL_CONTINUATIONE14FirstValidNodeEv
a000a218 W _ZNK17HAL_DblLinkedListI16HAL_CONTINUATIONE4HeadEv
a000a1e4 W _ZNK17HAL_DblLinkedListI16HAL_CONTINUATIONE4TailEv
a000a1ec W _ZNK17HAL_DblLinkedListI16HAL_CONTINUATIONE7IsEmptyEv
a0004678 W _ZNK17HAL_DblLinkedListI18BlockStorageDeviceE14FirstValidNodeEv
a00046c8 W _ZNK17HAL_DblLinkedListI18BlockStorageDeviceE4HeadEv
a00046c0 W _ZNK17HAL_DblLinkedListI18BlockStorageDeviceE4TailEv
a00009f4 W _ZNK18BlockStorageDevice10EraseBlockEj
a0021dc4 b _ZZN10TimeDriver16DateTimeToStringERKxE8rgBuffer
a0021e44 b _ZZN10TimeDriver16TimeSpanToStringERKxE8rgBuffer
a00176f8 d _ZZN20LPC24XX_USART_Driver11ProtectPinsEijE18COM1_PinsProtected
a00176fc d _ZZN20LPC24XX_USART_Driver11ProtectPinsEijE18COM2_PinsProtected
a00176f0 d _ZZN20LPC24XX_USART_Driver11ProtectPinsEijE18COM3_PinsProtected
a00176f4 d _ZZN20LPC24XX_USART_Driver11ProtectPinsEijE18COM4_PinsProtected
a001480c T ___Unwind_ForcedUnwind
a00147a0 T ___Unwind_RaiseException
a00147c4 T ___Unwind_Resume
a00147e8 T ___Unwind_Resume_or_Rethrow
a00121dc T __adddf3
a0012b38 T __aeabi_cdcmpeq
a0012b38 T __aeabi_cdcmple
a0012b1c T __aeabi_cdrcmple
a0012bc8 T __aeabi_d2iz
a00121dc T __aeabi_dadd
a0012b50 T __aeabi_dcmpeq
a0012b98 T __aeabi_dcmpge
a0012bb0 T __aeabi_dcmpgt
a0012b80 T __aeabi_dcmple
a0012b68 T __aeabi_dcmplt
a001287c T __aeabi_ddiv
a00125ec T __aeabi_dmul
a00121d0 T __aeabi_drsub
a00121d8 T __aeabi_dsub
a0012538 T __aeabi_f2d
a0012510 T __aeabi_i2d
a00121cc T __aeabi_idiv0
a001258c T __aeabi_l2d
a00121cc T __aeabi_ldiv0
a00124ec T __aeabi_ui2d
a00120b8 T __aeabi_uidiv
a00121b4 T __aeabi_uidivmod
a0012578 T __aeabi_ul2d
a0012c24 T __aeabi_uldivmod
a0013dc0 T __aeabi_unwind_cpp_pr0
a0013dac W __aeabi_unwind_cpp_pr1
a0013d98 W __aeabi_unwind_cpp_pr2
a0010c70 T __any_on
a0010a68 T __b2d
a0015fc0 T __clz_tab
a0012a98 T __cmpdf2
a0010c14 T __copybits
         w __cxa_begin_cleanup
         w __cxa_call_unexpected
         w __cxa_type_match
a0010da4 T __d2b
a00121cc T __div0
a001287c T __divdf3
a0012cd0 T __divdi3
a0012a98 T __eqdf2
a0021f24 B __exidx_end
a0021f24 B __exidx_start
a0012538 T __extendsfdf2
a0012bc8 T __fixdfsi
a001258c T __floatdidf
a0012510 T __floatsidf
a0012578 T __floatundidf
a00124ec T __floatunsidf
a000f318 t __fp_lock
a000f34c T __fp_lock_all
a000f320 t __fp_unlock
a000f328 T __fp_unlock_all
a0012a88 T __gedf2
         w __gnu_Unwind_Find_exidx
a001407c T __gnu_Unwind_ForcedUnwind
a00141ec T __gnu_Unwind_RaiseException
a00146c0 T __gnu_Unwind_Restore_VFP
a00146d0 T __gnu_Unwind_Restore_VFP_D
a00146e0 T __gnu_Unwind_Restore_VFP_D_16_to_31
a0014778 T __gnu_Unwind_Restore_WMMXC
a00146f0 T __gnu_Unwind_Restore_WMMXD
a0014100 T __gnu_Unwind_Resume
a0014298 T __gnu_Unwind_Resume_or_Rethrow
a00146c8 T __gnu_Unwind_Save_VFP
a00146d8 T __gnu_Unwind_Save_VFP_D
a00146e8 T __gnu_Unwind_Save_VFP_D_16_to_31
a001478c T __gnu_Unwind_Save_WMMXC
a0014734 T __gnu_Unwind_Save_WMMXD
a0012c88 T __gnu_ldivmod_helper
a0012c40 T __gnu_uldivmod_helper
a001490c T __gnu_unwind_execute
a0014d18 T __gnu_unwind_frame
a0013960 t __gnu_unwind_pr_common
a0012a88 T __gtdf2
a00108b4 T __hi0bits
a0011300 T __i2b
a0011b94 T __isinfd
a0011bd0 T __isnand
a0017bbc D __lc_ctype
a0012a90 T __ledf2
a001090c T __lo0bits
a000fdd4 T __locale_charset
a001101c T __lshift
a0012a90 T __ltdf2
a0017bc8 D __malloc_av_
a0021ef4 B __malloc_current_mallinfo
a0010890 T __malloc_lock
a0021f1c B __malloc_max_sbrked_mem
a0021f20 B __malloc_max_total_mem
a0017fd0 D __malloc_sbrk_base
a0021ef0 B __malloc_top_pad
a0017fd4 D __malloc_trim_threshold
a0010894 T __malloc_unlock
a0017bb8 D __mb_cur_max
a00109a0 T __mcmp
a0010ed8 T __mdiff
a0015f70 T __mprec_bigtens
a0015e98 T __mprec_tens
a0015f98 T __mprec_tinytens
a00125ec T __muldf3
a0011324 T __multadd
a0011128 T __multiply
a0012a98 T __nedf2
a00113fc T __pow5mult
a0010b24 T __ratio
a00146a4 T __restore_core_regs
a00114f4 T __s2b
a0011c40 T __sclose
a000f398 T __sfmoreglue
a000f3ec T __sfp
a000f284 T __sfp_lock_acquire
a000f288 T __sfp_lock_release
a000f884 T __sfvwrite_r
a0014e5c T __sigtramp
a0014dd8 T __sigtramp_r
a000f294 T __sinit
a000f28c T __sinit_lock_acquire
a000f290 T __sinit_lock_release
a000fe7c T __smakebuf
a000af6c t __sprint_r
a0011d10 T __sread
a0011c60 T __sseek
a00121d8 T __subdf3
a0011cac T __swrite
a000d87c T __swsetup
a0013254 T __udivdi3
a00120b8 T __udivsi3
a0010a08 T __ulp
00000000 A __use_no_semihosting_swi
a0011e04 T _calloc_r
a000f388 T _cleanup
a000f370 T _cleanup_r
a001752c T _close
a0011ea4 T _close_r
a000dbb0 T _dtoa_r
a001752c T _exit
a0011ee0 T _fclose_r
a000f5c4 T _free_r
a001752c T _fstat
a0011ff0 T _fstat_r
a000fd4c T _fwalk
a000fcc0 T _fwalk_reent
a001752c T _getpid
a0014fa4 T _getpid_r
a0015d98 T _global_impure_ptr
a00177b0 D _impure_ptr
a0014dc8 T _init_signal
a0014d70 T _init_signal_r
a001752c T _kill
a0014fb4 T _kill_r
a000fde4 T _localeconv_r
a001752c T _lseek
a0012030 T _lseek_r
a000fff8 T _malloc_r
a000f4c8 T _malloc_trim_r
a0010ba8 T _mprec_log10
a0014e70 T _raise_r
a001752c T _read
a0012074 T _read_r
a00115d8 T _realloc_r
a001752c T _sbrk
a0011c00 T _sbrk_r
a000fe00 T _setlocale_r
a0014f30 T _signal_r
         U _start
a000afa4 T _vfprintf_r
a000ae70 T _vsnprintf_r
a000d25c T _wcrtomb_r
a000d2d4 T _wcsrtombs_r
a000d45c T _wctomb_r
a001752c T _write
a0011dc0 T _write_r
a0014d60 T abort
a0015d9e t blanks.3531
a001531c t c_CRCTable
a001517c t c_Debugger_app
a0015174 t c_Debugger_phy
a00150d8 t c_Lookup_Reply
a00150e4 t c_Lookup_Request
a0015e54 t charset
a0008260 T debug_printf
a0021f24 B errno
a0011fdc T fclose
a000f070 T fflush
a0021dac B g_AT49BV642DT_16_BS
a0017744 D g_AT49BV642DT_16_BS_Config
a0015bc4 t g_AT49BV642DT_16_BlkRegion
a0015bd8 t g_AT49BV642DT_16_BlockRange
a0017728 D g_AT49BV642DT_16_DeviceInfo
a0017778 D g_AT49BV_16_BS_DeviceTable
a0017fe0 B g_BitFieldManager
a001e074 b g_Boot_RAMConstants_CRC
a001801c B g_ConfigBuffer
a0018020 B g_ConfigBufferLength
a0016c20 T g_ConfigurationSector
a00192ec B g_Event_Callback
a00192f0 B g_Event_Callback_Arg
a00192f8 B g_Events_BoolTimerCompletion
a00176bc D g_GPIO_BUTTON_Config
a0019318 B g_GPIO_BUTTON_Driver
a0021da0 B g_HAL_Completion_List
a0021d94 B g_HAL_Continuation_List
a0019528 B g_LPC24XX_GPIO_Driver
a001bab0 B g_LPC24XX_PINSEL_Driver
a001e048 B g_LPC24XX_TIMER_Driver
a001e038 B g_LPC24XX_TIME_Driver
a0018024 B g_PrimaryConfigManager
a0021ec8 B g_TimeDriver
a0018950 B g_eng
a001e058 b g_s_FirstCluster
a0013dd4 t get_eit_entry
a00177b8 d impure_data
a001752c T isatty
a00080b8 T lcd_printf
a0015e58 t lconv
a000fdf0 T localeconv
a000008c t loop
a001077c T memchr
a000a9c4 T memcmp
a000aa5c T memcpy
a000ab00 T memmove
a000abf4 T memset
a0014830 t next_unwind_byte
a0015f60 t p05.2718
a0000538 T platform_prestackinit
a0003a88 T private_free
a0003aa4 T private_malloc
a000d990 t quorem
a0014f1c T raise
a00146a4 T restore_core_regs
a0014168 t restore_non_core_regs
a0013894 t search_EIT_table
a0013878 t selfrel_offset31
a000fe60 T setlocale
a0014f88 T signal
a000f228 t std
a000ac80 T strcmp
a0011d58 T strlen
a000ad68 T strncpy
a00148cc t unwind_UCB_from_context
a00140a4 t unwind_phase2
a0013f20 t unwind_phase2_forced
a000d230 T vfprintf
a000aee8 T vsnprintf
a000d2a8 T wcrtomb
a000d418 T wcsrtombs
a0015dae t zeroes.3532
a000a008 T ABORTD_Handler
a0009920 t ABORTD_Handler_Ptr
a00098e0 T ABORTD_SubHandler
a0000028 t ABORTD_SubHandler_Trampoline
a000a078 T ABORTP_Handler
a00098dc t ABORTP_Handler_Ptr
a000989c T ABORTP_SubHandler
a0000024 t ABORTP_SubHandler_Trampoline
a0021d90 B ABORT_recursion_counter
a0000000 T ARM_Vectors
00000000 a BUILD_RTM
00000000 a BUILD_RTM
00000000 a BUILD_RTM
00000000 a BUILD_RTM
a0008510 T BootEntry
a00000a0 t BootEntryPointer
00000001 a COMPILE_ARM
00000001 a COMPILE_ARM
00000001 a COMPILE_ARM
00000001 a COMPILE_ARM
a0000074 t ClearZI_ER_RAM
a0007dd8 T Crypto_AbortRSAOperation
a0007dc8 T Crypto_StartRSAOperationWithKey
a0007dd0 T Crypto_StepRSAOperation
a0000000 T EntryPoint
00000001 a HAL_REDUCESIZE
00000001 a HAL_REDUCESIZE
00000001 a HAL_REDUCESIZE
a00066c4 T HAL_Time_CurrentTicks
a0009924 T HARD_Breakpoint
a0009f64 T HARD_Breakpoint_Handler
a0009948 t HARD_Breakpoint_Handler_Ptr
a0015798 T HalName
a0017700 D HalSystemConfig
a001e088 B Hal_Usart_State
a0100000 R HeapBegin
a0200000 R HeapEnd
a001625c T IDelayLoop
a0016268 T IDelayLoop2
a001625c t IDelayLoop__Fi_b
a0007890 T IRQ_Handler
a001623c T IRQ_LOCK_Disable_asm
a001620c T IRQ_LOCK_ForceDisabled_asm
a0016224 T IRQ_LOCK_ForceEnabled_asm
a00161fc T IRQ_LOCK_GetState_asm
a00161e8 T IRQ_LOCK_Probe_asm
a00161d8 T IRQ_LOCK_Release_asm
a001624c T IRQ_LOCK_Restore_asm
a000002c T IRQ_SubHandler_Trampoline
00017530 A Image$$ER_FLASH$$Length
40000000 N Image$$ER_IRAM$$Base
00000000 A Image$$ER_IRAM$$Length
40000040 N Image$$ER_IRAM_TC$$Base
00000000 A Image$$ER_IRAM_TC$$Length
a0000000 T Image$$ER_RAM_RO$$Base
00017530 A Image$$ER_RAM_RO$$Length
a0017530 D Image$$ER_RAM_RW$$Base
00000aa8 A Image$$ER_RAM_RW$$Length
a0017fe0 B Image$$ER_RAM_RW$$ZI$$Base
00009f48 A Image$$ER_RAM_RW$$ZI$$Length
a001e080 B LOAD_IMAGE_CalcCRC
a001e07c B LOAD_IMAGE_Length
a001e078 B LOAD_IMAGE_Start
a0000000 T Load$$ER_FLASH$$Base
a0021f28 A Load$$ER_IRAM$$Base
40000040 A Load$$ER_IRAM_TC$$Base
a0000000 A Load$$ER_RAM_RO$$Base
a0017530 A Load$$ER_RAM_RW$$Base
a001e05c b LoggingCallback
a0000080 t NoClearZI_ER_RAM
00000001 a PLATFORM_ARM_LPC24XX
00000001 a PLATFORM_ARM_LPC24XX
00000001 a PLATFORM_ARM_LPC24XX
00000001 a PLATFORM_ARM_LPC24XX
00000001 a PLATFORM_ARM_plak1a_LPC2478
00000001 a PLATFORM_ARM_plak1a_LPC2478
00000001 a PLATFORM_ARM_plak1a_LPC2478
00000001 a PLATFORM_ARM_plak1a_LPC2478
000000d7 a PSR_MODE_ABORT
000000d7 a PSR_MODE_ABORT
000000d1 a PSR_MODE_FIQ
000000d1 a PSR_MODE_FIQ
000000d2 a PSR_MODE_IRQ
000000d2 a PSR_MODE_IRQ
000000d3 a PSR_MODE_SUPERVISOR
000000d3 a PSR_MODE_SUPERVISOR
000000df a PSR_MODE_SYSTEM
000000df a PSR_MODE_SYSTEM
000000db a PSR_MODE_UNDEF
000000db a PSR_MODE_UNDEF
000000d0 a PSR_MODE_USER
000000d0 a PSR_MODE_USER
a001ed90 B RxBuffer_Com
00000010 a STACK_MODE_ABORT
00000800 a STACK_MODE_IRQ
00000010 a STACK_MODE_UNDEF
a02ffff8 R StackBottom
a0300000 R StackTop
a00192e8 B SystemEvents
a0008040 T SystemState_ClearNoLock
a0008058 T SystemState_QueryNoLock
a0008028 T SystemState_SetNoLock
a001e060 B SystemStates
00000001 a TARGETLOCATION_FLASH
00000001 a TARGETLOCATION_FLASH
00000001 a TARGETLOCATION_FLASH
00000001 a TARGETLOCATION_FLASH
a00066e0 T Time_CurrentTicks
a001e190 B TxBuffer_Com
a000a0e8 T UNDEF_Handler
a0009898 t UNDEF_Handler_Ptr
a0009858 T UNDEF_SubHandler
a0000020 t UNDEF_SubHandler_Trampoline
a0000030 t VectorAreaSkip
a0010d10 T _Balloc
a0010898 T _Bfree
a0013938 T _Unwind_Complete
a001393c T _Unwind_DeleteException
a001480c T _Unwind_ForcedUnwind
a0013930 T _Unwind_GetCFA
a0014894 T _Unwind_GetDataRelBase
a001489c t _Unwind_GetGR
a00137cc t _Unwind_GetGR
a00148d4 T _Unwind_GetLanguageSpecificData
a00148f8 T _Unwind_GetRegionStart
a001488c T _Unwind_GetTextRelBase
a00147a0 T _Unwind_RaiseException
a00147c4 T _Unwind_Resume
a00147e8 T _Unwind_Resume_or_Rethrow
a0013848 t _Unwind_SetGR
a0013780 T _Unwind_VRS_Get
a00142c8 T _Unwind_VRS_Pop
a00137fc T _Unwind_VRS_Set
a001376c t _Unwind_decode_target2
a0005730 T _Z10Events_Setj
a000932c T _Z10USART_ReadiPcj
a0007ff4 T _Z10hal_printfPKcz
a00090e4 T _Z11USART_Flushi
a00095b8 T _Z11USART_WriteiPKcj
a0007f8c T _Z11hal_fprintfiPKcz
a0007fc0 T _Z11hal_vprintfPKcPv
a0000c04 t _Z12AccessMemoryjjPhi
a00056dc T _Z12Events_Clearj
a00078ac T _Z12HAL_AssertExv
a0005bd8 T _Z12HeapLocationRPhRj
a0007db8 T _Z12SOCKETS_ReadiPcj
a0007df0 T _Z12hal_strlen_sPKc
a0007e94 T _Z12hal_vfprintfiPKcPv
a000a7c0 T _Z13FS_AddVolumesv
a000a7c4 T _Z13FS_Initializev
a0007dc0 T _Z13SOCKETS_Flushi
a0007db0 T _Z13SOCKETS_WriteiPKcj
a0009820 T _Z13USB_ConfigureiPK25USB_DYNAMIC_CONFIGURATION
a0007e0c T _Z13hal_strncpy_sPcjPKcj
a0007e78 T _Z13hal_vsnprintfPcjPKcPv
a00079cc T _Z14CPU_Initializev
a0008338 T _Z14HAL_Initializev
a000a7dc T _Z14I2C_Initializev
a000a7e4 T _Z14Ink_Initializev
a0005798 T _Z14LCD_Initializev
a0009818 T _Z14USB_Initializei
a0009830 T _Z14USB_OpenStreamiii
a0000148 T _Z15Bootstrap_Delayi
a0003b04 T _Z15LZ77_DecompressPhiS_i
a000a8f8 T _Z15Time_Initializev
a0009838 T _Z15USB_CloseStreami
a00057a0 T _Z16LCD_Uninitializev
a000a8e4 T _Z16Piezo_Initializev
a00097ec T _Z16USART_Initializeiiiiii
a0009828 T _Z16USB_Uninitializei
a000a87c T _Z16Watchdog_Disablev
a0007de0 T _Z17CPU_DisableCachesv
a000520c T _Z17DebuggerPort_ReadiPcj
a0005520 T _Z17Events_Initializev
a00054fc T _Z17Events_MaskedReadj
a0000524 T _Z17Initialize_SyncOnv
a000a7b8 T _Z18Battery_Initializev
a00002d8 T _Z18BootstrapCode_Pinsv
a0005bbc T _Z18Buttons_Initializev
a000a84c T _Z18CPU_SPI_Initializev
a0006610 T _Z18CPU_TicksPerSecondv
a000a7b0 T _Z18Charger_Initializev
a000a8e8 T _Z18CustomHeapLocationRPhRj
a00051a0 T _Z18DebuggerPort_Flushi
a0005278 T _Z18DebuggerPort_WriteiPKcj
a000a7d4 T _Z18Gesture_Initializev
a0007da0 T _Z18SOCKETS_Initializei
a0003ac0 T _Z18SUPPORT_ComputeCRCPKvij
a0007b24 T _Z18SimpleHeap_ReleasePv
a0009670 T _Z18USART_Uninitializei
a00000b4 T _Z19BootstrapCode_Dummyv
a0005f54 T _Z19CPU_GPIO_DisablePinj13GPIO_RESISTORj13GPIO_ALT_MODE
a0006580 T _Z19CPU_GPIO_Initializev
a0007624 T _Z19CPU_INTC_Initializev
a0007de8 T _Z19CPU_USB_ProtectPinsij
a0006b38 T _Z19HAL_Time_Initializev
a0006a4c T _Z19HAL_Time_SetComparey
a000a8dc T _Z19PalEvent_Initializev
a0007a40 T _Z19SimpleHeap_Allocatej
a00080f4 T _Z19Verify_RAMConstantsPv
a00099ec T _Z20ABORT_HandlerDisplayPjjjjPKcj
a000a7a8 T _Z20BackLight_Initializev
a00001b0 T _Z20BootstrapCode_Clocksv
a0006104 T _Z20CPU_GPIO_GetPinStatej
a0006080 T _Z20CPU_GPIO_SetPinStatejj
a000742c T _Z20CPU_USART_Initializeiiiiii
a000081c W _Z20Events_WaitForEventsjj
a0005578 T _Z20Events_WaitForEventsjjj
a00082f0 W _Z20HAL_Init_Custom_Heapv
a0006b54 T _Z20HAL_Time_TicksToTimey
a0007da8 T _Z20SOCKETS_Uninitializei
a0009964 T _Z20monitor_debug_printfPKcz
a000371c T _Z21ApplicationEntryPointv
a00071e4 T _Z21CPU_USART_ProtectPinsij
a0008074 T _Z21Checksum_RAMConstantsv
a0007a08 T _Z21SimpleHeap_InitializePvj
a0000294 T _Z22BootstrapCode_Ext_SRAMv
a00058f8 T _Z22Buttons_CurrentHWStatev
a00071c8 T _Z22CPU_USART_Uninitializei
a00057ac T _Z22LCD_WriteFormattedCharh
a000a91c T _Z22TimeService_Initializev
a000994c T _Z22Watchdog_GetSetEnabledjj
a0009954 T _Z22Watchdog_GetSetTimeoutij
a000a768 T _Z23BlockStorage_AddDevicesv
a0000298 T _Z23BootstrapCode_Ext_Flashv
a0000334 T _Z23BootstrapCode_Ext_SDRAMv
a0006480 T _Z23CPU_GPIO_EnableInputPinjjPFvjjPvE13GPIO_INT_EDGE13GPIO_RESISTOR
a00160e0 T _Z23CPU_MicrosecondsToTicksj
a00160c0 T _Z23CPU_MicrosecondsToTicksy
a000661c T _Z23CPU_MillisecondsToTicksj
a0006e28 T _Z23CPU_USART_TxBufferEmptyi
a0005408 T _Z23DebuggerPort_Initializei
a0008dbc T _Z23USART_AddCharToRxBufferic
a0000844 T _Z23WaitForTinyBooterUploadRi
a000995c T _Z23Watchdog_GetSetBehavior17Watchdog_Behaviorj
a00057e8 T _Z24Buttons_HW_To_Hal_Buttonj
a000a934 T _Z24CPU_EBIU_Memory_ReadOnlyRK17CPU_MEMORY_CONFIGj
a0006224 T _Z24CPU_GPIO_EnableOutputPinjj
a0007de4 T _Z24CPU_GetUncachableAddressj
a00000b8 T _Z24PrepareImageRegions_IRAMv
a0000644 T _Z24TinyBooter_OnStateChange16_TinyBooterStatePvPS0_
a0005380 T _Z25DebuggerPort_Uninitializei
a0000594 T _Z25TinyBooter_GetReleaseInfoR13MfReleaseInfo
a000598c T _Z26Buttons_GetNextStateChangeRjS_
a000a930 T _Z26CPU_EBIU_ConfigMemoryBlockRK17CPU_MEMORY_CONFIG
a00077cc T _Z26CPU_INTC_ActivateInterruptjPFvPvES_
a0005a90 T _Z27Buttons_RegisterStateChangejj
a00065ec T _Z27HAL_Time_GetDriftParametersPiS_Px
a00066fc T _Z27HAL_Time_Sleep_MicroSecondsj
a0000100 T _Z27PrepareImageRegions_IRAM_TCv
a0000574 T _Z27Tinybooter_ProgramWordCheckv
a0000580 T _Z28Tinybooter_ImageIsCompressedv
a0008bc4 T _Z28USART_RemoveCharFromTxBufferiRc
a0007704 T _Z29CPU_INTC_InterruptEnableStatej
a0005138 T _Z29CPU_ProtectCommunicationGPIOsj
a0006e0c T _Z29CPU_USART_WriteCharToTxBufferih
a0006d80 T _Z30CPU_USART_TxShiftRegisterEmptyi
a0000588 T _Z31Tinybooter_CompressedImageStartRK22CompressedImage_Header
a0007458 T _Z33CPU_USART_TxHandshakeEnabledStatei
a0006eb0 T _Z37CPU_USART_RxBufferFullInterruptEnableij
a0006d3c T _Z37CPU_USART_TxBufferEmptyInterruptStatei
a0007200 T _Z38CPU_USART_TxBufferEmptyInterruptEnableij
a0000590 T _Z39Tinybooter_PrepareForDecompressedLaunchv
a0006640 T _Z44HAL_Time_Sleep_MicroSeconds_InterruptEnabledj
a0000460 T _Z7delayMsjj
a0007960 T _Z8CPU_Haltv
a00004d0 T _Z8GetFpclkj
a0000154 T _Z8GetFsclkv
a0009848 T _Z8USB_ReadiPcj
a00078f8 T _Z9CPU_Resetv
a00079e8 T _Z9CPU_Sleep11SLEEP_LEVELy
a00057a8 T _Z9LCD_Clearv
a0009850 T _Z9USB_Flushi
a0009840 T _Z9USB_WriteiPKcj
a000a93c T _ZN10TimeDriver10InitializeEv
a0021dc0 B _ZN10TimeDriver13m_initializedE
a0003cb0 T _ZN10WP_Message10InitializeEP13WP_Controller
a0003e0c T _ZN10WP_Message12PrepareReplyERK9WP_PacketjjPh
a0003dc4 T _ZN10WP_Message12VerifyHeaderEv
a0003d74 T _ZN10WP_Message13VerifyPayloadEv
a0003ed0 T _ZN10WP_Message14PrepareRequestEjjjPh
a0004008 T _ZN10WP_Message14ReplyBadPacketEj
a0003c40 T _ZN10WP_Message16PrepareReceptionEv
a0004084 T _ZN10WP_Message7ProcessEv
a0003c4c T _ZN10WP_Message7ReleaseEv
a0003444 T _ZN11CryptoState15VerifySignatureEj
a0003410 T _ZN11CryptoStateC1EjjPhjj
a00036f4 T _ZN11CryptoStateD1Ev
a000659c W _ZN11LPC24XX_VIC14ForceInterruptEj
a00076a8 W _ZN11LPC24XX_VIC18IsInterruptEnabledEj
a00075bc W _ZN11LPC24XX_VIC21RemoveForcedInterruptEj
a0007594 W _ZN12HAL_CALLBACK10InitializeEPFvPvES0_
a0007c30 T _ZN12SmartPtr_IRQ11WasDisabledEv
a0007cf8 T _ZN12SmartPtr_IRQ12ForceEnabledEPv
a0007d14 T _ZN12SmartPtr_IRQ13ForceDisabledEPv
a0007d4c T _ZN12SmartPtr_IRQ5ProbeEv
a0007cac T _ZN12SmartPtr_IRQ7AcquireEv
a0007c88 T _ZN12SmartPtr_IRQ7DisableEv
a0007d70 T _ZN12SmartPtr_IRQ7ReleaseEv
a0007c40 T _ZN12SmartPtr_IRQ7RestoreEv
a0007d30 T _ZN12SmartPtr_IRQ8GetStateEPv
a0007cd0 T _ZN12SmartPtr_IRQC1EPv
a0007c64 T _ZN12SmartPtr_IRQD1Ev
a000968c T _ZN12USART_Driver10InitializeEiiiiii
a00095d4 T _ZN12USART_Driver12UninitializeEi
a0008be0 T _ZN12USART_Driver17AddCharToRxBufferEic
a0008adc T _ZN12USART_Driver22RemoveCharFromTxBufferEiRc
a0009100 T _ZN12USART_Driver4ReadEiPcj
a0008dd8 T _ZN12USART_Driver5FlushEi
a0009348 T _ZN12USART_Driver5WriteEiPKcj
a0008a18 T _ZN12USART_Driver7SendXONEij
a0008a78 T _ZN12USART_Driver8SendXOFFEij
a0008960 T _ZN12USART_Driver8SetEventEij
a00065b0 W _ZN13LPC24XX_TIMER8getIntNoEi
a0006c6c W _ZN13LPC24XX_USART8getIntNoEi
a0002d4c T _ZN13Loader_Engine10InitializeEi
a0000a8c T _ZN13Loader_Engine11App_ReleaseEPvP10WP_Message
a000165c T _ZN13Loader_Engine12Monitor_PingEP10WP_Message
a0001860 T _ZN13Loader_Engine14Monitor_RebootEP10WP_Message
a00018c4 T _ZN13Loader_Engine14ProcessPayloadEP10WP_Message
a00016a8 T _ZN13Loader_Engine14ReplyToCommandEP10WP_Messagebb
a00012e8 T _ZN13Loader_Engine14ReplyToCommandEP10WP_MessagebbPvi
a0002468 T _ZN13Loader_Engine15Monitor_ExecuteEP10WP_Message
a00015e4 T _ZN13Loader_Engine15Monitor_OemInfoEP10WP_Message
a0001cec T _ZN13Loader_Engine15ProcessCommandsEv
a0000a38 T _ZN13Loader_Engine15SignedDataState10CheckDirtyEv
a00028e4 T _ZN13Loader_Engine15SignedDataState15VerifySignatureEPhjj
a0002328 T _ZN13Loader_Engine15SignedDataState19EraseMemoryAndResetEv
a0002000 T _ZN13Loader_Engine15SignedDataState20VerifyContiguousDataEjj
a0000a58 T _ZN13Loader_Engine15SignedDataState5ResetEv
a00019d8 T _ZN13Loader_Engine15TransmitMessageEPK10WP_Messageb
a0002df8 T _ZN13Loader_Engine16Phy_ReceiveBytesEPvRPhRj
a0002e58 T _ZN13Loader_Engine17App_ProcessHeaderEPvP10WP_Message
a00023a0 T _ZN13Loader_Engine17Monitor_MemoryMapEP10WP_Message
a0001998 T _ZN13Loader_Engine18App_ProcessPayloadEPvP10WP_Message
a0001bb0 T _ZN13Loader_Engine18EnumerateAndLaunchEv
a0002824 T _ZN13Loader_Engine18Monitor_ReadMemoryEP10WP_Message
a00026b0 T _ZN13Loader_Engine19Monitor_CheckMemoryEP10WP_Message
a00025f4 T _ZN13Loader_Engine19Monitor_EraseMemoryEP10WP_Message
a0002764 T _ZN13Loader_Engine19Monitor_WriteMemoryEP10WP_Message
a0001a64 T _ZN13Loader_Engine19Phy_TransmitMessageEPvPK10WP_Message
a0002aa8 T _ZN13Loader_Engine22Monitor_CheckSignatureEP10WP_Message
a00013a4 T _ZN13Loader_Engine22Monitor_FlashSectorMapEP10WP_Message
a00016d0 T _ZN13Loader_Engine26Monitor_SignatureKeyUpdateEP10WP_Message
a0001a84 T _ZN13Loader_Engine6LaunchEPFvvE
a000127c T _ZN13MfReleaseInfo4InitERS_ttttPKcj
a0003d00 T _ZN13WP_Controller10InitializeEPKcPK16WP_PhysicalLayerPK19WP_ApplicationLayerPv
a00043ac T _ZN13WP_Controller12AdvanceStateEv
a0003c8c T _ZN13WP_Controller19SendProtocolMessageERK10WP_Message
a0003f88 T _ZN13WP_Controller19SendProtocolMessageEjjjPh
a000a670 T _ZN14HAL_COMPLETION14DequeueAndExecEv
a000a280 T _ZN14HAL_COMPLETION14InitializeListEv
a0005554 W _ZN14HAL_COMPLETION16InitializeForISREPFvPvES0_
a000a5b4 T _ZN14HAL_COMPLETION17WaitForInterruptsEyjy
a000a50c T _ZN14HAL_COMPLETION5AbortEv
a000a424 T _ZN14HAL_COMPLETION7ExecuteEv
a000797c T _ZN14LPC24XX_Driver10InitializeEv
a0007914 T _ZN14LPC24XX_Driver4HaltEv
a00078dc T _ZN14LPC24XX_Driver5ResetEv
a00078bc T _ZN14LPC24XX_Driver8ShutdownEv
a0002128 W _ZN15BitFieldManager17SetDirtySectorBitEj
a0000a18 W _ZN15BitFieldManager20ResetBitFieldManagerEv
a00022c8 W _ZN15BitFieldManager24InvalidateSectorBitFieldEv
a0000ab4 W _ZN15BitFieldManager24ResetSignatureCheckArrayEv
a0002b3c W _ZN15BitFieldManager25EraseOnSignatureCheckFailEv
a0001d0c W _ZN15BitFieldManager27GetNextSectorSignatureCheckEP18BlockStorageDeviceR16SECTOR_BIT_FIELD
a000470c T _ZN16BlockStorageList10InitializeEv
a00192d4 B _ZN16BlockStorageList12s_deviceListE
a0004f34 T _ZN16BlockStorageList13GetNextDeviceER18BlockStorageDevice
a00192d0 B _ZN16BlockStorageList13s_InitializedE
a0004690 T _ZN16BlockStorageList14GetFirstDeviceEv
a00192e0 B _ZN16BlockStorageList15s_primaryDeviceE
a0004f68 T _ZN16BlockStorageList17InitializeDevicesEv
a000505c T _ZN16BlockStorageList28FindDeviceForPhysicalAddressEPP18BlockStorageDevicejRj
a0004e98 T _ZN16BlockStorageList9AddDeviceEP18BlockStorageDeviceP19IBlockStorageDevicePvj
a000a7a0 T _ZN16HAL_CONFIG_BLOCK11ApplyConfigEPKcPvj
a000a25c T _ZN16HAL_CONTINUATION14InitializeListEv
a000a1a0 T _ZN16HAL_CONTINUATION18InitializeCallbackEPFvPvES0_
a000a450 T _ZN16HAL_CONTINUATION19Dequeue_And_ExecuteEv
a000a3bc T _ZN16HAL_CONTINUATION7EnqueueEv
a000a21c W _ZN17HAL_DblLinkedListI16HAL_CONTINUATIONE10InitializeEv
a000a330 W _ZN17HAL_DblLinkedListI16HAL_CONTINUATIONE10LinkAtBackEPS0_
a000a388 W _ZN17HAL_DblLinkedListI16HAL_CONTINUATIONE16ExtractFirstNodeEv
a000a2d0 W _ZN17HAL_DblLinkedListI16HAL_CONTINUATIONE16InsertBeforeNodeEPS0_S2_
a000a2bc W _ZN17HAL_DblLinkedListI16HAL_CONTINUATIONE6InsertEPS0_S2_S2_
a00046cc W _ZN17HAL_DblLinkedListI18BlockStorageDeviceE10InitializeEv
a00047d0 W _ZN17HAL_DblLinkedListI18BlockStorageDeviceE10LinkAtBackEPS0_
a0004770 W _ZN17HAL_DblLinkedListI18BlockStorageDeviceE16InsertBeforeNodeEPS0_S2_
a000475c W _ZN17HAL_DblLinkedListI18BlockStorageDeviceE6InsertEPS0_S2_S2_
a0005510 W _ZN17HAL_DblLinkedNodeI16HAL_CONTINUATIONE10InitializeEv
a000a2a4 W _ZN17HAL_DblLinkedNodeI16HAL_CONTINUATIONE14RemoveFromListEv
a000a178 W _ZN17HAL_DblLinkedNodeI16HAL_CONTINUATIONE6UnlinkEv
a0004668 W _ZN17HAL_DblLinkedNodeI18BlockStorageDeviceE10InitializeEv
a0004744 W _ZN17HAL_DblLinkedNodeI18BlockStorageDeviceE14RemoveFromListEv
a0000550 W _ZN18BlockStorageDevice13GetDeviceInfoEv
a00009d0 W _ZN18BlockStorageDevice13IsBlockErasedEjj
a00043d4 W _ZN18BlockStorageDevice16InitializeDeviceEv
a00045d0 W _ZN18BlockStorageDevice17FindForBlockUsageEjRjS0_S0_
a000461c W _ZN18BlockStorageDevice18FindNextUsageBlockEjRjS0_S0_
a0000600 W _ZN18BlockStorageDevice21FindRegionFromAddressEjRjS0_
a0000980 W _ZN18BlockStorageDevice4ReadEjjPh
a00009a4 W _ZN18BlockStorageDevice5WriteEjjPhj
a0004e78 T _ZN18BlockStorageStream10InitializeEj
a0004dd4 T _ZN18BlockStorageStream10InitializeEjP18BlockStorageDevice
a0004810 T _ZN18BlockStorageStream10NextStreamEv
a0004b24 T _ZN18BlockStorageStream10PrevStreamEv
a00043f8 T _ZN18BlockStorageStream14CurrentAddressEv
a00049f4 T _ZN18BlockStorageStream4ReadEPPhj
a0004ce4 T _ZN18BlockStorageStream4SeekEiNS_10SeekOriginE
a0005aec T _ZN18GPIO_BUTTON_Driver10InitializeEv
a000589c T _ZN18GPIO_BUTTON_Driver14CurrentHWStateEv
a00057b0 T _ZN18GPIO_BUTTON_Driver16HW_To_Hal_ButtonEj
a0005914 T _ZN18GPIO_BUTTON_Driver18GetNextStateChangeERjS0_
a00059a8 T _ZN18GPIO_BUTTON_Driver19RegisterStateChangeEjj
a0005aac T _ZN18GPIO_BUTTON_Driver3ISREjjPv
a000a7ec T _ZN18LPC24XX_SPI_Driver10InitializeEv
a00075d0 T _ZN18LPC24XX_VIC_Driver10InitializeEv
a0017530 D _ZN18LPC24XX_VIC_Driver10s_IsrTableE
a00077f4 T _ZN18LPC24XX_VIC_Driver11IRQ_HandlerEv
a0007640 T _ZN18LPC24XX_VIC_Driver14IRQToIRQVectorEj
a0007670 T _ZN18LPC24XX_VIC_Driver14STUB_ISRVectorEPv
a0007720 T _ZN18LPC24XX_VIC_Driver17ActivateInterruptEjjPFvPvES0_
a00076dc T _ZN18LPC24XX_VIC_Driver20InterruptEnableStateEj
a0016768 T _ZN19AT49BV_16_BS_Driver10EraseBlockEPvj
a001657c T _ZN19AT49BV_16_BS_Driver12ChipReadOnlyEPvjj
a001643c T _ZN19AT49BV_16_BS_Driver13Action_ReadIDEPvRjS1_
a001627c T _ZN19AT49BV_16_BS_Driver13GetDeviceInfoEPv
a0016528 T _ZN19AT49BV_16_BS_Driver13IsBlockErasedEPvjj
a0016ad4 T _ZN19AT49BV_16_BS_Driver13ReadProductIDEPvRjS1_
a0016294 T _ZN19AT49BV_16_BS_Driver13SetPowerStateEPvj
a0016b24 T _ZN19AT49BV_16_BS_Driver14ChipInitializeEPv
a00162b0 T _ZN19AT49BV_16_BS_Driver16Action_UnprotectEPvPVt
a00162b4 T _ZN19AT49BV_16_BS_Driver16Action_WriteWordEPvPVtt
a0016274 T _ZN19AT49BV_16_BS_Driver16ChipUnInitializeEPv
a0016284 T _ZN19AT49BV_16_BS_Driver17GetSectorMetadataEPvjP14SectorMetadata
a001628c T _ZN19AT49BV_16_BS_Driver17SetSectorMetadataEPvjP14SectorMetadata
a0016370 T _ZN19AT49BV_16_BS_Driver18Action_EraseSectorEPvPVt
a00162a4 T _ZN19AT49BV_16_BS_Driver18MaxBlockErase_uSecEPv
a0016298 T _ZN19AT49BV_16_BS_Driver19MaxSectorWrite_uSecEPv
a00164d8 T _ZN19AT49BV_16_BS_Driver4ReadEPvjjPh
a001681c T _ZN19AT49BV_16_BS_Driver5WriteEPvjjPhj
a0016734 T _ZN19AT49BV_16_BS_Driver6MemsetEPvjhj
a0016610 T _ZN19AT49BV_16_BS_Driver6WriteXEPvjjPhjj
a0005804 W _ZN19Hal_Queue_KnownSizeIN18GPIO_BUTTON_Driver19BUTTON_STATE_CHANGEELj64EE10InitializeEv
a0005858 W _ZN19Hal_Queue_KnownSizeIN18GPIO_BUTTON_Driver19BUTTON_STATE_CHANGEELj64EE3PopEv
a0005818 W _ZN19Hal_Queue_KnownSizeIN18GPIO_BUTTON_Driver19BUTTON_STATE_CHANGEELj64EE4PushEv
a0005ea0 T _ZN19LPC24XX_GPIO_Driver10DisablePinEj13GPIO_RESISTORj13GPIO_ALT_MODE
a00064a8 T _ZN19LPC24XX_GPIO_Driver10InitializeEv
a000609c T _ZN19LPC24XX_GPIO_Driver11GetPinStateEj
a0005e78 W _ZN19LPC24XX_GPIO_Driver11PinToPCBRegEj
a0005fc0 T _ZN19LPC24XX_GPIO_Driver11SetPinStateEjj
a0006240 T _ZN19LPC24XX_GPIO_Driver14EnableInputPinEjjPFvjjPvES0_13GPIO_INT_EDGE13GPIO_RESISTOR
a0005e4c W _ZN19LPC24XX_GPIO_Driver14PinToPCBRegBitEj
a0005e24 T _ZN19LPC24XX_GPIO_Driver14STUB_ISRVectorEjjPv
a0006120 T _ZN19LPC24XX_GPIO_Driver15EnableOutputPinEjj
a0005bf8 T _ZN19LPC24XX_GPIO_Driver18PIN_ISR_DESCRIPTOR4FireEPv
a0005c20 T _ZN19LPC24XX_GPIO_Driver8GPIO_ISREPv
a0005f70 W _ZN19LPC24XX_GPIO_Driver8PinToBitEj
a0005f98 W _ZN19LPC24XX_GPIO_Driver9PinToPortEj
a0006aac T _ZN19LPC24XX_TIME_Driver10InitializeEv
a0016114 T _ZN19LPC24XX_TIME_Driver10Sleep_uSecEj
a000665c T _ZN19LPC24XX_TIME_Driver12CounterValueEv
a000688c T _ZN19LPC24XX_TIME_Driver15SetCompareValueEy
a00160ec T _ZN19LPC24XX_TIME_Driver15Sleep_uSec_LoopEj
a00069b0 T _ZN19LPC24XX_TIME_Driver3ISREPv
a000a7c8 T _ZN20FileSystemVolumeList10InitializeEv
a000a7cc T _ZN20FileSystemVolumeList17InitializeVolumesEv
a0006b58 T _ZN20LPC24XX_TIMER_Driver10InitializeEjPFvPvES0_
a000684c W _ZN20LPC24XX_TIMER_Driver10SetCompareEjj
a001619c T _ZN20LPC24XX_TIMER_Driver11ReadCounterEj
a000680c W _ZN20LPC24XX_TIMER_Driver13DidCompareHitEj
a0006718 W _ZN20LPC24XX_TIMER_Driver14ForceInterruptEj
a00067cc W _ZN20LPC24XX_TIMER_Driver15ResetCompareHitEj
a0006a68 W _ZN20LPC24XX_TIMER_Driver22EnableCompareInterruptEj
a000721c T _ZN20LPC24XX_USART_Driver10InitializeEiiiiii
a0006fb0 T _ZN20LPC24XX_USART_Driver11ProtectPinsEij
a000713c T _ZN20LPC24XX_USART_Driver12UninitializeEi
a0006d9c T _ZN20LPC24XX_USART_Driver13TxBufferEmptyEi
a0007460 T _ZN20LPC24XX_USART_Driver15UART_IntHandlerEPv
a0006dc4 T _ZN20LPC24XX_USART_Driver19WriteCharToTxBufferEih
a0006d58 T _ZN20LPC24XX_USART_Driver20TxShiftRegisterEmptyEi
a0006e44 T _ZN20LPC24XX_USART_Driver27RxBufferFullInterruptEnableEij
a0006d08 T _ZN20LPC24XX_USART_Driver27TxBufferEmptyInterruptStateEi
a0006ecc T _ZN20LPC24XX_USART_Driver28TxBufferEmptyInterruptEnableEij
a00087a8 W _ZN21Hal_Queue_UnknownSizeIhE10InitializeEPhj
a00088d0 W _ZN21Hal_Queue_UnknownSizeIhE16NumberOfElementsEv
a0008844 W _ZN21Hal_Queue_UnknownSizeIhE3PopERj
a000875c W _ZN21Hal_Queue_UnknownSizeIhE3PopEv
a00087c4 W _ZN21Hal_Queue_UnknownSizeIhE4PushERj
a000891c W _ZN21Hal_Queue_UnknownSizeIhE4PushEv
a00088fc W _ZN21Hal_Queue_UnknownSizeIhE7IsEmptyEv
a000a868 T _ZN23LPC24XX_WATCHDOG_Driver7DisableEv
a000a898 T _ZN23LPC24XX_WATCHDOG_Driver8ResetCpuEv
a0002fd4 T _ZN26ConfigurationSectorManager17GetDeploymentKeysEj
a0002f6c T _ZN26ConfigurationSectorManager17LoadConfigurationEv
a0003278 T _ZN26ConfigurationSectorManager18UpdateSignatureKeyEjPh
a00030e8 T _ZN26ConfigurationSectorManager18WriteConfigurationEjPhjj
a00032a8 T _ZN26ConfigurationSectorManager19CleanBootLoaderFlagEv
a000301c T _ZN26ConfigurationSectorManager19VerifiySignatureKeyEjPh
a0002f54 T _ZN26ConfigurationSectorManager20GetTinyBooterVersionEv
a0002e94 T _ZN26ConfigurationSectorManager20IsBootLoaderRequiredERi
a000307c T _ZN26ConfigurationSectorManager21EraseWriteConfigBlockEPhj
a0002f14 T _ZN26ConfigurationSectorManager22CheckSignatureKeyEmptyEj
a00032e8 T _ZN26ConfigurationSectorManager25LocateConfigurationSectorEj
a0006ca8 W _ZN7LPC24XX4UARTEi
a000676c W _ZN7LPC24XX5TIMEREi
a00008cc W _ZN7Version4InitERS_tttt
a0000904 W _ZNK10BlockRange13GetBlockCountEv
a00043cc W _ZNK10BlockRange13GetBlockUsageEv
a00008e4 W _ZNK10BlockRange8IsConfigEv
a000759c W _ZNK12HAL_CALLBACK7ExecuteEv
a000459c T _ZNK15BlockDeviceInfo17FindForBlockUsageEjRjS0_S0_
a00044dc T _ZNK15BlockDeviceInfo18FindNextUsageBlockEjRjS0_S0_
a0004404 T _ZNK15BlockDeviceInfo21FindRegionFromAddressEjRjS0_
a0000914 W _ZNK15BlockRegionInfo12BlockAddressEj
a0000924 W _ZNK15BlockRegionInfo15OffsetFromBlockEj
a0000954 W _ZNK15BlockRegionInfo21BlockIndexFromAddressEj
a000a924 W _ZNK15BlockRegionInfo4SizeEv
a000a158 W _ZNK16HAL_CONTINUATION7ExecuteEv
a000a370 W _ZNK17HAL_DblLinkedListI16HAL_CONTINUATIONE14FirstValidNodeEv
a000a218 W _ZNK17HAL_DblLinkedListI16HAL_CONTINUATIONE4HeadEv
a000a1e4 W _ZNK17HAL_DblLinkedListI16HAL_CONTINUATIONE4TailEv
a000a1ec W _ZNK17HAL_DblLinkedListI16HAL_CONTINUATIONE7IsEmptyEv
a0004678 W _ZNK17HAL_DblLinkedListI18BlockStorageDeviceE14FirstValidNodeEv
a00046c8 W _ZNK17HAL_DblLinkedListI18BlockStorageDeviceE4HeadEv
a00046c0 W _ZNK17HAL_DblLinkedListI18BlockStorageDeviceE4TailEv
a00009f4 W _ZNK18BlockStorageDevice10EraseBlockEj
a0021dc4 b _ZZN10TimeDriver16DateTimeToStringERKxE8rgBuffer
a0021e44 b _ZZN10TimeDriver16TimeSpanToStringERKxE8rgBuffer
a00176f8 d _ZZN20LPC24XX_USART_Driver11ProtectPinsEijE18COM1_PinsProtected
a00176fc d _ZZN20LPC24XX_USART_Driver11ProtectPinsEijE18COM2_PinsProtected
a00176f0 d _ZZN20LPC24XX_USART_Driver11ProtectPinsEijE18COM3_PinsProtected
a00176f4 d _ZZN20LPC24XX_USART_Driver11ProtectPinsEijE18COM4_PinsProtected
a001480c T ___Unwind_ForcedUnwind
a00147a0 T ___Unwind_RaiseException
a00147c4 T ___Unwind_Resume
a00147e8 T ___Unwind_Resume_or_Rethrow
a00121dc T __adddf3
a0012b38 T __aeabi_cdcmpeq
a0012b38 T __aeabi_cdcmple
a0012b1c T __aeabi_cdrcmple
a0012bc8 T __aeabi_d2iz
a00121dc T __aeabi_dadd
a0012b50 T __aeabi_dcmpeq
a0012b98 T __aeabi_dcmpge
a0012bb0 T __aeabi_dcmpgt
a0012b80 T __aeabi_dcmple
a0012b68 T __aeabi_dcmplt
a001287c T __aeabi_ddiv
a00125ec T __aeabi_dmul
a00121d0 T __aeabi_drsub
a00121d8 T __aeabi_dsub
a0012538 T __aeabi_f2d
a0012510 T __aeabi_i2d
a00121cc T __aeabi_idiv0
a001258c T __aeabi_l2d
a00121cc T __aeabi_ldiv0
a00124ec T __aeabi_ui2d
a00120b8 T __aeabi_uidiv
a00121b4 T __aeabi_uidivmod
a0012578 T __aeabi_ul2d
a0012c24 T __aeabi_uldivmod
a0013dc0 T __aeabi_unwind_cpp_pr0
a0013dac W __aeabi_unwind_cpp_pr1
a0013d98 W __aeabi_unwind_cpp_pr2
a0010c70 T __any_on
a0010a68 T __b2d
a0015fc0 T __clz_tab
a0012a98 T __cmpdf2
a0010c14 T __copybits
         w __cxa_begin_cleanup
         w __cxa_call_unexpected
         w __cxa_type_match
a0010da4 T __d2b
a00121cc T __div0
a001287c T __divdf3
a0012cd0 T __divdi3
a0012a98 T __eqdf2
a0021f24 B __exidx_end
a0021f24 B __exidx_start
a0012538 T __extendsfdf2
a0012bc8 T __fixdfsi
a001258c T __floatdidf
a0012510 T __floatsidf
a0012578 T __floatundidf
a00124ec T __floatunsidf
a000f318 t __fp_lock
a000f34c T __fp_lock_all
a000f320 t __fp_unlock
a000f328 T __fp_unlock_all
a0012a88 T __gedf2
         w __gnu_Unwind_Find_exidx
a001407c T __gnu_Unwind_ForcedUnwind
a00141ec T __gnu_Unwind_RaiseException
a00146c0 T __gnu_Unwind_Restore_VFP
a00146d0 T __gnu_Unwind_Restore_VFP_D
a00146e0 T __gnu_Unwind_Restore_VFP_D_16_to_31
a0014778 T __gnu_Unwind_Restore_WMMXC
a00146f0 T __gnu_Unwind_Restore_WMMXD
a0014100 T __gnu_Unwind_Resume
a0014298 T __gnu_Unwind_Resume_or_Rethrow
a00146c8 T __gnu_Unwind_Save_VFP
a00146d8 T __gnu_Unwind_Save_VFP_D
a00146e8 T __gnu_Unwind_Save_VFP_D_16_to_31
a001478c T __gnu_Unwind_Save_WMMXC
a0014734 T __gnu_Unwind_Save_WMMXD
a0012c88 T __gnu_ldivmod_helper
a0012c40 T __gnu_uldivmod_helper
a001490c T __gnu_unwind_execute
a0014d18 T __gnu_unwind_frame
a0013960 t __gnu_unwind_pr_common
a0012a88 T __gtdf2
a00108b4 T __hi0bits
a0011300 T __i2b
a0011b94 T __isinfd
a0011bd0 T __isnand
a0017bbc D __lc_ctype
a0012a90 T __ledf2
a001090c T __lo0bits
a000fdd4 T __locale_charset
a001101c T __lshift
a0012a90 T __ltdf2
a0017bc8 D __malloc_av_
a0021ef4 B __malloc_current_mallinfo
a0010890 T __malloc_lock
a0021f1c B __malloc_max_sbrked_mem
a0021f20 B __malloc_max_total_mem
a0017fd0 D __malloc_sbrk_base
a0021ef0 B __malloc_top_pad
a0017fd4 D __malloc_trim_threshold
a0010894 T __malloc_unlock
a0017bb8 D __mb_cur_max
a00109a0 T __mcmp
a0010ed8 T __mdiff
a0015f70 T __mprec_bigtens
a0015e98 T __mprec_tens
a0015f98 T __mprec_tinytens
a00125ec T __muldf3
a0011324 T __multadd
a0011128 T __multiply
a0012a98 T __nedf2
a00113fc T __pow5mult
a0010b24 T __ratio
a00146a4 T __restore_core_regs
a00114f4 T __s2b
a0011c40 T __sclose
a000f398 T __sfmoreglue
a000f3ec T __sfp
a000f284 T __sfp_lock_acquire
a000f288 T __sfp_lock_release
a000f884 T __sfvwrite_r
a0014e5c T __sigtramp
a0014dd8 T __sigtramp_r
a000f294 T __sinit
a000f28c T __sinit_lock_acquire
a000f290 T __sinit_lock_release
a000fe7c T __smakebuf
a000af6c t __sprint_r
a0011d10 T __sread
a0011c60 T __sseek
a00121d8 T __subdf3
a0011cac T __swrite
a000d87c T __swsetup
a0013254 T __udivdi3
a00120b8 T __udivsi3
a0010a08 T __ulp
00000000 A __use_no_semihosting_swi
a0011e04 T _calloc_r
a000f388 T _cleanup
a000f370 T _cleanup_r
a001752c T _close
a0011ea4 T _close_r
a000dbb0 T _dtoa_r
a001752c T _exit
a0011ee0 T _fclose_r
a000f5c4 T _free_r
a001752c T _fstat
a0011ff0 T _fstat_r
a000fd4c T _fwalk
a000fcc0 T _fwalk_reent
a001752c T _getpid
a0014fa4 T _getpid_r
a0015d98 T _global_impure_ptr
a00177b0 D _impure_ptr
a0014dc8 T _init_signal
a0014d70 T _init_signal_r
a001752c T _kill
a0014fb4 T _kill_r
a000fde4 T _localeconv_r
a001752c T _lseek
a0012030 T _lseek_r
a000fff8 T _malloc_r
a000f4c8 T _malloc_trim_r
a0010ba8 T _mprec_log10
a0014e70 T _raise_r
a001752c T _read
a0012074 T _read_r
a00115d8 T _realloc_r
a001752c T _sbrk
a0011c00 T _sbrk_r
a000fe00 T _setlocale_r
a0014f30 T _signal_r
         U _start
a000afa4 T _vfprintf_r
a000ae70 T _vsnprintf_r
a000d25c T _wcrtomb_r
a000d2d4 T _wcsrtombs_r
a000d45c T _wctomb_r
a001752c T _write
a0011dc0 T _write_r
a0014d60 T abort
a0015d9e t blanks.3531
a001531c t c_CRCTable
a001517c t c_Debugger_app
a0015174 t c_Debugger_phy
a00150d8 t c_Lookup_Reply
a00150e4 t c_Lookup_Request
a0015e54 t charset
a0008260 T debug_printf
a0021f24 B errno
a0011fdc T fclose
a000f070 T fflush
a0021dac B g_AT49BV642DT_16_BS
a0017744 D g_AT49BV642DT_16_BS_Config
a0015bc4 t g_AT49BV642DT_16_BlkRegion
a0015bd8 t g_AT49BV642DT_16_BlockRange
a0017728 D g_AT49BV642DT_16_DeviceInfo
a0017778 D g_AT49BV_16_BS_DeviceTable
a0017fe0 B g_BitFieldManager
a001e074 b g_Boot_RAMConstants_CRC
a001801c B g_ConfigBuffer
a0018020 B g_ConfigBufferLength
a0016c20 T g_ConfigurationSector
a00192ec B g_Event_Callback
a00192f0 B g_Event_Callback_Arg
a00192f8 B g_Events_BoolTimerCompletion
a00176bc D g_GPIO_BUTTON_Config
a0019318 B g_GPIO_BUTTON_Driver
a0021da0 B g_HAL_Completion_List
a0021d94 B g_HAL_Continuation_List
a0019528 B g_LPC24XX_GPIO_Driver
a001bab0 B g_LPC24XX_PINSEL_Driver
a001e048 B g_LPC24XX_TIMER_Driver
a001e038 B g_LPC24XX_TIME_Driver
a0018024 B g_PrimaryConfigManager
a0021ec8 B g_TimeDriver
a0018950 B g_eng
a001e058 b g_s_FirstCluster
a0013dd4 t get_eit_entry
a00177b8 d impure_data
a001752c T isatty
a00080b8 T lcd_printf
a0015e58 t lconv
a000fdf0 T localeconv
a000008c t loop
a001077c T memchr
a000a9c4 T memcmp
a000aa5c T memcpy
a000ab00 T memmove
a000abf4 T memset
a0014830 t next_unwind_byte
a0015f60 t p05.2718
a0000538 T platform_prestackinit
a0003a88 T private_free
a0003aa4 T private_malloc
a000d990 t quorem
a0014f1c T raise
a00146a4 T restore_core_regs
a0014168 t restore_non_core_regs
a0013894 t search_EIT_table
a0013878 t selfrel_offset31
a000fe60 T setlocale
a0014f88 T signal
a000f228 t std
a000ac80 T strcmp
a0011d58 T strlen
a000ad68 T strncpy
a00148cc t unwind_UCB_from_context
a00140a4 t unwind_phase2
a0013f20 t unwind_phase2_forced
a000d230 T vfprintf
a000aee8 T vsnprintf
a000d2a8 T wcrtomb
a000d418 T wcsrtombs
a0015dae t zeroes.3532
a000a008 T ABORTD_Handler
a0009920 t ABORTD_Handler_Ptr
a00098e0 T ABORTD_SubHandler
a0000028 t ABORTD_SubHandler_Trampoline
a000a078 T ABORTP_Handler
a00098dc t ABORTP_Handler_Ptr
a000989c T ABORTP_SubHandler
a0000024 t ABORTP_SubHandler_Trampoline
a0021d90 B ABORT_recursion_counter
a0000000 T ARM_Vectors
00000000 a BUILD_RTM
00000000 a BUILD_RTM
00000000 a BUILD_RTM
00000000 a BUILD_RTM
a0008510 T BootEntry
a00000a0 t BootEntryPointer
00000001 a COMPILE_ARM
00000001 a COMPILE_ARM
00000001 a COMPILE_ARM
00000001 a COMPILE_ARM
a0000074 t ClearZI_ER_RAM
a0007dd8 T Crypto_AbortRSAOperation
a0007dc8 T Crypto_StartRSAOperationWithKey
a0007dd0 T Crypto_StepRSAOperation
a0000000 T EntryPoint
00000001 a HAL_REDUCESIZE
00000001 a HAL_REDUCESIZE
00000001 a HAL_REDUCESIZE
a00066c4 T HAL_Time_CurrentTicks
a0009924 T HARD_Breakpoint
a0009f64 T HARD_Breakpoint_Handler
a0009948 t HARD_Breakpoint_Handler_Ptr
a0015798 T HalName
a0017700 D HalSystemConfig
a001e088 B Hal_Usart_State
a0100000 R HeapBegin
a0200000 R HeapEnd
a001625c T IDelayLoop
a0016268 T IDelayLoop2
a001625c t IDelayLoop__Fi_b
a0007890 T IRQ_Handler
a001623c T IRQ_LOCK_Disable_asm
a001620c T IRQ_LOCK_ForceDisabled_asm
a0016224 T IRQ_LOCK_ForceEnabled_asm
a00161fc T IRQ_LOCK_GetState_asm
a00161e8 T IRQ_LOCK_Probe_asm
a00161d8 T IRQ_LOCK_Release_asm
a001624c T IRQ_LOCK_Restore_asm
a000002c T IRQ_SubHandler_Trampoline
00017530 A Image$$ER_FLASH$$Length
40000000 N Image$$ER_IRAM$$Base
00000000 A Image$$ER_IRAM$$Length
40000040 N Image$$ER_IRAM_TC$$Base
00000000 A Image$$ER_IRAM_TC$$Length
a0000000 T Image$$ER_RAM_RO$$Base
00017530 A Image$$ER_RAM_RO$$Length
a0017530 D Image$$ER_RAM_RW$$Base
00000aa8 A Image$$ER_RAM_RW$$Length
a0017fe0 B Image$$ER_RAM_RW$$ZI$$Base
00009f48 A Image$$ER_RAM_RW$$ZI$$Length
a001e080 B LOAD_IMAGE_CalcCRC
a001e07c B LOAD_IMAGE_Length
a001e078 B LOAD_IMAGE_Start
a0000000 T Load$$ER_FLASH$$Base
a0021f28 A Load$$ER_IRAM$$Base
40000040 A Load$$ER_IRAM_TC$$Base
a0000000 A Load$$ER_RAM_RO$$Base
a0017530 A Load$$ER_RAM_RW$$Base
a001e05c b LoggingCallback
a0000080 t NoClearZI_ER_RAM
00000001 a PLATFORM_ARM_LPC24XX
00000001 a PLATFORM_ARM_LPC24XX
00000001 a PLATFORM_ARM_LPC24XX
00000001 a PLATFORM_ARM_LPC24XX
00000001 a PLATFORM_ARM_plak1a_LPC2478
00000001 a PLATFORM_ARM_plak1a_LPC2478
00000001 a PLATFORM_ARM_plak1a_LPC2478
00000001 a PLATFORM_ARM_plak1a_LPC2478
000000d7 a PSR_MODE_ABORT
000000d7 a PSR_MODE_ABORT
000000d1 a PSR_MODE_FIQ
000000d1 a PSR_MODE_FIQ
000000d2 a PSR_MODE_IRQ
000000d2 a PSR_MODE_IRQ
000000d3 a PSR_MODE_SUPERVISOR
000000d3 a PSR_MODE_SUPERVISOR
000000df a PSR_MODE_SYSTEM
000000df a PSR_MODE_SYSTEM
000000db a PSR_MODE_UNDEF
000000db a PSR_MODE_UNDEF
000000d0 a PSR_MODE_USER
000000d0 a PSR_MODE_USER
a001ed90 B RxBuffer_Com
00000010 a STACK_MODE_ABORT
00000800 a STACK_MODE_IRQ
00000010 a STACK_MODE_UNDEF
a02ffff8 R StackBottom
a0300000 R StackTop
a00192e8 B SystemEvents
a0008040 T SystemState_ClearNoLock
a0008058 T SystemState_QueryNoLock
a0008028 T SystemState_SetNoLock
a001e060 B SystemStates
00000001 a TARGETLOCATION_FLASH
00000001 a TARGETLOCATION_FLASH
00000001 a TARGETLOCATION_FLASH
00000001 a TARGETLOCATION_FLASH
a00066e0 T Time_CurrentTicks
a001e190 B TxBuffer_Com
a000a0e8 T UNDEF_Handler
a0009898 t UNDEF_Handler_Ptr
a0009858 T UNDEF_SubHandler
a0000020 t UNDEF_SubHandler_Trampoline
a0000030 t VectorAreaSkip
a0010d10 T _Balloc
a0010898 T _Bfree
a0013938 T _Unwind_Complete
a001393c T _Unwind_DeleteException
a001480c T _Unwind_ForcedUnwind
a0013930 T _Unwind_GetCFA
a0014894 T _Unwind_GetDataRelBase
a001489c t _Unwind_GetGR
a00137cc t _Unwind_GetGR
a00148d4 T _Unwind_GetLanguageSpecificData
a00148f8 T _Unwind_GetRegionStart
a001488c T _Unwind_GetTextRelBase
a00147a0 T _Unwind_RaiseException
a00147c4 T _Unwind_Resume
a00147e8 T _Unwind_Resume_or_Rethrow
a0013848 t _Unwind_SetGR
a0013780 T _Unwind_VRS_Get
a00142c8 T _Unwind_VRS_Pop
a00137fc T _Unwind_VRS_Set
a001376c t _Unwind_decode_target2
a0005730 T _Z10Events_Setj
a000932c T _Z10USART_ReadiPcj
a0007ff4 T _Z10hal_printfPKcz
a00090e4 T _Z11USART_Flushi
a00095b8 T _Z11USART_WriteiPKcj
a0007f8c T _Z11hal_fprintfiPKcz
a0007fc0 T _Z11hal_vprintfPKcPv
a0000c04 t _Z12AccessMemoryjjPhi
a00056dc T _Z12Events_Clearj
a00078ac T _Z12HAL_AssertExv
a0005bd8 T _Z12HeapLocationRPhRj
a0007db8 T _Z12SOCKETS_ReadiPcj
a0007df0 T _Z12hal_strlen_sPKc
a0007e94 T _Z12hal_vfprintfiPKcPv
a000a7c0 T _Z13FS_AddVolumesv
a000a7c4 T _Z13FS_Initializev
a0007dc0 T _Z13SOCKETS_Flushi
a0007db0 T _Z13SOCKETS_WriteiPKcj
a0009820 T _Z13USB_ConfigureiPK25USB_DYNAMIC_CONFIGURATION
a0007e0c T _Z13hal_strncpy_sPcjPKcj
a0007e78 T _Z13hal_vsnprintfPcjPKcPv
a00079cc T _Z14CPU_Initializev
a0008338 T _Z14HAL_Initializev
a000a7dc T _Z14I2C_Initializev
a000a7e4 T _Z14Ink_Initializev
a0005798 T _Z14LCD_Initializev
a0009818 T _Z14USB_Initializei
a0009830 T _Z14USB_OpenStreamiii
a0000148 T _Z15Bootstrap_Delayi
a0003b04 T _Z15LZ77_DecompressPhiS_i
a000a8f8 T _Z15Time_Initializev
a0009838 T _Z15USB_CloseStreami
a00057a0 T _Z16LCD_Uninitializev
a000a8e4 T _Z16Piezo_Initializev
a00097ec T _Z16USART_Initializeiiiiii
a0009828 T _Z16USB_Uninitializei
a000a87c T _Z16Watchdog_Disablev
a0007de0 T _Z17CPU_DisableCachesv
a000520c T _Z17DebuggerPort_ReadiPcj
a0005520 T _Z17Events_Initializev
a00054fc T _Z17Events_MaskedReadj
a0000524 T _Z17Initialize_SyncOnv
a000a7b8 T _Z18Battery_Initializev
a00002d8 T _Z18BootstrapCode_Pinsv
a0005bbc T _Z18Buttons_Initializev
a000a84c T _Z18CPU_SPI_Initializev
a0006610 T _Z18CPU_TicksPerSecondv
a000a7b0 T _Z18Charger_Initializev
a000a8e8 T _Z18CustomHeapLocationRPhRj
a00051a0 T _Z18DebuggerPort_Flushi
a0005278 T _Z18DebuggerPort_WriteiPKcj
a000a7d4 T _Z18Gesture_Initializev
a0007da0 T _Z18SOCKETS_Initializei
a0003ac0 T _Z18SUPPORT_ComputeCRCPKvij
a0007b24 T _Z18SimpleHeap_ReleasePv
a0009670 T _Z18USART_Uninitializei
a00000b4 T _Z19BootstrapCode_Dummyv
a0005f54 T _Z19CPU_GPIO_DisablePinj13GPIO_RESISTORj13GPIO_ALT_MODE
a0006580 T _Z19CPU_GPIO_Initializev
a0007624 T _Z19CPU_INTC_Initializev
a0007de8 T _Z19CPU_USB_ProtectPinsij
a0006b38 T _Z19HAL_Time_Initializev
a0006a4c T _Z19HAL_Time_SetComparey
a000a8dc T _Z19PalEvent_Initializev
a0007a40 T _Z19SimpleHeap_Allocatej
a00080f4 T _Z19Verify_RAMConstantsPv
a00099ec T _Z20ABORT_HandlerDisplayPjjjjPKcj
a000a7a8 T _Z20BackLight_Initializev
a00001b0 T _Z20BootstrapCode_Clocksv
a0006104 T _Z20CPU_GPIO_GetPinStatej
a0006080 T _Z20CPU_GPIO_SetPinStatejj
a000742c T _Z20CPU_USART_Initializeiiiiii
a000081c W _Z20Events_WaitForEventsjj
a0005578 T _Z20Events_WaitForEventsjjj
a00082f0 W _Z20HAL_Init_Custom_Heapv
a0006b54 T _Z20HAL_Time_TicksToTimey
a0007da8 T _Z20SOCKETS_Uninitializei
a0009964 T _Z20monitor_debug_printfPKcz
a000371c T _Z21ApplicationEntryPointv
a00071e4 T _Z21CPU_USART_ProtectPinsij
a0008074 T _Z21Checksum_RAMConstantsv
a0007a08 T _Z21SimpleHeap_InitializePvj
a0000294 T _Z22BootstrapCode_Ext_SRAMv
a00058f8 T _Z22Buttons_CurrentHWStatev
a00071c8 T _Z22CPU_USART_Uninitializei
a00057ac T _Z22LCD_WriteFormattedCharh
a000a91c T _Z22TimeService_Initializev
a000994c T _Z22Watchdog_GetSetEnabledjj
a0009954 T _Z22Watchdog_GetSetTimeoutij
a000a768 T _Z23BlockStorage_AddDevicesv
a0000298 T _Z23BootstrapCode_Ext_Flashv
a0000334 T _Z23BootstrapCode_Ext_SDRAMv
a0006480 T _Z23CPU_GPIO_EnableInputPinjjPFvjjPvE13GPIO_INT_EDGE13GPIO_RESISTOR
a00160e0 T _Z23CPU_MicrosecondsToTicksj
a00160c0 T _Z23CPU_MicrosecondsToTicksy
a000661c T _Z23CPU_MillisecondsToTicksj
a0006e28 T _Z23CPU_USART_TxBufferEmptyi
a0005408 T _Z23DebuggerPort_Initializei
a0008dbc T _Z23USART_AddCharToRxBufferic
a0000844 T _Z23WaitForTinyBooterUploadRi
a000995c T _Z23Watchdog_GetSetBehavior17Watchdog_Behaviorj
a00057e8 T _Z24Buttons_HW_To_Hal_Buttonj
a000a934 T _Z24CPU_EBIU_Memory_ReadOnlyRK17CPU_MEMORY_CONFIGj
a0006224 T _Z24CPU_GPIO_EnableOutputPinjj
a0007de4 T _Z24CPU_GetUncachableAddressj
a00000b8 T _Z24PrepareImageRegions_IRAMv
a0000644 T _Z24TinyBooter_OnStateChange16_TinyBooterStatePvPS0_
a0005380 T _Z25DebuggerPort_Uninitializei
a0000594 T _Z25TinyBooter_GetReleaseInfoR13MfReleaseInfo
a000598c T _Z26Buttons_GetNextStateChangeRjS_
a000a930 T _Z26CPU_EBIU_ConfigMemoryBlockRK17CPU_MEMORY_CONFIG
a00077cc T _Z26CPU_INTC_ActivateInterruptjPFvPvES_
a0005a90 T _Z27Buttons_RegisterStateChangejj
a00065ec T _Z27HAL_Time_GetDriftParametersPiS_Px
a00066fc T _Z27HAL_Time_Sleep_MicroSecondsj
a0000100 T _Z27PrepareImageRegions_IRAM_TCv
a0000574 T _Z27Tinybooter_ProgramWordCheckv
a0000580 T _Z28Tinybooter_ImageIsCompressedv
a0008bc4 T _Z28USART_RemoveCharFromTxBufferiRc
a0007704 T _Z29CPU_INTC_InterruptEnableStatej
a0005138 T _Z29CPU_ProtectCommunicationGPIOsj
a0006e0c T _Z29CPU_USART_WriteCharToTxBufferih
a0006d80 T _Z30CPU_USART_TxShiftRegisterEmptyi
a0000588 T _Z31Tinybooter_CompressedImageStartRK22CompressedImage_Header
a0007458 T _Z33CPU_USART_TxHandshakeEnabledStatei
a0006eb0 T _Z37CPU_USART_RxBufferFullInterruptEnableij
a0006d3c T _Z37CPU_USART_TxBufferEmptyInterruptStatei
a0007200 T _Z38CPU_USART_TxBufferEmptyInterruptEnableij
a0000590 T _Z39Tinybooter_PrepareForDecompressedLaunchv
a0006640 T _Z44HAL_Time_Sleep_MicroSeconds_InterruptEnabledj
a0000460 T _Z7delayMsjj
a0007960 T _Z8CPU_Haltv
a00004d0 T _Z8GetFpclkj
a0000154 T _Z8GetFsclkv
a0009848 T _Z8USB_ReadiPcj
a00078f8 T _Z9CPU_Resetv
a00079e8 T _Z9CPU_Sleep11SLEEP_LEVELy
a00057a8 T _Z9LCD_Clearv
a0009850 T _Z9USB_Flushi
a0009840 T _Z9USB_WriteiPKcj
a000a93c T _ZN10TimeDriver10InitializeEv
a0021dc0 B _ZN10TimeDriver13m_initializedE
a0003cb0 T _ZN10WP_Message10InitializeEP13WP_Controller
a0003e0c T _ZN10WP_Message12PrepareReplyERK9WP_PacketjjPh
a0003dc4 T _ZN10WP_Message12VerifyHeaderEv
a0003d74 T _ZN10WP_Message13VerifyPayloadEv
a0003ed0 T _ZN10WP_Message14PrepareRequestEjjjPh
a0004008 T _ZN10WP_Message14ReplyBadPacketEj
a0003c40 T _ZN10WP_Message16PrepareReceptionEv
a0004084 T _ZN10WP_Message7ProcessEv
a0003c4c T _ZN10WP_Message7ReleaseEv
a0003444 T _ZN11CryptoState15VerifySignatureEj
a0003410 T _ZN11CryptoStateC1EjjPhjj
a00036f4 T _ZN11CryptoStateD1Ev
a000659c W _ZN11LPC24XX_VIC14ForceInterruptEj
a00076a8 W _ZN11LPC24XX_VIC18IsInterruptEnabledEj
a00075bc W _ZN11LPC24XX_VIC21RemoveForcedInterruptEj
a0007594 W _ZN12HAL_CALLBACK10InitializeEPFvPvES0_
a0007c30 T _ZN12SmartPtr_IRQ11WasDisabledEv
a0007cf8 T _ZN12SmartPtr_IRQ12ForceEnabledEPv
a0007d14 T _ZN12SmartPtr_IRQ13ForceDisabledEPv
a0007d4c T _ZN12SmartPtr_IRQ5ProbeEv
a0007cac T _ZN12SmartPtr_IRQ7AcquireEv
a0007c88 T _ZN12SmartPtr_IRQ7DisableEv
a0007d70 T _ZN12SmartPtr_IRQ7ReleaseEv
a0007c40 T _ZN12SmartPtr_IRQ7RestoreEv
a0007d30 T _ZN12SmartPtr_IRQ8GetStateEPv
a0007cd0 T _ZN12SmartPtr_IRQC1EPv
a0007c64 T _ZN12SmartPtr_IRQD1Ev
a000968c T _ZN12USART_Driver10InitializeEiiiiii
a00095d4 T _ZN12USART_Driver12UninitializeEi
a0008be0 T _ZN12USART_Driver17AddCharToRxBufferEic
a0008adc T _ZN12USART_Driver22RemoveCharFromTxBufferEiRc
a0009100 T _ZN12USART_Driver4ReadEiPcj
a0008dd8 T _ZN12USART_Driver5FlushEi
a0009348 T _ZN12USART_Driver5WriteEiPKcj
a0008a18 T _ZN12USART_Driver7SendXONEij
a0008a78 T _ZN12USART_Driver8SendXOFFEij
a0008960 T _ZN12USART_Driver8SetEventEij
a00065b0 W _ZN13LPC24XX_TIMER8getIntNoEi
a0006c6c W _ZN13LPC24XX_USART8getIntNoEi
a0002d4c T _ZN13Loader_Engine10InitializeEi
a0000a8c T _ZN13Loader_Engine11App_ReleaseEPvP10WP_Message
a000165c T _ZN13Loader_Engine12Monitor_PingEP10WP_Message
a0001860 T _ZN13Loader_Engine14Monitor_RebootEP10WP_Message
a00018c4 T _ZN13Loader_Engine14ProcessPayloadEP10WP_Message
a00016a8 T _ZN13Loader_Engine14ReplyToCommandEP10WP_Messagebb
a00012e8 T _ZN13Loader_Engine14ReplyToCommandEP10WP_MessagebbPvi
a0002468 T _ZN13Loader_Engine15Monitor_ExecuteEP10WP_Message
a00015e4 T _ZN13Loader_Engine15Monitor_OemInfoEP10WP_Message
a0001cec T _ZN13Loader_Engine15ProcessCommandsEv
a0000a38 T _ZN13Loader_Engine15SignedDataState10CheckDirtyEv
a00028e4 T _ZN13Loader_Engine15SignedDataState15VerifySignatureEPhjj
a0002328 T _ZN13Loader_Engine15SignedDataState19EraseMemoryAndResetEv
a0002000 T _ZN13Loader_Engine15SignedDataState20VerifyContiguousDataEjj
a0000a58 T _ZN13Loader_Engine15SignedDataState5ResetEv
a00019d8 T _ZN13Loader_Engine15TransmitMessageEPK10WP_Messageb
a0002df8 T _ZN13Loader_Engine16Phy_ReceiveBytesEPvRPhRj
a0002e58 T _ZN13Loader_Engine17App_ProcessHeaderEPvP10WP_Message
a00023a0 T _ZN13Loader_Engine17Monitor_MemoryMapEP10WP_Message
a0001998 T _ZN13Loader_Engine18App_ProcessPayloadEPvP10WP_Message
a0001bb0 T _ZN13Loader_Engine18EnumerateAndLaunchEv
a0002824 T _ZN13Loader_Engine18Monitor_ReadMemoryEP10WP_Message
a00026b0 T _ZN13Loader_Engine19Monitor_CheckMemoryEP10WP_Message
a00025f4 T _ZN13Loader_Engine19Monitor_EraseMemoryEP10WP_Message
a0002764 T _ZN13Loader_Engine19Monitor_WriteMemoryEP10WP_Message
a0001a64 T _ZN13Loader_Engine19Phy_TransmitMessageEPvPK10WP_Message
a0002aa8 T _ZN13Loader_Engine22Monitor_CheckSignatureEP10WP_Message
a00013a4 T _ZN13Loader_Engine22Monitor_FlashSectorMapEP10WP_Message
a00016d0 T _ZN13Loader_Engine26Monitor_SignatureKeyUpdateEP10WP_Message
a0001a84 T _ZN13Loader_Engine6LaunchEPFvvE
a000127c T _ZN13MfReleaseInfo4InitERS_ttttPKcj
a0003d00 T _ZN13WP_Controller10InitializeEPKcPK16WP_PhysicalLayerPK19WP_ApplicationLayerPv
a00043ac T _ZN13WP_Controller12AdvanceStateEv
a0003c8c T _ZN13WP_Controller19SendProtocolMessageERK10WP_Message
a0003f88 T _ZN13WP_Controller19SendProtocolMessageEjjjPh
a000a670 T _ZN14HAL_COMPLETION14DequeueAndExecEv
a000a280 T _ZN14HAL_COMPLETION14InitializeListEv
a0005554 W _ZN14HAL_COMPLETION16InitializeForISREPFvPvES0_
a000a5b4 T _ZN14HAL_COMPLETION17WaitForInterruptsEyjy
a000a50c T _ZN14HAL_COMPLETION5AbortEv
a000a424 T _ZN14HAL_COMPLETION7ExecuteEv
a000797c T _ZN14LPC24XX_Driver10InitializeEv
a0007914 T _ZN14LPC24XX_Driver4HaltEv
a00078dc T _ZN14LPC24XX_Driver5ResetEv
a00078bc T _ZN14LPC24XX_Driver8ShutdownEv
a0002128 W _ZN15BitFieldManager17SetDirtySectorBitEj
a0000a18 W _ZN15BitFieldManager20ResetBitFieldManagerEv
a00022c8 W _ZN15BitFieldManager24InvalidateSectorBitFieldEv
a0000ab4 W _ZN15BitFieldManager24ResetSignatureCheckArrayEv
a0002b3c W _ZN15BitFieldManager25EraseOnSignatureCheckFailEv
a0001d0c W _ZN15BitFieldManager27GetNextSectorSignatureCheckEP18BlockStorageDeviceR16SECTOR_BIT_FIELD
a000470c T _ZN16BlockStorageList10InitializeEv
a00192d4 B _ZN16BlockStorageList12s_deviceListE
a0004f34 T _ZN16BlockStorageList13GetNextDeviceER18BlockStorageDevice
a00192d0 B _ZN16BlockStorageList13s_InitializedE
a0004690 T _ZN16BlockStorageList14GetFirstDeviceEv
a00192e0 B _ZN16BlockStorageList15s_primaryDeviceE
a0004f68 T _ZN16BlockStorageList17InitializeDevicesEv
a000505c T _ZN16BlockStorageList28FindDeviceForPhysicalAddressEPP18BlockStorageDevicejRj
a0004e98 T _ZN16BlockStorageList9AddDeviceEP18BlockStorageDeviceP19IBlockStorageDevicePvj
a000a7a0 T _ZN16HAL_CONFIG_BLOCK11ApplyConfigEPKcPvj
a000a25c T _ZN16HAL_CONTINUATION14InitializeListEv
a000a1a0 T _ZN16HAL_CONTINUATION18InitializeCallbackEPFvPvES0_
a000a450 T _ZN16HAL_CONTINUATION19Dequeue_And_ExecuteEv
a000a3bc T _ZN16HAL_CONTINUATION7EnqueueEv
a000a21c W _ZN17HAL_DblLinkedListI16HAL_CONTINUATIONE10InitializeEv
a000a330 W _ZN17HAL_DblLinkedListI16HAL_CONTINUATIONE10LinkAtBackEPS0_
a000a388 W _ZN17HAL_DblLinkedListI16HAL_CONTINUATIONE16ExtractFirstNodeEv
a000a2d0 W _ZN17HAL_DblLinkedListI16HAL_CONTINUATIONE16InsertBeforeNodeEPS0_S2_
a000a2bc W _ZN17HAL_DblLinkedListI16HAL_CONTINUATIONE6InsertEPS0_S2_S2_
a00046cc W _ZN17HAL_DblLinkedListI18BlockStorageDeviceE10InitializeEv
a00047d0 W _ZN17HAL_DblLinkedListI18BlockStorageDeviceE10LinkAtBackEPS0_
a0004770 W _ZN17HAL_DblLinkedListI18BlockStorageDeviceE16InsertBeforeNodeEPS0_S2_
a000475c W _ZN17HAL_DblLinkedListI18BlockStorageDeviceE6InsertEPS0_S2_S2_
a0005510 W _ZN17HAL_DblLinkedNodeI16HAL_CONTINUATIONE10InitializeEv
a000a2a4 W _ZN17HAL_DblLinkedNodeI16HAL_CONTINUATIONE14RemoveFromListEv
a000a178 W _ZN17HAL_DblLinkedNodeI16HAL_CONTINUATIONE6UnlinkEv
a0004668 W _ZN17HAL_DblLinkedNodeI18BlockStorageDeviceE10InitializeEv
a0004744 W _ZN17HAL_DblLinkedNodeI18BlockStorageDeviceE14RemoveFromListEv
a0000550 W _ZN18BlockStorageDevice13GetDeviceInfoEv
a00009d0 W _ZN18BlockStorageDevice13IsBlockErasedEjj
a00043d4 W _ZN18BlockStorageDevice16InitializeDeviceEv
a00045d0 W _ZN18BlockStorageDevice17FindForBlockUsageEjRjS0_S0_
a000461c W _ZN18BlockStorageDevice18FindNextUsageBlockEjRjS0_S0_
a0000600 W _ZN18BlockStorageDevice21FindRegionFromAddressEjRjS0_
a0000980 W _ZN18BlockStorageDevice4ReadEjjPh
a00009a4 W _ZN18BlockStorageDevice5WriteEjjPhj
a0004e78 T _ZN18BlockStorageStream10InitializeEj
a0004dd4 T _ZN18BlockStorageStream10InitializeEjP18BlockStorageDevice
a0004810 T _ZN18BlockStorageStream10NextStreamEv
a0004b24 T _ZN18BlockStorageStream10PrevStreamEv
a00043f8 T _ZN18BlockStorageStream14CurrentAddressEv
a00049f4 T _ZN18BlockStorageStream4ReadEPPhj
a0004ce4 T _ZN18BlockStorageStream4SeekEiNS_10SeekOriginE
a0005aec T _ZN18GPIO_BUTTON_Driver10InitializeEv
a000589c T _ZN18GPIO_BUTTON_Driver14CurrentHWStateEv
a00057b0 T _ZN18GPIO_BUTTON_Driver16HW_To_Hal_ButtonEj
a0005914 T _ZN18GPIO_BUTTON_Driver18GetNextStateChangeERjS0_
a00059a8 T _ZN18GPIO_BUTTON_Driver19RegisterStateChangeEjj
a0005aac T _ZN18GPIO_BUTTON_Driver3ISREjjPv
a000a7ec T _ZN18LPC24XX_SPI_Driver10InitializeEv
a00075d0 T _ZN18LPC24XX_VIC_Driver10InitializeEv
a0017530 D _ZN18LPC24XX_VIC_Driver10s_IsrTableE
a00077f4 T _ZN18LPC24XX_VIC_Driver11IRQ_HandlerEv
a0007640 T _ZN18LPC24XX_VIC_Driver14IRQToIRQVectorEj
a0007670 T _ZN18LPC24XX_VIC_Driver14STUB_ISRVectorEPv
a0007720 T _ZN18LPC24XX_VIC_Driver17ActivateInterruptEjjPFvPvES0_
a00076dc T _ZN18LPC24XX_VIC_Driver20InterruptEnableStateEj
a0016768 T _ZN19AT49BV_16_BS_Driver10EraseBlockEPvj
a001657c T _ZN19AT49BV_16_BS_Driver12ChipReadOnlyEPvjj
a001643c T _ZN19AT49BV_16_BS_Driver13Action_ReadIDEPvRjS1_
a001627c T _ZN19AT49BV_16_BS_Driver13GetDeviceInfoEPv
a0016528 T _ZN19AT49BV_16_BS_Driver13IsBlockErasedEPvjj
a0016ad4 T _ZN19AT49BV_16_BS_Driver13ReadProductIDEPvRjS1_
a0016294 T _ZN19AT49BV_16_BS_Driver13SetPowerStateEPvj
a0016b24 T _ZN19AT49BV_16_BS_Driver14ChipInitializeEPv
a00162b0 T _ZN19AT49BV_16_BS_Driver16Action_UnprotectEPvPVt
a00162b4 T _ZN19AT49BV_16_BS_Driver16Action_WriteWordEPvPVtt
a0016274 T _ZN19AT49BV_16_BS_Driver16ChipUnInitializeEPv
a0016284 T _ZN19AT49BV_16_BS_Driver17GetSectorMetadataEPvjP14SectorMetadata
a001628c T _ZN19AT49BV_16_BS_Driver17SetSectorMetadataEPvjP14SectorMetadata
a0016370 T _ZN19AT49BV_16_BS_Driver18Action_EraseSectorEPvPVt
a00162a4 T _ZN19AT49BV_16_BS_Driver18MaxBlockErase_uSecEPv
a0016298 T _ZN19AT49BV_16_BS_Driver19MaxSectorWrite_uSecEPv
a00164d8 T _ZN19AT49BV_16_BS_Driver4ReadEPvjjPh
a001681c T _ZN19AT49BV_16_BS_Driver5WriteEPvjjPhj
a0016734 T _ZN19AT49BV_16_BS_Driver6MemsetEPvjhj
a0016610 T _ZN19AT49BV_16_BS_Driver6WriteXEPvjjPhjj
a0005804 W _ZN19Hal_Queue_KnownSizeIN18GPIO_BUTTON_Driver19BUTTON_STATE_CHANGEELj64EE10InitializeEv
a0005858 W _ZN19Hal_Queue_KnownSizeIN18GPIO_BUTTON_Driver19BUTTON_STATE_CHANGEELj64EE3PopEv
a0005818 W _ZN19Hal_Queue_KnownSizeIN18GPIO_BUTTON_Driver19BUTTON_STATE_CHANGEELj64EE4PushEv
a0005ea0 T _ZN19LPC24XX_GPIO_Driver10DisablePinEj13GPIO_RESISTORj13GPIO_ALT_MODE
a00064a8 T _ZN19LPC24XX_GPIO_Driver10InitializeEv
a000609c T _ZN19LPC24XX_GPIO_Driver11GetPinStateEj
a0005e78 W _ZN19LPC24XX_GPIO_Driver11PinToPCBRegEj
a0005fc0 T _ZN19LPC24XX_GPIO_Driver11SetPinStateEjj
a0006240 T _ZN19LPC24XX_GPIO_Driver14EnableInputPinEjjPFvjjPvES0_13GPIO_INT_EDGE13GPIO_RESISTOR
a0005e4c W _ZN19LPC24XX_GPIO_Driver14PinToPCBRegBitEj
a0005e24 T _ZN19LPC24XX_GPIO_Driver14STUB_ISRVectorEjjPv
a0006120 T _ZN19LPC24XX_GPIO_Driver15EnableOutputPinEjj
a0005bf8 T _ZN19LPC24XX_GPIO_Driver18PIN_ISR_DESCRIPTOR4FireEPv
a0005c20 T _ZN19LPC24XX_GPIO_Driver8GPIO_ISREPv
a0005f70 W _ZN19LPC24XX_GPIO_Driver8PinToBitEj
a0005f98 W _ZN19LPC24XX_GPIO_Driver9PinToPortEj
a0006aac T _ZN19LPC24XX_TIME_Driver10InitializeEv
a0016114 T _ZN19LPC24XX_TIME_Driver10Sleep_uSecEj
a000665c T _ZN19LPC24XX_TIME_Driver12CounterValueEv
a000688c T _ZN19LPC24XX_TIME_Driver15SetCompareValueEy
a00160ec T _ZN19LPC24XX_TIME_Driver15Sleep_uSec_LoopEj
a00069b0 T _ZN19LPC24XX_TIME_Driver3ISREPv
a000a7c8 T _ZN20FileSystemVolumeList10InitializeEv
a000a7cc T _ZN20FileSystemVolumeList17InitializeVolumesEv
a0006b58 T _ZN20LPC24XX_TIMER_Driver10InitializeEjPFvPvES0_
a000684c W _ZN20LPC24XX_TIMER_Driver10SetCompareEjj
a001619c T _ZN20LPC24XX_TIMER_Driver11ReadCounterEj
a000680c W _ZN20LPC24XX_TIMER_Driver13DidCompareHitEj
a0006718 W _ZN20LPC24XX_TIMER_Driver14ForceInterruptEj
a00067cc W _ZN20LPC24XX_TIMER_Driver15ResetCompareHitEj
a0006a68 W _ZN20LPC24XX_TIMER_Driver22EnableCompareInterruptEj
a000721c T _ZN20LPC24XX_USART_Driver10InitializeEiiiiii
a0006fb0 T _ZN20LPC24XX_USART_Driver11ProtectPinsEij
a000713c T _ZN20LPC24XX_USART_Driver12UninitializeEi
a0006d9c T _ZN20LPC24XX_USART_Driver13TxBufferEmptyEi
a0007460 T _ZN20LPC24XX_USART_Driver15UART_IntHandlerEPv
a0006dc4 T _ZN20LPC24XX_USART_Driver19WriteCharToTxBufferEih
a0006d58 T _ZN20LPC24XX_USART_Driver20TxShiftRegisterEmptyEi
a0006e44 T _ZN20LPC24XX_USART_Driver27RxBufferFullInterruptEnableEij
a0006d08 T _ZN20LPC24XX_USART_Driver27TxBufferEmptyInterruptStateEi
a0006ecc T _ZN20LPC24XX_USART_Driver28TxBufferEmptyInterruptEnableEij
a00087a8 W _ZN21Hal_Queue_UnknownSizeIhE10InitializeEPhj
a00088d0 W _ZN21Hal_Queue_UnknownSizeIhE16NumberOfElementsEv
a0008844 W _ZN21Hal_Queue_UnknownSizeIhE3PopERj
a000875c W _ZN21Hal_Queue_UnknownSizeIhE3PopEv
a00087c4 W _ZN21Hal_Queue_UnknownSizeIhE4PushERj
a000891c W _ZN21Hal_Queue_UnknownSizeIhE4PushEv
a00088fc W _ZN21Hal_Queue_UnknownSizeIhE7IsEmptyEv
a000a868 T _ZN23LPC24XX_WATCHDOG_Driver7DisableEv
a000a898 T _ZN23LPC24XX_WATCHDOG_Driver8ResetCpuEv
a0002fd4 T _ZN26ConfigurationSectorManager17GetDeploymentKeysEj
a0002f6c T _ZN26ConfigurationSectorManager17LoadConfigurationEv
a0003278 T _ZN26ConfigurationSectorManager18UpdateSignatureKeyEjPh
a00030e8 T _ZN26ConfigurationSectorManager18WriteConfigurationEjPhjj
a00032a8 T _ZN26ConfigurationSectorManager19CleanBootLoaderFlagEv
a000301c T _ZN26ConfigurationSectorManager19VerifiySignatureKeyEjPh
a0002f54 T _ZN26ConfigurationSectorManager20GetTinyBooterVersionEv
a0002e94 T _ZN26ConfigurationSectorManager20IsBootLoaderRequiredERi
a000307c T _ZN26ConfigurationSectorManager21EraseWriteConfigBlockEPhj
a0002f14 T _ZN26ConfigurationSectorManager22CheckSignatureKeyEmptyEj
a00032e8 T _ZN26ConfigurationSectorManager25LocateConfigurationSectorEj
a0006ca8 W _ZN7LPC24XX4UARTEi
a000676c W _ZN7LPC24XX5TIMEREi
a00008cc W _ZN7Version4InitERS_tttt
a0000904 W _ZNK10BlockRange13GetBlockCountEv
a00043cc W _ZNK10BlockRange13GetBlockUsageEv
a00008e4 W _ZNK10BlockRange8IsConfigEv
a000759c W _ZNK12HAL_CALLBACK7ExecuteEv
a000459c T _ZNK15BlockDeviceInfo17FindForBlockUsageEjRjS0_S0_
a00044dc T _ZNK15BlockDeviceInfo18FindNextUsageBlockEjRjS0_S0_
a0004404 T _ZNK15BlockDeviceInfo21FindRegionFromAddressEjRjS0_
a0000914 W _ZNK15BlockRegionInfo12BlockAddressEj
a0000924 W _ZNK15BlockRegionInfo15OffsetFromBlockEj
a0000954 W _ZNK15BlockRegionInfo21BlockIndexFromAddressEj
a000a924 W _ZNK15BlockRegionInfo4SizeEv
a000a158 W _ZNK16HAL_CONTINUATION7ExecuteEv
a000a370 W _ZNK17HAL_DblLinkedListI16HAL_CONTINUATIONE14FirstValidNodeEv
a000a218 W _ZNK17HAL_DblLinkedListI16HAL_CONTINUATIONE4HeadEv
a000a1e4 W _ZNK17HAL_DblLinkedListI16HAL_CONTINUATIONE4TailEv
a000a1ec W _ZNK17HAL_DblLinkedListI16HAL_CONTINUATIONE7IsEmptyEv
a0004678 W _ZNK17HAL_DblLinkedListI18BlockStorageDeviceE14FirstValidNodeEv
a00046c8 W _ZNK17HAL_DblLinkedListI18BlockStorageDeviceE4HeadEv
a00046c0 W _ZNK17HAL_DblLinkedListI18BlockStorageDeviceE4TailEv
a00009f4 W _ZNK18BlockStorageDevice10EraseBlockEj
a0021dc4 b _ZZN10TimeDriver16DateTimeToStringERKxE8rgBuffer
a0021e44 b _ZZN10TimeDriver16TimeSpanToStringERKxE8rgBuffer
a00176f8 d _ZZN20LPC24XX_USART_Driver11ProtectPinsEijE18COM1_PinsProtected
a00176fc d _ZZN20LPC24XX_USART_Driver11ProtectPinsEijE18COM2_PinsProtected
a00176f0 d _ZZN20LPC24XX_USART_Driver11ProtectPinsEijE18COM3_PinsProtected
a00176f4 d _ZZN20LPC24XX_USART_Driver11ProtectPinsEijE18COM4_PinsProtected
a001480c T ___Unwind_ForcedUnwind
a00147a0 T ___Unwind_RaiseException
a00147c4 T ___Unwind_Resume
a00147e8 T ___Unwind_Resume_or_Rethrow
a00121dc T __adddf3
a0012b38 T __aeabi_cdcmpeq
a0012b38 T __aeabi_cdcmple
a0012b1c T __aeabi_cdrcmple
a0012bc8 T __aeabi_d2iz
a00121dc T __aeabi_dadd
a0012b50 T __aeabi_dcmpeq
a0012b98 T __aeabi_dcmpge
a0012bb0 T __aeabi_dcmpgt
a0012b80 T __aeabi_dcmple
a0012b68 T __aeabi_dcmplt
a001287c T __aeabi_ddiv
a00125ec T __aeabi_dmul
a00121d0 T __aeabi_drsub
a00121d8 T __aeabi_dsub
a0012538 T __aeabi_f2d
a0012510 T __aeabi_i2d
a00121cc T __aeabi_idiv0
a001258c T __aeabi_l2d
a00121cc T __aeabi_ldiv0
a00124ec T __aeabi_ui2d
a00120b8 T __aeabi_uidiv
a00121b4 T __aeabi_uidivmod
a0012578 T __aeabi_ul2d
a0012c24 T __aeabi_uldivmod
a0013dc0 T __aeabi_unwind_cpp_pr0
a0013dac W __aeabi_unwind_cpp_pr1
a0013d98 W __aeabi_unwind_cpp_pr2
a0010c70 T __any_on
a0010a68 T __b2d
a0015fc0 T __clz_tab
a0012a98 T __cmpdf2
a0010c14 T __copybits
         w __cxa_begin_cleanup
         w __cxa_call_unexpected
         w __cxa_type_match
a0010da4 T __d2b
a00121cc T __div0
a001287c T __divdf3
a0012cd0 T __divdi3
a0012a98 T __eqdf2
a0021f24 B __exidx_end
a0021f24 B __exidx_start
a0012538 T __extendsfdf2
a0012bc8 T __fixdfsi
a001258c T __floatdidf
a0012510 T __floatsidf
a0012578 T __floatundidf
a00124ec T __floatunsidf
a000f318 t __fp_lock
a000f34c T __fp_lock_all
a000f320 t __fp_unlock
a000f328 T __fp_unlock_all
a0012a88 T __gedf2
         w __gnu_Unwind_Find_exidx
a001407c T __gnu_Unwind_ForcedUnwind
a00141ec T __gnu_Unwind_RaiseException
a00146c0 T __gnu_Unwind_Restore_VFP
a00146d0 T __gnu_Unwind_Restore_VFP_D
a00146e0 T __gnu_Unwind_Restore_VFP_D_16_to_31
a0014778 T __gnu_Unwind_Restore_WMMXC
a00146f0 T __gnu_Unwind_Restore_WMMXD
a0014100 T __gnu_Unwind_Resume
a0014298 T __gnu_Unwind_Resume_or_Rethrow
a00146c8 T __gnu_Unwind_Save_VFP
a00146d8 T __gnu_Unwind_Save_VFP_D
a00146e8 T __gnu_Unwind_Save_VFP_D_16_to_31
a001478c T __gnu_Unwind_Save_WMMXC
a0014734 T __gnu_Unwind_Save_WMMXD
a0012c88 T __gnu_ldivmod_helper
a0012c40 T __gnu_uldivmod_helper
a001490c T __gnu_unwind_execute
a0014d18 T __gnu_unwind_frame
a0013960 t __gnu_unwind_pr_common
a0012a88 T __gtdf2
a00108b4 T __hi0bits
a0011300 T __i2b
a0011b94 T __isinfd
a0011bd0 T __isnand
a0017bbc D __lc_ctype
a0012a90 T __ledf2
a001090c T __lo0bits
a000fdd4 T __locale_charset
a001101c T __lshift
a0012a90 T __ltdf2
a0017bc8 D __malloc_av_
a0021ef4 B __malloc_current_mallinfo
a0010890 T __malloc_lock
a0021f1c B __malloc_max_sbrked_mem
a0021f20 B __malloc_max_total_mem
a0017fd0 D __malloc_sbrk_base
a0021ef0 B __malloc_top_pad
a0017fd4 D __malloc_trim_threshold
a0010894 T __malloc_unlock
a0017bb8 D __mb_cur_max
a00109a0 T __mcmp
a0010ed8 T __mdiff
a0015f70 T __mprec_bigtens
a0015e98 T __mprec_tens
a0015f98 T __mprec_tinytens
a00125ec T __muldf3
a0011324 T __multadd
a0011128 T __multiply
a0012a98 T __nedf2
a00113fc T __pow5mult
a0010b24 T __ratio
a00146a4 T __restore_core_regs
a00114f4 T __s2b
a0011c40 T __sclose
a000f398 T __sfmoreglue
a000f3ec T __sfp
a000f284 T __sfp_lock_acquire
a000f288 T __sfp_lock_release
a000f884 T __sfvwrite_r
a0014e5c T __sigtramp
a0014dd8 T __sigtramp_r
a000f294 T __sinit
a000f28c T __sinit_lock_acquire
a000f290 T __sinit_lock_release
a000fe7c T __smakebuf
a000af6c t __sprint_r
a0011d10 T __sread
a0011c60 T __sseek
a00121d8 T __subdf3
a0011cac T __swrite
a000d87c T __swsetup
a0013254 T __udivdi3
a00120b8 T __udivsi3
a0010a08 T __ulp
00000000 A __use_no_semihosting_swi
a0011e04 T _calloc_r
a000f388 T _cleanup
a000f370 T _cleanup_r
a001752c T _close
a0011ea4 T _close_r
a000dbb0 T _dtoa_r
a001752c T _exit
a0011ee0 T _fclose_r
a000f5c4 T _free_r
a001752c T _fstat
a0011ff0 T _fstat_r
a000fd4c T _fwalk
a000fcc0 T _fwalk_reent
a001752c T _getpid
a0014fa4 T _getpid_r
a0015d98 T _global_impure_ptr
a00177b0 D _impure_ptr
a0014dc8 T _init_signal
a0014d70 T _init_signal_r
a001752c T _kill
a0014fb4 T _kill_r
a000fde4 T _localeconv_r
a001752c T _lseek
a0012030 T _lseek_r
a000fff8 T _malloc_r
a000f4c8 T _malloc_trim_r
a0010ba8 T _mprec_log10
a0014e70 T _raise_r
a001752c T _read
a0012074 T _read_r
a00115d8 T _realloc_r
a001752c T _sbrk
a0011c00 T _sbrk_r
a000fe00 T _setlocale_r
a0014f30 T _signal_r
         U _start
a000afa4 T _vfprintf_r
a000ae70 T _vsnprintf_r
a000d25c T _wcrtomb_r
a000d2d4 T _wcsrtombs_r
a000d45c T _wctomb_r
a001752c T _write
a0011dc0 T _write_r
a0014d60 T abort
a0015d9e t blanks.3531
a001531c t c_CRCTable
a001517c t c_Debugger_app
a0015174 t c_Debugger_phy
a00150d8 t c_Lookup_Reply
a00150e4 t c_Lookup_Request
a0015e54 t charset
a0008260 T debug_printf
a0021f24 B errno
a0011fdc T fclose
a000f070 T fflush
a0021dac B g_AT49BV642DT_16_BS
a0017744 D g_AT49BV642DT_16_BS_Config
a0015bc4 t g_AT49BV642DT_16_BlkRegion
a0015bd8 t g_AT49BV642DT_16_BlockRange
a0017728 D g_AT49BV642DT_16_DeviceInfo
a0017778 D g_AT49BV_16_BS_DeviceTable
a0017fe0 B g_BitFieldManager
a001e074 b g_Boot_RAMConstants_CRC
a001801c B g_ConfigBuffer
a0018020 B g_ConfigBufferLength
a0016c20 T g_ConfigurationSector
a00192ec B g_Event_Callback
a00192f0 B g_Event_Callback_Arg
a00192f8 B g_Events_BoolTimerCompletion
a00176bc D g_GPIO_BUTTON_Config
a0019318 B g_GPIO_BUTTON_Driver
a0021da0 B g_HAL_Completion_List
a0021d94 B g_HAL_Continuation_List
a0019528 B g_LPC24XX_GPIO_Driver
a001bab0 B g_LPC24XX_PINSEL_Driver
a001e048 B g_LPC24XX_TIMER_Driver
a001e038 B g_LPC24XX_TIME_Driver
a0018024 B g_PrimaryConfigManager
a0021ec8 B g_TimeDriver
a0018950 B g_eng
a001e058 b g_s_FirstCluster
a0013dd4 t get_eit_entry
a00177b8 d impure_data
a001752c T isatty
a00080b8 T lcd_printf
a0015e58 t lconv
a000fdf0 T localeconv
a000008c t loop
a001077c T memchr
a000a9c4 T memcmp
a000aa5c T memcpy
a000ab00 T memmove
a000abf4 T memset
a0014830 t next_unwind_byte
a0015f60 t p05.2718
a0000538 T platform_prestackinit
a0003a88 T private_free
a0003aa4 T private_malloc
a000d990 t quorem
a0014f1c T raise
a00146a4 T restore_core_regs
a0014168 t restore_non_core_regs
a0013894 t search_EIT_table
a0013878 t selfrel_offset31
a000fe60 T setlocale
a0014f88 T signal
a000f228 t std
a000ac80 T strcmp
a0011d58 T strlen
a000ad68 T strncpy
a00148cc t unwind_UCB_from_context
a00140a4 t unwind_phase2
a0013f20 t unwind_phase2_forced
a000d230 T vfprintf
a000aee8 T vsnprintf
a000d2a8 T wcrtomb
a000d418 T wcsrtombs
a0015dae t zeroes.3532
